0:abort
1:enlargeMemory
2:getTotalMemory
3:abortOnCannotGrowMemory
4:___assert_fail
5:_emscripten_memcpy_big
6:__embind_register_std_string
7:__embind_register_class_constructor
8:___syscall140
9:___syscall146
10:__embind_register_class_class_property
11:__embind_register_value_object_field
12:___setErrNo
13:__embind_register_bool
14:__embind_register_emval
15:__embind_finalize_value_object
16:__emval_decref
17:_pthread_once
18:_llvm_trap
19:__embind_register_class
20:___syscall6
21:_exit
22:_sched_yield
23:__embind_register_integer
24:___cxa_allocate_exception
25:__emval_take_value
26:__embind_register_value_object
27:_pthread_getspecific
28:_pthread_key_create
29:_abort
30:___cxa_pure_virtual
31:__embind_register_memory_view
32:__embind_register_void
33:__embind_register_std_wstring
34:__embind_register_class_function
35:__emval_incref
36:__embind_register_float
37:_pthread_setspecific
38:___cxa_throw
39:stackAlloc
40:stackSave
41:stackRestore
42:establishStackSpace
43:setThrew
44:setTempRet0
45:getTempRet0
46:__ZN6google8protobuf14FatalExceptionD2Ev
47:__ZN6google8protobuf14FatalExceptionD0Ev
48:__ZNK6google8protobuf14FatalException4whatEv
49:__ZN6google8protobuf7ClosureD2Ev
50:__ZN6google8protobuf7ClosureD0Ev
51:__ZN6google8protobuf8internal16FunctionClosure03RunEv
52:__ZN6google8protobuf8internal10LogMessage6FinishEv
53:__ZN6google8protobuf8internal20InitLogSilencerCountEv
54:__ZN6google8protobuf14FatalExceptionC2EPKciRKNSt3__212basic_stringIcNS4_11char_traitsIcEENS4_9allocatorIcEEEE
55:__ZN6google8protobuf8internal17DefaultLogHandlerENS0_8LogLevelEPKciRKNSt3__212basic_stringIcNS5_11char_traitsIcEENS5_9allocatorIcEEEE
56:__ZN6google8protobuf8internal22DeleteLogSilencerCountEv
57:__ZN6google8protobuf8internal21InitShutdownFunctionsEv
58:__ZNSt3__26vectorIPFvvENS_9allocatorIS2_EEE21__push_back_slow_pathIKS2_EEvRT_
59:__ZN6google8protobuf8internal10LogMessagelsEPKc
60:__ZN6google8protobuf8internal10LogMessagelsERKNSt3__212basic_stringIcNS3_11char_traitsIcEENS3_9allocatorIcEEEE
61:__ZN6google8protobuf8internal11LogFinisheraSERNS1_10LogMessageE
62:__ZN6google8protobuf8internal10OnShutdownEPFvvE
63:__ZN6google8protobuf8internal10LogMessagelsEi
64:__ZN6google8protobuf8internal10LogMessageC2ENS0_8LogLevelEPKci
65:__ZN6google8protobuf8internal10LogMessageD2Ev
66:__ZN6google8protobuf8internal5MutexC2Ev
67:__ZN6google8protobuf18GoogleOnceInitImplEPiPNS0_7ClosureE
68:__GLOBAL__sub_I_status_cc
69:__ZN6google8protobuf4util6StatusC2ENS1_5error4CodeENS0_11StringPieceE
70:__ZNSt3__2plIcNS_11char_traitsIcEENS_9allocatorIcEEEENS_12basic_stringIT_T0_T1_EERKS9_PKS6_
71:__ZNSt3__2plIcNS_11char_traitsIcEENS_9allocatorIcEEEENS_12basic_stringIT_T0_T1_EERKS9_SB_
72:__ZN6google8protobuf13StringAppendVEPNSt3__212basic_stringIcNS1_11char_traitsIcEENS1_9allocatorIcEEEEPKcPi
73:__ZN6google8protobuf12StringPrintfEPKcz
74:__ZN6google8protobuf13StringAppendFEPNSt3__212basic_stringIcNS1_11char_traitsIcEENS1_9allocatorIcEEEEPKcz
75:__ZN6google8protobuf8internal15UTF8GenericScanEPKNS1_19UTF8StateMachineObjEPKciPi
76:__ZN6google8protobuf8internal23IsStructurallyValidUTF8EPKci
77:__ZN6google8protobuf15StripWhitespaceEPNSt3__212basic_stringIcNS1_11char_traitsIcEENS1_9allocatorIcEEEE
78:__ZN6google8protobuf16SplitStringUsingERKNSt3__212basic_stringIcNS1_11char_traitsIcEENS1_9allocatorIcEEEEPKcPNS1_6vectorIS7_NS5_IS7_EEEE
79:__ZNSt3__26vectorINS_12basic_stringIcNS_11char_traitsIcEENS_9allocatorIcEEEENS4_IS6_EEE21__push_back_slow_pathIKS6_EEvRT_
80:__ZN6google8protobuf24UnescapeCEscapeSequencesEPKcPcPNSt3__26vectorINS4_12basic_stringIcNS4_11char_traitsIcEENS4_9allocatorIcEEEENS9_ISB_EEEE
81:__ZN6google8protobuf21UnescapeCEscapeStringERKNSt3__212basic_stringIcNS1_11char_traitsIcEENS1_9allocatorIcEEEE
82:__ZN6google8protobuf16CEscapeAndAppendENS0_11StringPieceEPNSt3__212basic_stringIcNS2_11char_traitsIcEENS2_9allocatorIcEEEE
83:__ZN6google8protobuf7CEscapeERKNSt3__212basic_stringIcNS1_11char_traitsIcEENS1_9allocatorIcEEEE
84:__ZN6google8protobuf17FastInt64ToBufferExPc
85:__ZN6google8protobuf17FastInt32ToBufferEiPc
86:__ZN6google8protobuf22FastUInt32ToBufferLeftEjPc
87:__ZN6google8protobuf21FastInt32ToBufferLeftEiPc
88:__ZN6google8protobuf22FastUInt64ToBufferLeftEyPc
89:__ZN6google8protobuf10SimpleItoaEi
90:__ZN6google8protobuf10SimpleItoaEj
91:__ZN6google8protobuf10SimpleItoaEx
92:__ZN6google8protobuf10SimpleItoaEy
93:__ZN6google8protobuf10SimpleDtoaEd
94:__ZN6google8protobuf14DoubleToBufferEdPc
95:__ZN6google8protobuf10SimpleFtoaEf
96:__ZN6google8protobuf13FloatToBufferEfPc
97:__ZN6google8protobuf12safe_strto32ERKNSt3__212basic_stringIcNS1_11char_traitsIcEENS1_9allocatorIcEEEEPi
98:__ZN6google8protobuf17safe_int_internalIiEEbNSt3__212basic_stringIcNS2_11char_traitsIcEENS2_9allocatorIcEEEEPT_
99:__ZN6google8protobuf15safe_parse_signEPNSt3__212basic_stringIcNS1_11char_traitsIcEENS1_9allocatorIcEEEEPb
100:__ZN6google8protobuf7strings8AlphaNumC2ENS1_3HexE
101:__ZN6google8protobuf6StrCatERKNS0_7strings8AlphaNumES4_S4_
102:__ZN6google8protobuf9StrAppendEPNSt3__212basic_stringIcNS1_11char_traitsIcEENS1_9allocatorIcEEEERKNS0_7strings8AlphaNumE
103:__ZNSt3__2plIcNS_11char_traitsIcEENS_9allocatorIcEEEENS_12basic_stringIT_T0_T1_EEPKS6_RKS9_
104:__ZN6google8protobuf5Arena8NewBlockEPvPNS1_5BlockEjjj
105:__ZN6google8protobuf5Arena11AddListNodeEPvPFvS2_E
106:__ZN6google8protobuf5Arena9SlowAllocEj
107:__ZN6google8protobuf5Arena15AllocateAlignedEPKSt9type_infoj
108:__ZN6google8protobuf8internal14ArenaStringPtr17AssignWithDefaultEPKNSt3__212basic_stringIcNS3_11char_traitsIcEENS3_9allocatorIcEEEES2_
109:__ZN6google8protobuf8internal14ArenaStringPtr21CreateInstanceNoArenaEPKNSt3__212basic_stringIcNS3_11char_traitsIcEENS3_9allocatorIcEEEE
110:__ZN6google8protobuf8internal24GeneratedExtensionFinder4FindEiPNS1_13ExtensionInfoE
111:__ZNSt3__26__treeINS_12__value_typeIiN6google8protobuf8internal12ExtensionSet9ExtensionEEENS_19__map_value_compareIiS7_NS_4lessIiEELb1EEENS_9allocatorIS7_EEE7destroyEPNS_11__tree_nodeIS7_PvEE
112:__ZN6google8protobuf8internal12ExtensionSetC2Ev
113:__ZN6google8protobuf8internal12ExtensionSetD2Ev
114:__ZN6google8protobuf8internal12ExtensionSet9Extension4FreeEv
115:__ZNK6google8protobuf8internal12ExtensionSet3HasEi
116:__ZNK6google8protobuf8internal12ExtensionSet13ExtensionSizeEi
117:__ZNK6google8protobuf8internal12ExtensionSet9Extension7GetSizeEv
118:__ZN6google8protobuf8internal12ExtensionSet14ClearExtensionEi
119:__ZN6google8protobuf8internal12ExtensionSet9Extension5ClearEv
120:__ZNK6google8protobuf8internal12ExtensionSet8GetInt32Eii
121:__ZN6google8protobuf8internal12ExtensionSet8SetInt32EihiPKNS0_15FieldDescriptorE
122:__ZNSt3__227__tree_balance_after_insertIPNS_16__tree_node_baseIPvEEEEvT_S5_
123:__ZN6google8protobuf8internal12ExtensionSet17MaybeNewExtensionEiPKNS0_15FieldDescriptorEPPNS2_9ExtensionE
124:__ZNK6google8protobuf8internal12ExtensionSet16GetRepeatedInt32Eii
125:__ZN6google8protobuf8internal12ExtensionSet16SetRepeatedInt32Eiii
126:__ZN6google8protobuf8internal12ExtensionSet8AddInt32EihbiPKNS0_15FieldDescriptorE
127:__ZN6google8protobuf8internal21arena_destruct_objectINS0_13RepeatedFieldIiEEEEvPv
128:__ZN6google8protobuf13RepeatedFieldIiE7ReserveEi
129:__ZNK6google8protobuf8internal12ExtensionSet8GetInt64Eix
130:__ZN6google8protobuf8internal12ExtensionSet8SetInt64EihxPKNS0_15FieldDescriptorE
131:__ZNK6google8protobuf8internal12ExtensionSet16GetRepeatedInt64Eii
132:__ZN6google8protobuf8internal12ExtensionSet16SetRepeatedInt64Eiix
133:__ZN6google8protobuf8internal12ExtensionSet8AddInt64EihbxPKNS0_15FieldDescriptorE
134:__ZN6google8protobuf13RepeatedFieldIxE7ReserveEi
135:__ZNK6google8protobuf8internal12ExtensionSet17GetRepeatedUInt32Eii
136:__ZN6google8protobuf8internal12ExtensionSet17SetRepeatedUInt32Eiij
137:__ZN6google8protobuf8internal12ExtensionSet9AddUInt32EihbjPKNS0_15FieldDescriptorE
138:__ZNK6google8protobuf8internal12ExtensionSet17GetRepeatedUInt64Eii
139:__ZN6google8protobuf8internal12ExtensionSet17SetRepeatedUInt64Eiiy
140:__ZN6google8protobuf8internal12ExtensionSet9AddUInt64EihbyPKNS0_15FieldDescriptorE
141:__ZNK6google8protobuf8internal12ExtensionSet8GetFloatEif
142:__ZN6google8protobuf8internal12ExtensionSet8SetFloatEihfPKNS0_15FieldDescriptorE
143:__ZNK6google8protobuf8internal12ExtensionSet16GetRepeatedFloatEii
144:__ZN6google8protobuf8internal12ExtensionSet16SetRepeatedFloatEiif
145:__ZN6google8protobuf8internal12ExtensionSet8AddFloatEihbfPKNS0_15FieldDescriptorE
146:__ZNK6google8protobuf8internal12ExtensionSet9GetDoubleEid
147:__ZN6google8protobuf8internal12ExtensionSet9SetDoubleEihdPKNS0_15FieldDescriptorE
148:__ZNK6google8protobuf8internal12ExtensionSet17GetRepeatedDoubleEii
149:__ZN6google8protobuf8internal12ExtensionSet17SetRepeatedDoubleEiid
150:__ZN6google8protobuf8internal12ExtensionSet9AddDoubleEihbdPKNS0_15FieldDescriptorE
151:__ZNK6google8protobuf8internal12ExtensionSet7GetBoolEib
152:__ZN6google8protobuf8internal12ExtensionSet7SetBoolEihbPKNS0_15FieldDescriptorE
153:__ZNK6google8protobuf8internal12ExtensionSet15GetRepeatedBoolEii
154:__ZN6google8protobuf8internal12ExtensionSet15SetRepeatedBoolEiib
155:__ZN6google8protobuf8internal12ExtensionSet7AddBoolEihbbPKNS0_15FieldDescriptorE
156:__ZN6google8protobuf13RepeatedFieldIbE7ReserveEi
157:__ZN6google8protobuf8internal12ExtensionSet23MutableRawRepeatedFieldEihbPKNS0_15FieldDescriptorE
158:__ZN6google8protobuf8internal21arena_destruct_objectINS0_16RepeatedPtrFieldINSt3__212basic_stringIcNS4_11char_traitsIcEENS4_9allocatorIcEEEEEEEEvPv
159:__ZN6google8protobuf8internal21arena_destruct_objectINS0_16RepeatedPtrFieldINS0_11MessageLiteEEEEEvPv
160:__ZNK6google8protobuf8internal12ExtensionSet15GetRepeatedEnumEii
161:__ZN6google8protobuf8internal12ExtensionSet15SetRepeatedEnumEiii
162:__ZN6google8protobuf8internal12ExtensionSet13MutableStringEihPKNS0_15FieldDescriptorE
163:__ZN6google8protobuf8internal21arena_destruct_objectINSt3__212basic_stringIcNS3_11char_traitsIcEENS3_9allocatorIcEEEEEEvPv
164:__ZNK6google8protobuf8internal12ExtensionSet17GetRepeatedStringEii
165:__ZN6google8protobuf8internal12ExtensionSet21MutableRepeatedStringEii
166:__ZN6google8protobuf8internal12ExtensionSet9AddStringEihPKNS0_15FieldDescriptorE
167:__ZN6google8protobuf16RepeatedPtrFieldINSt3__212basic_stringIcNS2_11char_traitsIcEENS2_9allocatorIcEEEEE3AddEv
168:__ZN6google8protobuf8internal12ExtensionSet14MutableMessageEihRKNS0_11MessageLiteEPKNS0_15FieldDescriptorE
169:__ZN6google8protobuf8internal12ExtensionSet19SetAllocatedMessageEihPKNS0_15FieldDescriptorEPNS0_11MessageLiteE
170:__ZN6google8protobuf5Arena3OwnINS0_11MessageLiteEEEvPT_
171:__ZN6google8protobuf8internal19arena_delete_objectINS0_11MessageLiteEEEvPv
172:__ZNSt3__213__tree_removeIPNS_16__tree_node_baseIPvEEEEvT_S5_
173:__ZNK6google8protobuf8internal12ExtensionSet18GetRepeatedMessageEii
174:__ZN6google8protobuf8internal12ExtensionSet22MutableRepeatedMessageEii
175:__ZN6google8protobuf8internal12ExtensionSet10AddMessageEihRKNS0_11MessageLiteEPKNS0_15FieldDescriptorE
176:__ZN6google8protobuf16RepeatedPtrFieldINS0_11MessageLiteEE12AddAllocatedEPS2_
177:__ZN6google8protobuf8internal12ExtensionSet10RemoveLastEi
178:__ZN6google8protobuf8internal12ExtensionSet11ReleaseLastEi
179:__ZN6google8protobuf8internal12ExtensionSet12SwapElementsEiii
180:__ZN6google8protobuf8internal12ExtensionSet5ClearEv
181:__ZN6google8protobuf8internal12ExtensionSet9MergeFromERKS2_
182:__ZN6google8protobuf8internal12ExtensionSet26InternalExtensionMergeFromEiRKNS2_9ExtensionE
183:__ZN6google8protobuf13RepeatedFieldIiE9MergeFromERKS2_
184:__ZN6google8protobuf13RepeatedFieldIxE9MergeFromERKS2_
185:__ZN6google8protobuf13RepeatedFieldIbE9MergeFromERKS2_
186:__ZN6google8protobuf8internal20RepeatedPtrFieldBase9MergeFromINS0_16RepeatedPtrFieldINSt3__212basic_stringIcNS5_11char_traitsIcEENS5_9allocatorIcEEEEE11TypeHandlerEEEvRKS2_
187:__ZN6google8protobuf8internal12ExtensionSet4SwapEPS2_
188:__ZN6google8protobuf8internal12ExtensionSet13SwapExtensionEPS2_i
189:__ZNK6google8protobuf8internal12ExtensionSet13IsInitializedEv
190:__ZN6google8protobuf8internal12ExtensionSet32FindExtensionInfoFromFieldNumberEiiPNS1_15ExtensionFinderEPNS1_13ExtensionInfoEPb
191:__ZN6google8protobuf8internal12ExtensionSet10ParseFieldEjPNS0_2io16CodedInputStreamEPNS1_15ExtensionFinderEPNS1_12FieldSkipperE
192:__ZN6google8protobuf8internal12ExtensionSet27ParseFieldWithExtensionInfoEibRKNS1_13ExtensionInfoEPNS0_2io16CodedInputStreamEPNS1_12FieldSkipperE
193:__ZN6google8protobuf8internal12ExtensionSet10ParseFieldEjPNS0_2io16CodedInputStreamEPKNS0_11MessageLiteEPNS3_17CodedOutputStreamE
194:__ZNK6google8protobuf8internal12ExtensionSet24SerializeWithCachedSizesEiiPNS0_2io17CodedOutputStreamE
195:__ZNK6google8protobuf8internal12ExtensionSet9Extension29SerializeFieldWithCachedSizesEiPNS0_2io17CodedOutputStreamE
196:__ZNK6google8protobuf8internal12ExtensionSet8ByteSizeEv
197:__ZNK6google8protobuf8internal12ExtensionSet9Extension8ByteSizeEi
198:__ZN6google8protobuf8internal17DeleteEmptyStringEv
199:__ZN6google8protobuf8internal15InitEmptyStringEv
200:__ZN6google8protobuf8internal28StringSpaceUsedExcludingSelfERKNSt3__212basic_stringIcNS2_11char_traitsIcEENS2_9allocatorIcEEEE
201:__ZN6google8protobuf8internal13MergeFromFailEPKci
202:__ZNK6google8protobuf11MessageLite3NewEPNS0_5ArenaE
203:__ZNK6google8protobuf11MessageLite8GetArenaEv
204:__ZNK6google8protobuf11MessageLite20GetMaybeArenaPointerEv
205:__ZNK6google8protobuf11MessageLite25InitializationErrorStringEv
206:__ZNK6google8protobuf11MessageLite8ByteSizeEv
207:__ZNK6google8protobuf11MessageLite12ByteSizeLongEv
208:__ZNK6google8protobuf11MessageLite31SerializeWithCachedSizesToArrayEPh
209:__ZNK6google8protobuf11MessageLite39InternalSerializeWithCachedSizesToArrayEbPh
210:__ZN6google8protobuf11MessageLite15ParseFromStringERKNSt3__212basic_stringIcNS2_11char_traitsIcEENS2_9allocatorIcEEEE
211:__ZN6google8protobuf11MessageLite22ParsePartialFromStringERKNSt3__212basic_stringIcNS2_11char_traitsIcEENS2_9allocatorIcEEEE
212:__ZN6google8protobuf11MessageLite14ParseFromArrayEPKvi
213:__ZN6google8protobuf12_GLOBAL__N_124ByteSizeConsistencyErrorEjjjRKNS0_11MessageLiteE
214:__ZNK6google8protobuf11MessageLite21AppendPartialToStringEPNSt3__212basic_stringIcNS2_11char_traitsIcEENS2_9allocatorIcEEEE
215:__ZNK6google8protobuf11MessageLite17SerializeToStringEPNSt3__212basic_stringIcNS2_11char_traitsIcEENS2_9allocatorIcEEEE
216:__ZNK6google8protobuf11MessageLite17SerializeAsStringEv
217:__ZN6google8protobuf8internal18GenericTypeHandlerINSt3__212basic_stringIcNS3_11char_traitsIcEENS3_9allocatorIcEEEEE5MergeERKS9_PS9_
218:__ZN6google8protobuf8internal20RepeatedPtrFieldBase14InternalExtendEi
219:__ZN6google8protobuf8internal20RepeatedPtrFieldBase7ReserveEi
220:__ZN6google8protobuf8internal14WireFormatLite9SkipFieldEPNS0_2io16CodedInputStreamEj
221:__ZN6google8protobuf8internal29CodedOutputStreamFieldSkipper9SkipFieldEPNS0_2io16CodedInputStreamEj
222:__ZN6google8protobuf8internal29CodedOutputStreamFieldSkipper11SkipMessageEPNS0_2io16CodedInputStreamE
223:__ZN6google8protobuf8internal29CodedOutputStreamFieldSkipper15SkipUnknownEnumEii
224:__ZN6google8protobuf8internal14WireFormatLite11SkipMessageEPNS0_2io16CodedInputStreamEPNS3_17CodedOutputStreamE
225:__ZN6google8protobuf8internal14WireFormatLite9SkipFieldEPNS0_2io16CodedInputStreamEjPNS3_17CodedOutputStreamE
226:__ZN6google8protobuf8internal14WireFormatLite10WriteInt32EiiPNS0_2io17CodedOutputStreamE
227:__ZN6google8protobuf8internal14WireFormatLite10WriteInt64EixPNS0_2io17CodedOutputStreamE
228:__ZN6google8protobuf8internal14WireFormatLite11WriteUInt32EijPNS0_2io17CodedOutputStreamE
229:__ZN6google8protobuf8internal14WireFormatLite11WriteSInt32EiiPNS0_2io17CodedOutputStreamE
230:__ZN6google8protobuf8internal14WireFormatLite11WriteSInt64EixPNS0_2io17CodedOutputStreamE
231:__ZN6google8protobuf8internal14WireFormatLite12WriteFixed32EijPNS0_2io17CodedOutputStreamE
232:__ZN6google8protobuf8internal14WireFormatLite12WriteFixed64EiyPNS0_2io17CodedOutputStreamE
233:__ZN6google8protobuf8internal14WireFormatLite10WriteFloatEifPNS0_2io17CodedOutputStreamE
234:__ZN6google8protobuf8internal14WireFormatLite11WriteDoubleEidPNS0_2io17CodedOutputStreamE
235:__ZN6google8protobuf8internal14WireFormatLite9WriteBoolEibPNS0_2io17CodedOutputStreamE
236:__ZN6google8protobuf8internal14WireFormatLite11WriteStringEiRKNSt3__212basic_stringIcNS3_11char_traitsIcEENS3_9allocatorIcEEEEPNS0_2io17CodedOutputStreamE
237:__ZN6google8protobuf8internal14WireFormatLite23WriteStringMaybeAliasedEiRKNSt3__212basic_stringIcNS3_11char_traitsIcEENS3_9allocatorIcEEEEPNS0_2io17CodedOutputStreamE
238:__ZN6google8protobuf8internal14WireFormatLite10WriteBytesEiRKNSt3__212basic_stringIcNS3_11char_traitsIcEENS3_9allocatorIcEEEEPNS0_2io17CodedOutputStreamE
239:__ZN6google8protobuf8internal14WireFormatLite22WriteBytesMaybeAliasedEiRKNSt3__212basic_stringIcNS3_11char_traitsIcEENS3_9allocatorIcEEEEPNS0_2io17CodedOutputStreamE
240:__ZN6google8protobuf8internal14WireFormatLite10WriteGroupEiRKNS0_11MessageLiteEPNS0_2io17CodedOutputStreamE
241:__ZN6google8protobuf8internal14WireFormatLite12WriteMessageEiRKNS0_11MessageLiteEPNS0_2io17CodedOutputStreamE
242:__ZN6google8protobuf8internal14WireFormatLite24WriteMessageMaybeToArrayEiRKNS0_11MessageLiteEPNS0_2io17CodedOutputStreamE
243:__ZN6google8protobuf8internal14WireFormatLite9ReadBytesEPNS0_2io16CodedInputStreamEPNSt3__212basic_stringIcNS6_11char_traitsIcEENS6_9allocatorIcEEEE
244:__ZN6google8protobuf8internal14WireFormatLite16VerifyUtf8StringEPKciNS2_9OperationES4_
245:__ZN6google8protobuf2io16CodedInputStreamD2Ev
246:__ZN6google8protobuf2io16CodedInputStream9PushLimitEi
247:__ZN6google8protobuf2io16CodedInputStream8PopLimitEi
248:__ZN6google8protobuf2io16CodedInputStream35IncrementRecursionDepthAndPushLimitEi
249:__ZN6google8protobuf2io16CodedInputStream22ReadLengthAndPushLimitEv
250:__ZN6google8protobuf2io16CodedInputStream20ReadVarint32FallbackEj
251:__ZN6google8protobuf2io16CodedInputStream20ReadVarint64FallbackEv
252:__ZN6google8protobuf2io16CodedInputStream7RefreshEv
253:__ZN6google8protobuf2io16CodedInputStream25PrintTotalBytesLimitErrorEv
254:__ZN6google8protobuf2io16CodedInputStream34DecrementRecursionDepthAndPopLimitEi
255:__ZN6google8protobuf2io16CodedInputStream37CheckEntireMessageConsumedAndPopLimitEi
256:__ZNK6google8protobuf2io16CodedInputStream15BytesUntilLimitEv
257:__ZN6google8protobuf2io16CodedInputStream4SkipEi
258:__ZN6google8protobuf2io16CodedInputStream10ReadStringEPNSt3__212basic_stringIcNS3_11char_traitsIcEENS3_9allocatorIcEEEEi
259:__ZN6google8protobuf2io16CodedInputStream18ReadStringFallbackEPNSt3__212basic_stringIcNS3_11char_traitsIcEENS3_9allocatorIcEEEEi
260:__ZN6google8protobuf2io16CodedInputStream26ReadLittleEndian32FallbackEPj
261:__ZN6google8protobuf2io16CodedInputStream26ReadLittleEndian64FallbackEPy
262:__ZN6google8protobuf2io16CodedInputStream27ReadVarintSizeAsIntFallbackEv
263:__ZN6google8protobuf2io16CodedInputStream15ReadTagFallbackEj
264:__ZN6google8protobuf2io17CodedOutputStreamC2EPNS1_20ZeroCopyOutputStreamE
265:__ZN6google8protobuf2io17CodedOutputStreamC2EPNS1_20ZeroCopyOutputStreamEb
266:__ZN6google8protobuf2io17CodedOutputStreamD2Ev
267:__ZN6google8protobuf2io17CodedOutputStream8WriteRawEPKvi
268:__ZN6google8protobuf2io17CodedOutputStream15WriteAliasedRawEPKvi
269:__ZN6google8protobuf2io17CodedOutputStream19WriteLittleEndian32Ej
270:__ZN6google8protobuf2io17CodedOutputStream19WriteLittleEndian64Ey
271:__ZN6google8protobuf2io17CodedOutputStream21WriteVarint32SlowPathEj
272:__ZN6google8protobuf2io17CodedOutputStream13WriteVarint64Ey
273:__ZN6google8protobuf2io17CodedOutputStream20WriteVarint64ToArrayEyPh
274:__ZN6google8protobuf2io17CodedOutputStream20VarintSize32FallbackEj
275:__ZN6google8protobuf2io17CodedOutputStream12VarintSize64Ey
276:__ZN6google8protobuf2io17CodedOutputStream26WriteStringWithSizeToArrayERKNSt3__212basic_stringIcNS3_11char_traitsIcEENS3_9allocatorIcEEEEPh
277:__ZN6google8protobuf2io20ZeroCopyOutputStream15WriteAliasedRawEPKvi
278:__ZN6google8protobuf2io16ArrayInputStream4NextEPPKvPi
279:__ZN6google8protobuf2io16ArrayInputStream6BackUpEi
280:__ZN6google8protobuf2io16ArrayInputStream4SkipEi
281:__ZNK6google8protobuf2io16ArrayInputStream9ByteCountEv
282:__ZN6google8protobuf2io17ArrayOutputStream6BackUpEi
283:__ZN6google8protobuf2io18StringOutputStream4NextEPPvPi
284:__ZN6google8protobuf2io18StringOutputStream6BackUpEi
285:__ZNK6google8protobuf2io18StringOutputStream9ByteCountEv
286:__ZN6google8protobuf2io22LazyStringOutputStreamD2Ev
287:__ZN6google8protobuf2io22LazyStringOutputStreamD0Ev
288:__ZN6google8protobuf2io22LazyStringOutputStream4NextEPPvPi
289:__ZNK6google8protobuf2io22LazyStringOutputStream9ByteCountEv
290:__ZN6google8protobuf2io16ArrayInputStreamC2EPKvii
291:__ZN6google8protobuf2io17ArrayOutputStreamC2EPvii
292:__ZN6google8protobuf2io18StringOutputStreamC2EPNSt3__212basic_stringIcNS3_11char_traitsIcEENS3_9allocatorIcEEEE
293:__ZN6google8protobuf2io22LazyStringOutputStreamC2EPNS0_14ResultCallbackIPNSt3__212basic_stringIcNS4_11char_traitsIcEENS4_9allocatorIcEEEEEE
294:__ZN6google8protobuf3AnyD2Ev
295:__ZN6google8protobuf3AnyD0Ev
296:__ZNK6google8protobuf3Any3NewEv
297:__ZNK6google8protobuf3Any3NewEPNS0_5ArenaE
298:__ZN6google8protobuf3Any5ClearEv
299:__ZNK6google8protobuf3Any13IsInitializedEv
300:__ZN6google8protobuf3Any27MergePartialFromCodedStreamEPNS0_2io16CodedInputStreamE
301:__ZNK6google8protobuf3Any12ByteSizeLongEv
302:__ZNK6google8protobuf3Any24SerializeWithCachedSizesEPNS0_2io17CodedOutputStreamE
303:__ZNK6google8protobuf3Any13GetCachedSizeEv
304:__ZNK6google8protobuf3Any39InternalSerializeWithCachedSizesToArrayEbPh
305:__ZN6google8protobuf3Any8CopyFromERKNS0_7MessageE
306:__ZN6google8protobuf3Any9MergeFromERKNS0_7MessageE
307:__ZNK6google8protobuf3Any13SetCachedSizeEi
308:__ZNK6google8protobuf7Message13GetReflectionEv
309:__ZNK6google8protobuf3Any11GetMetadataEv
310:__ZN6google8protobuf51protobuf_AssignDesc_google_2fprotobuf_2fany_2eprotoEv
311:__ZN6google8protobuf53protobuf_AddDesc_google_2fprotobuf_2fany_2eproto_implEv
312:__ZN6google8protobuf58protobuf_InitDefaults_google_2fprotobuf_2fany_2eproto_implEv
313:__ZN6google8protobuf12_GLOBAL__N_122protobuf_RegisterTypesERKNSt3__212basic_stringIcNS2_11char_traitsIcEENS2_9allocatorIcEEEE
314:__ZN6google8protobuf53protobuf_ShutdownFile_google_2fprotobuf_2fany_2eprotoEv
315:__ZN6google8protobuf3AnyC2Ev
316:__ZN6google8protobuf12_GLOBAL__N_1L13MergeFromFailEi
317:__ZN6google8protobuf5Arena3OwnINS0_3AnyEEEvPT_
318:__GLOBAL__sub_I_any_pb_cc
319:__ZN6google8protobuf53protobuf_InitDefaults_google_2fprotobuf_2fany_2eprotoEv
320:__ZN6google8protobuf3Any9MergeFromERKS1_
321:__ZN6google8protobuf8internal25InternalMetadataWithArena27mutable_unknown_fields_slowEv
322:__ZN6google8protobuf8internal21arena_destruct_objectINS1_25InternalMetadataWithArena9ContainerEEEvPv
323:__ZN6google8protobuf3ApiD2Ev
324:__ZN6google8protobuf3ApiD0Ev
325:__ZNK6google8protobuf3Api3NewEPNS0_5ArenaE
326:__ZN6google8protobuf3Api5ClearEv
327:__ZN6google8protobuf3Api27MergePartialFromCodedStreamEPNS0_2io16CodedInputStreamE
328:__ZNK6google8protobuf3Api12ByteSizeLongEv
329:__ZNK6google8protobuf3Api24SerializeWithCachedSizesEPNS0_2io17CodedOutputStreamE
330:__ZNK6google8protobuf3Api13GetCachedSizeEv
331:__ZNK6google8protobuf3Api39InternalSerializeWithCachedSizesToArrayEbPh
332:__ZN6google8protobuf3Api9MergeFromERKNS0_7MessageE
333:__ZNK6google8protobuf3Api13SetCachedSizeEi
334:__ZNK6google8protobuf3Api11GetMetadataEv
335:__ZN6google8protobuf51protobuf_AssignDesc_google_2fprotobuf_2fapi_2eprotoEv
336:__ZN6google8protobuf53protobuf_AddDesc_google_2fprotobuf_2fapi_2eproto_implEv
337:__ZN6google8protobuf58protobuf_InitDefaults_google_2fprotobuf_2fapi_2eproto_implEv
338:__ZN6google8protobuf12_GLOBAL__N_122protobuf_RegisterTypesERKNSt3__212basic_stringIcNS2_11char_traitsIcEENS2_9allocatorIcEEEE_275
339:__ZN6google8protobuf53protobuf_ShutdownFile_google_2fprotobuf_2fapi_2eprotoEv
340:__ZN6google8protobuf5MixinD2Ev
341:__ZN6google8protobuf5MixinD0Ev
342:__ZNK6google8protobuf5Mixin3NewEPNS0_5ArenaE
343:__ZN6google8protobuf5Mixin27MergePartialFromCodedStreamEPNS0_2io16CodedInputStreamE
344:__ZNK6google8protobuf5Mixin24SerializeWithCachedSizesEPNS0_2io17CodedOutputStreamE
345:__ZNK6google8protobuf5Mixin39InternalSerializeWithCachedSizesToArrayEbPh
346:__ZN6google8protobuf5Mixin9MergeFromERKNS0_7MessageE
347:__ZNK6google8protobuf5Mixin11GetMetadataEv
348:__ZN6google8protobuf12_GLOBAL__N_1L13MergeFromFailEi_276
349:__ZN6google8protobuf5MixinC2Ev
350:__ZN6google8protobuf6MethodD2Ev
351:__ZN6google8protobuf6MethodD0Ev
352:__ZNK6google8protobuf6Method3NewEPNS0_5ArenaE
353:__ZN6google8protobuf6Method5ClearEv
354:__ZN6google8protobuf6Method27MergePartialFromCodedStreamEPNS0_2io16CodedInputStreamE
355:__ZNK6google8protobuf6Method12ByteSizeLongEv
356:__ZNK6google8protobuf6Method24SerializeWithCachedSizesEPNS0_2io17CodedOutputStreamE
357:__ZNK6google8protobuf6Method13GetCachedSizeEv
358:__ZNK6google8protobuf6Method39InternalSerializeWithCachedSizesToArrayEbPh
359:__ZN6google8protobuf6Method9MergeFromERKNS0_7MessageE
360:__ZNK6google8protobuf6Method13SetCachedSizeEi
361:__ZNK6google8protobuf6Method11GetMetadataEv
362:__ZN6google8protobuf6Method15UnsafeMergeFromERKS1_
363:__ZN6google8protobuf16RepeatedPtrFieldINS0_6OptionEE9MergeFromERKS3_
364:__ZN6google8protobuf8internal18GenericTypeHandlerINS0_6OptionEE5MergeERKS3_PS3_
365:__ZN6google8protobuf8internal18GenericTypeHandlerINS0_6OptionEE16NewFromPrototypeEPKS3_PNS0_5ArenaE
366:__ZN6google8protobuf6MethodC2Ev
367:__ZN6google8protobuf6Method10SharedDtorEv
368:__ZN6google8protobuf3Api15UnsafeMergeFromERKS1_
369:__ZN6google8protobuf16RepeatedPtrFieldINS0_6MethodEE9MergeFromERKS3_
370:__ZN6google8protobuf16RepeatedPtrFieldINS0_5MixinEE9MergeFromERKS3_
371:__ZN6google8protobuf8internal18GenericTypeHandlerINS0_5MixinEE5MergeERKS3_PS3_
372:__ZN6google8protobuf8internal18GenericTypeHandlerINS0_5MixinEE16NewFromPrototypeEPKS3_PNS0_5ArenaE
373:__ZN6google8protobuf5Arena18CreateMaybeMessageINS0_5MixinEEEPT_PS1_z
374:__ZN6google8protobuf8internal21arena_destruct_objectINS0_5MixinEEEvPv
375:__ZN6google8protobuf8internal18GenericTypeHandlerINS0_6MethodEE5MergeERKS3_PS3_
376:__ZN6google8protobuf8internal18GenericTypeHandlerINS0_6MethodEE16NewFromPrototypeEPKS3_PNS0_5ArenaE
377:__ZN6google8protobuf5Arena18CreateMaybeMessageINS0_6MethodEEEPT_PS1_z
378:__ZN6google8protobuf3ApiC2Ev
379:__ZN6google8protobuf3Api10SharedDtorEv
380:__GLOBAL__sub_I_api_pb_cc
381:__ZN6google8protobuf8internal11AnyMetadataC2EPNS1_14ArenaStringPtrES4_
382:__ZN6google8protobuf8internal15ParseAnyTypeUrlERKNSt3__212basic_stringIcNS2_11char_traitsIcEENS2_9allocatorIcEEEEPS8_
383:__ZN6google8protobuf8internal22GetAnyFieldDescriptorsERKNS0_7MessageEPPKNS0_15FieldDescriptorES8_
384:__ZN6google8protobuf14DescriptorPool6TablesC2Ev
385:__ZNSt3__212__hash_tableINS_17__hash_value_typeIPKcN6google8protobuf12_GLOBAL__N_16SymbolEEENS_22__unordered_map_hasherIS3_S8_NS5_4hashIS3_EELb1EEENS_21__unordered_map_equalIS3_S8_NS5_5streqELb1EEENS_9allocatorIS8_EEE6rehashEj
386:__ZNSt3__212__hash_tableINS_17__hash_value_typeIPKcPKN6google8protobuf14FileDescriptorEEENS_22__unordered_map_hasherIS3_S9_NS5_4hashIS3_EELb1EEENS_21__unordered_map_equalIS3_S9_NS5_5streqELb1EEENS_9allocatorIS9_EEE8__rehashEj
387:__ZN6google8protobuf14DescriptorPool6TablesD2Ev
388:__ZN6google8protobuf20FileDescriptorTablesD2Ev
389:__ZNSt3__26__treeINS_12__value_typeINS_4pairIPKN6google8protobuf10DescriptorEiEEPKNS4_15FieldDescriptorEEENS_19__map_value_compareIS8_SC_NS_4lessIS8_EELb1EEENS_9allocatorISC_EEE7destroyEPNS_11__tree_nodeISC_PvEE
390:__ZN6google8protobuf20FileDescriptorTablesC2Ev
391:__ZNSt3__212__hash_tableINS_17__hash_value_typeINS_4pairIPKvPKcEEN6google8protobuf12_GLOBAL__N_16SymbolEEENS_22__unordered_map_hasherIS7_SC_NSA_21PointerStringPairHashELb1EEENS_21__unordered_map_equalIS7_SC_NSA_22PointerStringPairEqualELb1EEENS_9allocatorISC_EEE6rehashEj
392:__ZNSt3__212__hash_tableINS_17__hash_value_typeINS_4pairIPKN6google8protobuf10DescriptorEiEEPKNS4_15FieldDescriptorEEENS_22__unordered_map_hasherIS8_SC_NS4_12_GLOBAL__N_122PointerIntegerPairHashIS8_EELb1EEENS_21__unordered_map_equalIS8_SC_NS_8equal_toIS8_EELb1EEENS_9allocatorISC_EEE6rehashEj
393:__ZNSt3__212__hash_tableINS_17__hash_value_typeINS_4pairIPKN6google8protobuf14EnumDescriptorEiEEPKNS4_19EnumValueDescriptorEEENS_22__unordered_map_hasherIS8_SC_NS4_12_GLOBAL__N_122PointerIntegerPairHashIS8_EELb1EEENS_21__unordered_map_equalIS8_SC_NS_8equal_toIS8_EELb1EEENS_9allocatorISC_EEE8__rehashEj
394:__ZNSt3__212__hash_tableINS_17__hash_value_typeINS_4pairIPKvPKcEEPKN6google8protobuf15FieldDescriptorEEENS_22__unordered_map_hasherIS7_SD_NS9_12_GLOBAL__N_121PointerStringPairHashELb1EEENS_21__unordered_map_equalIS7_SD_NSF_22PointerStringPairEqualELb1EEENS_9allocatorISD_EEE8__rehashEj
395:__ZNSt3__26vectorIN6google8protobuf14DescriptorPool6Tables10CheckPointENS_9allocatorIS5_EEE21__push_back_slow_pathIKS5_EEvRT_
396:__ZN6google8protobuf14DescriptorPool6Tables24RollbackToLastCheckpointEv
397:__ZNSt3__212__hash_tableINS_17__hash_value_typeIPKcPKN6google8protobuf14FileDescriptorEEENS_22__unordered_map_hasherIS3_S9_NS5_4hashIS3_EELb1EEENS_21__unordered_map_equalIS3_S9_NS5_5streqELb1EEENS_9allocatorIS9_EEE4findIS3_EENS_15__hash_iteratorIPNS_11__hash_nodeIS9_PvEEEERKT_
398:__ZNSt3__212__hash_tableINS_17__hash_value_typeIPKcPKN6google8protobuf14FileDescriptorEEENS_22__unordered_map_hasherIS3_S9_NS5_4hashIS3_EELb1EEENS_21__unordered_map_equalIS3_S9_NS5_5streqELb1EEENS_9allocatorIS9_EEE6removeENS_21__hash_const_iteratorIPNS_11__hash_nodeIS9_PvEEEE
399:__ZNSt3__26vectorIPKcNS_9allocatorIS2_EEE8__appendEj
400:__ZNSt3__26vectorINS_4pairIPKN6google8protobuf10DescriptorEiEENS_9allocatorIS7_EEE8__appendEj
401:__ZNSt3__26__treeINS_12__value_typeINS_4pairIPKN6google8protobuf10DescriptorEiEEPKNS4_15FieldDescriptorEEENS_19__map_value_compareIS8_SC_NS_4lessIS8_EELb1EEENS_9allocatorISC_EEE14__erase_uniqueIS8_EEjRKT_
402:__ZN6google8protobuf18InsertIfNotPresentINS0_8hash_mapIPKcPKNS0_14FileDescriptorENS0_4hashIS4_EENS0_5streqENSt3__29allocatorINSB_4pairIKS4_S7_EEEEEEEEbPT_RKNSI_10value_typeE
403:__ZN6google8protobuf18InsertIfNotPresentINS0_8hash_mapINSt3__24pairIPKvPKcEEPKNS0_15FieldDescriptorENS0_12_GLOBAL__N_121PointerStringPairHashENSD_22PointerStringPairEqualENS3_9allocatorINS4_IKS9_SC_EEEEEEEEbPT_RKNSL_10value_type10first_typeERKNSL_10value_type11second_typeE
404:__ZN6google8protobuf20FileDescriptorTables16AddFieldByNumberEPKNS0_15FieldDescriptorE
405:__ZN6google8protobuf18InsertIfNotPresentINS0_8hash_mapINSt3__24pairIPKNS0_14EnumDescriptorEiEEPKNS0_19EnumValueDescriptorENS0_12_GLOBAL__N_122PointerIntegerPairHashIS8_EENS3_8equal_toIS8_EENS3_9allocatorINS4_IKS8_SB_EEEEEEEEbPT_RKNSM_10value_type10first_typeERKNSM_10value_type11second_typeE
406:__ZN6google8protobuf14DescriptorPool6Tables12AddExtensionEPKNS0_15FieldDescriptorE
407:__ZNSt3__26vectorINS_4pairIPKN6google8protobuf10DescriptorEiEENS_9allocatorIS7_EEE21__push_back_slow_pathIKS7_EEvRT_
408:__ZN6google8protobuf20FileDescriptorTables20BuildLocationsByPathEPNSt3__24pairIPKS1_PKNS0_14SourceCodeInfoEEE
409:__ZNSt3__213unordered_mapINS_12basic_stringIcNS_11char_traitsIcEENS_9allocatorIcEEEEPKN6google8protobuf23SourceCodeInfo_LocationENS8_4hashIS6_EENS_8equal_toIS6_EENS4_INS_4pairIKS6_SB_EEEEEixERSH_
410:__ZNSt3__212__hash_tableINS_17__hash_value_typeINS_12basic_stringIcNS_11char_traitsIcEENS_9allocatorIcEEEEPKN6google8protobuf23SourceCodeInfo_LocationEEENS_22__unordered_map_hasherIS7_SD_NS9_4hashIS7_EELb1EEENS_21__unordered_map_equalIS7_SD_NS_8equal_toIS7_EELb1EEENS5_ISD_EEE4findIS7_EENS_15__hash_iteratorIPNS_11__hash_nodeISD_PvEEEERKT_
411:__ZNSt3__212__hash_tableINS_17__hash_value_typeINS_12basic_stringIcNS_11char_traitsIcEENS_9allocatorIcEEEEPKN6google8protobuf23SourceCodeInfo_LocationEEENS_22__unordered_map_hasherIS7_SD_NS9_4hashIS7_EELb1EEENS_21__unordered_map_equalIS7_SD_NS_8equal_toIS7_EELb1EEENS5_ISD_EEE20__node_insert_uniqueEPNS_11__hash_nodeISD_PvEE
412:__ZNSt3__212__hash_tableINS_17__hash_value_typeINS_12basic_stringIcNS_11char_traitsIcEENS_9allocatorIcEEEEPKN6google8protobuf23SourceCodeInfo_LocationEEENS_22__unordered_map_hasherIS7_SD_NS9_4hashIS7_EELb1EEENS_21__unordered_map_equalIS7_SD_NS_8equal_toIS7_EELb1EEENS5_ISD_EEE6rehashEj
413:__ZNSt3__212__hash_tableINS_17__hash_value_typeINS_12basic_stringIcNS_11char_traitsIcEENS_9allocatorIcEEEEPKN6google8protobuf23SourceCodeInfo_LocationEEENS_22__unordered_map_hasherIS7_SD_NS9_4hashIS7_EELb1EEENS_21__unordered_map_equalIS7_SD_NS_8equal_toIS7_EELb1EEENS5_ISD_EEE8__rehashEj
414:__ZNK6google8protobuf20FileDescriptorTables17GetSourceLocationERKNSt3__26vectorIiNS2_9allocatorIiEEEEPKNS0_14SourceCodeInfoE
415:__ZN6google8protobuf8internal16FunctionClosure1IPNSt3__24pairIPKNS0_20FileDescriptorTablesEPKNS0_14SourceCodeInfoEEEE3RunEv
416:__ZN6google8protobuf14DescriptorPoolC2EPNS0_18DescriptorDatabaseEPNS1_14ErrorCollectorE
417:__ZN6google8protobuf14DescriptorPoolD2Ev
418:__ZNSt3__26__treeINS_12basic_stringIcNS_11char_traitsIcEENS_9allocatorIcEEEENS_4lessIS6_EENS4_IS6_EEE7destroyEPNS_11__tree_nodeIS6_PvEE
419:__ZNSt3__26__treeINS_12basic_stringIcNS_11char_traitsIcEENS_9allocatorIcEEEENS_4lessIS6_EENS4_IS6_EEE12__find_equalIS6_EERPNS_16__tree_node_baseIPvEERPNS_15__tree_end_nodeISF_EERKT_
420:__ZNKSt3__212__hash_tableINS_17__hash_value_typeIPKcPKN6google8protobuf14FileDescriptorEEENS_22__unordered_map_hasherIS3_S9_NS5_4hashIS3_EELb1EEENS_21__unordered_map_equalIS3_S9_NS5_5streqELb1EEENS_9allocatorIS9_EEE4findIS3_EENS_21__hash_const_iteratorIPNS_11__hash_nodeIS9_PvEEEERKT_
421:__ZN6google8protobuf14DescriptorPool14generated_poolEv
422:__ZN6google8protobuf12_GLOBAL__N_1L17InitGeneratedPoolEv
423:__ZN6google8protobuf12_GLOBAL__N_119DeleteGeneratedPoolEv
424:__ZN6google8protobuf14DescriptorPool24InternalAddGeneratedFileEPKvi
425:__ZNK6google8protobuf14DescriptorPool14FindFileByNameERKNSt3__212basic_stringIcNS2_11char_traitsIcEENS2_9allocatorIcEEEE
426:__ZNK6google8protobuf14DescriptorPool29TryFindFileInFallbackDatabaseERKNSt3__212basic_stringIcNS2_11char_traitsIcEENS2_9allocatorIcEEEE
427:__ZNKSt3__212__hash_tableINS_12basic_stringIcNS_11char_traitsIcEENS_9allocatorIcEEEEN6google8protobuf4hashIS6_EENS_8equal_toIS6_EENS4_IS6_EEE4findIS6_EENS_21__hash_const_iteratorIPNS_11__hash_nodeIS6_PvEEEERKT_
428:__ZNK6google8protobuf14DescriptorPool21BuildFileFromDatabaseERKNS0_19FileDescriptorProtoE
429:__ZN6google8protobuf17DescriptorBuilder9BuildFileERKNS0_19FileDescriptorProtoE
430:__ZN6google8protobuf17DescriptorBuilderD2Ev
431:__ZNSt3__26__treeIPKN6google8protobuf14FileDescriptorENS_4lessIS5_EENS_9allocatorIS5_EEE7destroyEPNS_11__tree_nodeIS5_PvEE
432:__ZNK6google8protobuf14FileDescriptor6CopyToEPNS0_19FileDescriptorProtoE
433:__ZN6google8protobuf19FileDescriptorProto10set_syntaxEPKc
434:__ZN6google8protobuf17DescriptorBuilder23AddRecursiveImportErrorERKNS0_19FileDescriptorProtoEi
435:__ZN6google8protobuf17DescriptorBuilder13BuildFileImplERKNS0_19FileDescriptorProtoE
436:__ZN6google8protobuf17DescriptorBuilder8AddErrorERKNSt3__212basic_stringIcNS2_11char_traitsIcEENS2_9allocatorIcEEEERKNS0_7MessageENS0_14DescriptorPool14ErrorCollector13ErrorLocationEPKc
437:__ZN6google8protobuf17DescriptorBuilder8AddErrorERKNSt3__212basic_stringIcNS2_11char_traitsIcEENS2_9allocatorIcEEEERKNS0_7MessageENS0_14DescriptorPool14ErrorCollector13ErrorLocationESA_
438:__ZN6google8protobuf17DescriptorBuilder10AddPackageERKNSt3__212basic_stringIcNS2_11char_traitsIcEENS2_9allocatorIcEEEERKNS0_7MessageEPKNS0_14FileDescriptorE
439:__ZN6google8protobuf17DescriptorBuilder19AddTwiceListedErrorERKNS0_19FileDescriptorProtoEi
440:__ZN6google8protobuf17DescriptorBuilder18NewPlaceholderFileERKNSt3__212basic_stringIcNS2_11char_traitsIcEENS2_9allocatorIcEEEE
441:__ZN6google8protobuf17DescriptorBuilder14AddImportErrorERKNS0_19FileDescriptorProtoEi
442:__ZNKSt3__26__treeINS_12basic_stringIcNS_11char_traitsIcEENS_9allocatorIcEEEENS_4lessIS6_EENS4_IS6_EEE4findIS6_EENS_21__tree_const_iteratorIS6_PNS_11__tree_nodeIS6_PvEEiEERKT_
443:__ZN6google8protobuf17DescriptorBuilder24RecordPublicDependenciesEPKNS0_14FileDescriptorE
444:__ZN6google8protobuf17DescriptorBuilder12BuildMessageERKNS0_15DescriptorProtoEPKNS0_10DescriptorEPS5_
445:__ZN6google8protobuf17DescriptorBuilder9BuildEnumERKNS0_19EnumDescriptorProtoEPKNS0_10DescriptorEPNS0_14EnumDescriptorE
446:__ZN6google8protobuf17DescriptorBuilder12BuildServiceERKNS0_22ServiceDescriptorProtoEPKvPNS0_17ServiceDescriptorE
447:__ZN6google8protobuf17DescriptorBuilder21BuildFieldOrExtensionERKNS0_20FieldDescriptorProtoEPKNS0_10DescriptorEPNS0_15FieldDescriptorEb
448:__ZN6google8protobuf17DescriptorBuilder19AllocateOptionsImplINS0_14FileDescriptorEEEvRKNSt3__212basic_stringIcNS4_11char_traitsIcEENS4_9allocatorIcEEEESC_RKNT_11OptionsTypeEPSD_
449:__ZN6google8protobuf17DescriptorBuilder13CrossLinkFileEPNS0_14FileDescriptorERKNS0_19FileDescriptorProtoE
450:__ZN6google8protobuf17DescriptorBuilder17OptionInterpreterC2EPS1_
451:__ZNK6google8protobuf20FileDescriptorTables22FindNestedSymbolOfTypeEPKvRKNSt3__212basic_stringIcNS4_11char_traitsIcEENS4_9allocatorIcEEEENS0_12_GLOBAL__N_16Symbol4TypeE
452:__ZN6google8protobuf17DescriptorBuilder17OptionInterpreter21InterpretSingleOptionEPNS0_7MessageE
453:__ZN6google8protobuf17DescriptorBuilder10AddWarningERKNSt3__212basic_stringIcNS2_11char_traitsIcEENS2_9allocatorIcEEEERKNS0_7MessageENS0_14DescriptorPool14ErrorCollector13ErrorLocationESA_
454:__ZN6google8protobuf17DescriptorBuilder19ValidateFileOptionsEPNS0_14FileDescriptorERKNS0_19FileDescriptorProtoE
455:__ZN6google8protobuf17DescriptorBuilder18DetectMapConflictsEPKNS0_10DescriptorERKNS0_15DescriptorProtoE
456:__ZN6google8protobuf17DescriptorBuilder19LogUnusedDependencyERKNS0_19FileDescriptorProtoEPKNS0_14FileDescriptorE
457:__ZNSt3__26__treeIiNS_4lessIiEENS_9allocatorIiEEE7destroyEPNS_11__tree_nodeIiPvEE
458:__ZNSt3__26__treeINS_12__value_typeINS_12basic_stringIcNS_11char_traitsIcEENS_9allocatorIcEEEEPKN6google8protobuf10DescriptorEEENS_19__map_value_compareIS7_SD_NS_4lessIS7_EELb1EEENS5_ISD_EEE7destroyEPNS_11__tree_nodeISD_PvEE
459:__ZN6google8protobuf17DescriptorBuilder22ValidateMessageOptionsEPNS0_10DescriptorERKNS0_15DescriptorProtoE
460:__ZN6google8protobuf17DescriptorBuilder19ValidateEnumOptionsEPNS0_14EnumDescriptorERKNS0_19EnumDescriptorProtoE
461:__ZN6google8protobuf17DescriptorBuilder20ValidateFieldOptionsEPNS0_15FieldDescriptorERKNS0_20FieldDescriptorProtoE
462:__ZN6google8protobuf17DescriptorBuilder14ValidateProto3EPNS0_14FileDescriptorERKNS0_19FileDescriptorProtoE
463:__ZN6google8protobuf17DescriptorBuilder19ValidateProto3FieldEPNS0_15FieldDescriptorERKNS0_20FieldDescriptorProtoE
464:__ZN6google8protobuf17DescriptorBuilder21ValidateProto3MessageEPNS0_10DescriptorERKNS0_15DescriptorProtoE
465:__ZNSt3__26__treeINS_12__value_typeINS_12basic_stringIcNS_11char_traitsIcEENS_9allocatorIcEEEEPKN6google8protobuf15FieldDescriptorEEENS_19__map_value_compareIS7_SD_NS_4lessIS7_EELb1EEENS5_ISD_EEE7destroyEPNS_11__tree_nodeISD_PvEE
466:__ZNSt3__23mapINS_12basic_stringIcNS_11char_traitsIcEENS_9allocatorIcEEEEPKN6google8protobuf15FieldDescriptorENS_4lessIS6_EENS4_INS_4pairIKS6_SB_EEEEEixERSF_
467:__ZN6google8protobuf12_GLOBAL__N_125InitAllowedProto3ExtendeeEv
468:__ZN6google8protobuf12_GLOBAL__N_127DeleteAllowedProto3ExtendeeEv
469:__ZN6google8protobuf17DescriptorBuilder16ValidateMapEntryEPNS0_15FieldDescriptorERKNS0_20FieldDescriptorProtoE
470:__ZN6google8protobuf12_GLOBAL__N_111ToCamelCaseERKNSt3__212basic_stringIcNS2_11char_traitsIcEENS2_9allocatorIcEEEEb
471:__ZNSt3__26__treeINS_12__value_typeIiNS_12basic_stringIcNS_11char_traitsIcEENS_9allocatorIcEEEEEENS_19__map_value_compareIiS8_NS_4lessIiEELb1EEENS5_IS8_EEE7destroyEPNS_11__tree_nodeIS8_PvEE
472:__ZN6google8protobuf17DescriptorBuilder32FindSymbolNotEnforcingDepsHelperEPKNS0_14DescriptorPoolERKNSt3__212basic_stringIcNS5_11char_traitsIcEENS5_9allocatorIcEEEE
473:__ZN6google8protobuf17DescriptorBuilder12LookupSymbolERKNSt3__212basic_stringIcNS2_11char_traitsIcEENS2_9allocatorIcEEEESA_NS1_15PlaceholderTypeENS1_11ResolveModeE
474:__ZN6google8protobuf17DescriptorBuilder17OptionInterpreter22AddWithoutInterpretingERKNS0_19UninterpretedOptionEPNS0_7MessageE
475:__ZN6google8protobuf17DescriptorBuilder17OptionInterpreter20ExamineIfOptionIsSetENSt3__211__wrap_iterIPKPKNS0_15FieldDescriptorEEESA_S7_RKNS3_12basic_stringIcNS3_11char_traitsIcEENS3_9allocatorIcEEEERKNS0_15UnknownFieldSetE
476:__ZN6google8protobuf17DescriptorBuilder17OptionInterpreter14SetOptionValueEPKNS0_15FieldDescriptorEPNS0_15UnknownFieldSetE
477:__ZN6google8protobuf17DescriptorBuilder17OptionInterpreter8SetInt32EiiNS0_15FieldDescriptor4TypeEPNS0_15UnknownFieldSetE
478:__ZN6google8protobuf17DescriptorBuilder17OptionInterpreter8SetInt64EixNS0_15FieldDescriptor4TypeEPNS0_15UnknownFieldSetE
479:__ZN6google8protobuf17DescriptorBuilder17OptionInterpreter9SetUInt32EijNS0_15FieldDescriptor4TypeEPNS0_15UnknownFieldSetE
480:__ZN6google8protobuf17DescriptorBuilder17OptionInterpreter9SetUInt64EiyNS0_15FieldDescriptor4TypeEPNS0_15UnknownFieldSetE
481:__ZN6google8protobuf17DescriptorBuilder17OptionInterpreter18SetAggregateOptionEPKNS0_15FieldDescriptorEPNS0_15UnknownFieldSetE
482:__ZNK6google8protobuf15FieldDescriptor22DebugStringWithOptionsERKNS0_18DebugStringOptionsE
483:__ZNK6google8protobuf17DescriptorBuilder17OptionInterpreter21AggregateOptionFinder13FindExtensionEPNS0_7MessageERKNSt3__212basic_stringIcNS6_11char_traitsIcEENS6_9allocatorIcEEEE
484:__ZN6google8protobuf17DescriptorBuilder25LookupSymbolNoPlaceholderERKNSt3__212basic_stringIcNS2_11char_traitsIcEENS2_9allocatorIcEEEESA_NS1_11ResolveModeE
485:__ZN6google8protobuf17DescriptorBuilder10FindSymbolERKNSt3__212basic_stringIcNS2_11char_traitsIcEENS2_9allocatorIcEEEE
486:__ZN6google8protobuf12_GLOBAL__N_123AggregateErrorCollectorD2Ev
487:__ZN6google8protobuf12_GLOBAL__N_123AggregateErrorCollectorD0Ev
488:__ZN6google8protobuf12_GLOBAL__N_123AggregateErrorCollector8AddErrorEiiRKNSt3__212basic_stringIcNS3_11char_traitsIcEENS3_9allocatorIcEEEE
489:__ZN6google8protobuf12_GLOBAL__N_123AggregateErrorCollector10AddWarningEiiRKNSt3__212basic_stringIcNS3_11char_traitsIcEENS3_9allocatorIcEEEE
490:__ZNK6google8protobuf15FieldDescriptor11DebugStringEiNS1_14PrintLabelFlagEPNSt3__212basic_stringIcNS3_11char_traitsIcEENS3_9allocatorIcEEEERKNS0_18DebugStringOptionsE
491:__ZNK6google8protobuf15FieldDescriptor24FieldTypeNameDebugStringEv
492:__ZNK6google8protobuf15FieldDescriptor17GetSourceLocationEPNS0_14SourceLocationE
493:__ZN6google8protobuf12_GLOBAL__N_128SourceLocationCommentPrinter13AddPreCommentEPNSt3__212basic_stringIcNS3_11char_traitsIcEENS3_9allocatorIcEEEE
494:__ZNK6google8protobuf15FieldDescriptor20DefaultValueAsStringEb
495:__ZN6google8protobuf12_GLOBAL__N_122FormatBracketedOptionsEiRKNS0_7MessageEPNSt3__212basic_stringIcNS5_11char_traitsIcEENS5_9allocatorIcEEEE
496:__ZNK6google8protobuf10Descriptor11DebugStringEiPNSt3__212basic_stringIcNS2_11char_traitsIcEENS2_9allocatorIcEEEERKNS0_18DebugStringOptionsEb
497:__ZN6google8protobuf12_GLOBAL__N_128SourceLocationCommentPrinter14AddPostCommentEPNSt3__212basic_stringIcNS3_11char_traitsIcEENS3_9allocatorIcEEEE
498:__ZN6google8protobuf12_GLOBAL__N_128SourceLocationCommentPrinter13FormatCommentERKNSt3__212basic_stringIcNS3_11char_traitsIcEENS3_9allocatorIcEEEE
499:__ZNK6google8protobuf10Descriptor17GetSourceLocationEPNS0_14SourceLocationE
500:__ZN6google8protobuf12_GLOBAL__N_117FormatLineOptionsEiRKNS0_7MessageEPNSt3__212basic_stringIcNS5_11char_traitsIcEENS5_9allocatorIcEEEE
501:__ZNK6google8protobuf14EnumDescriptor11DebugStringEiPNSt3__212basic_stringIcNS2_11char_traitsIcEENS2_9allocatorIcEEEERKNS0_18DebugStringOptionsE
502:__ZNK6google8protobuf15OneofDescriptor11DebugStringEiPNSt3__212basic_stringIcNS2_11char_traitsIcEENS2_9allocatorIcEEEERKNS0_18DebugStringOptionsE
503:__ZNSt3__26__treeIPKN6google8protobuf10DescriptorENS_4lessIS5_EENS_9allocatorIS5_EEE7destroyEPNS_11__tree_nodeIS5_PvEE
504:__ZNK6google8protobuf15OneofDescriptor17GetSourceLocationEPNS0_14SourceLocationE
505:__ZNK6google8protobuf10Descriptor15GetLocationPathEPNSt3__26vectorIiNS2_9allocatorIiEEEE
506:__ZNK6google8protobuf14FileDescriptor17GetSourceLocationERKNSt3__26vectorIiNS2_9allocatorIiEEEEPNS0_14SourceLocationE
507:__ZNSt3__26vectorINS_12basic_stringIcNS_11char_traitsIcEENS_9allocatorIcEEEENS4_IS6_EEE6assignIN6google8protobuf8internal19RepeatedPtrIteratorIKS6_EEEENS_9enable_ifIXaasr21__is_forward_iteratorIT_EE5valuesr16is_constructibleIS6_NS_15iterator_traitsISH_E9referenceEEE5valueEvE4typeESH_SH_
508:__ZNK6google8protobuf14EnumDescriptor17GetSourceLocationEPNS0_14SourceLocationE
509:__ZNK6google8protobuf19EnumValueDescriptor11DebugStringEiPNSt3__212basic_stringIcNS2_11char_traitsIcEENS2_9allocatorIcEEEERKNS0_18DebugStringOptionsE
510:__ZNK6google8protobuf19EnumValueDescriptor17GetSourceLocationEPNS0_14SourceLocationE
511:__ZNK6google8protobuf14EnumDescriptor15GetLocationPathEPNSt3__26vectorIiNS2_9allocatorIiEEEE
512:__ZN6google8protobuf12_GLOBAL__N_115RetrieveOptionsEiRKNS0_7MessageEPNSt3__26vectorINS5_12basic_stringIcNS5_11char_traitsIcEENS5_9allocatorIcEEEENSA_ISC_EEEE
513:__ZNK6google8protobuf15FieldDescriptor15GetLocationPathEPNSt3__26vectorIiNS2_9allocatorIiEEEE
514:__ZNK6google8protobuf14DescriptorPool6Tables10FindSymbolERKNSt3__212basic_stringIcNS3_11char_traitsIcEENS3_9allocatorIcEEEE
515:__ZNK6google8protobuf14DescriptorPool31TryFindSymbolInFallbackDatabaseERKNSt3__212basic_stringIcNS2_11char_traitsIcEENS2_9allocatorIcEEEE
516:__ZNK6google8protobuf14DescriptorPool22IsSubSymbolOfBuiltTypeERKNSt3__212basic_stringIcNS2_11char_traitsIcEENS2_9allocatorIcEEEE
517:__ZN6google8protobuf17DescriptorBuilder16CrossLinkMessageEPNS0_10DescriptorERKNS0_15DescriptorProtoE
518:__ZN6google8protobuf17DescriptorBuilder14CrossLinkFieldEPNS0_15FieldDescriptorERKNS0_20FieldDescriptorProtoE
519:__ZN6google8protobuf17DescriptorBuilder15CrossLinkMethodEPNS0_16MethodDescriptorERKNS0_21MethodDescriptorProtoE
520:__ZN6google8protobuf17DescriptorBuilder18AddNotDefinedErrorERKNSt3__212basic_stringIcNS2_11char_traitsIcEENS2_9allocatorIcEEEERKNS0_7MessageENS0_14DescriptorPool14ErrorCollector13ErrorLocationESA_
521:__ZN6google8protobuf17DescriptorBuilder18ValidateSymbolNameERKNSt3__212basic_stringIcNS2_11char_traitsIcEENS2_9allocatorIcEEEESA_RKNS0_7MessageE
522:__ZN6google8protobuf17DescriptorBuilder19AllocateOptionsImplINS0_15FieldDescriptorEEEvRKNSt3__212basic_stringIcNS4_11char_traitsIcEENS4_9allocatorIcEEEESC_RKNT_11OptionsTypeEPSD_
523:__ZN6google8protobuf17DescriptorBuilder9AddSymbolERKNSt3__212basic_stringIcNS2_11char_traitsIcEENS2_9allocatorIcEEEEPKvSA_RKNS0_7MessageENS0_12_GLOBAL__N_16SymbolE
524:__ZN6google8protobuf14DescriptorPool6Tables9AddSymbolERKNSt3__212basic_stringIcNS3_11char_traitsIcEENS3_9allocatorIcEEEENS0_12_GLOBAL__N_16SymbolE
525:__ZN6google8protobuf20FileDescriptorTables19AddAliasUnderParentEPKvRKNSt3__212basic_stringIcNS4_11char_traitsIcEENS4_9allocatorIcEEEENS0_12_GLOBAL__N_16SymbolE
526:__ZN6google8protobuf17DescriptorBuilder11BuildMethodERKNS0_21MethodDescriptorProtoEPKNS0_17ServiceDescriptorEPNS0_16MethodDescriptorE
527:__ZN6google8protobuf17DescriptorBuilder19AllocateOptionsImplINS0_17ServiceDescriptorEEEvRKNSt3__212basic_stringIcNS4_11char_traitsIcEENS4_9allocatorIcEEEESC_RKNT_11OptionsTypeEPSD_
528:__ZN6google8protobuf17DescriptorBuilder19AllocateOptionsImplINS0_16MethodDescriptorEEEvRKNSt3__212basic_stringIcNS4_11char_traitsIcEENS4_9allocatorIcEEEESC_RKNT_11OptionsTypeEPSD_
529:__ZN6google8protobuf17DescriptorBuilder14BuildEnumValueERKNS0_24EnumValueDescriptorProtoEPKNS0_14EnumDescriptorEPNS0_19EnumValueDescriptorE
530:__ZN6google8protobuf17DescriptorBuilder24CheckEnumValueUniquenessERKNS0_19EnumDescriptorProtoEPKNS0_14EnumDescriptorE
531:__ZN6google8protobuf17DescriptorBuilder19AllocateOptionsImplINS0_14EnumDescriptorEEEvRKNSt3__212basic_stringIcNS4_11char_traitsIcEENS4_9allocatorIcEEEESC_RKNT_11OptionsTypeEPSD_
532:__ZNSt3__26__treeINS_12__value_typeINS_12basic_stringIcNS_11char_traitsIcEENS_9allocatorIcEEEEPKN6google8protobuf19EnumValueDescriptorEEENS_19__map_value_compareIS7_SD_NS_4lessIS7_EELb1EEENS5_ISD_EEE7destroyEPNS_11__tree_nodeISD_PvEE
533:__ZN6google8protobuf17DescriptorBuilder19AllocateOptionsImplINS0_19EnumValueDescriptorEEEvRKNSt3__212basic_stringIcNS4_11char_traitsIcEENS4_9allocatorIcEEEESC_RKNT_11OptionsTypeEPSD_
534:__ZN6google8protobuf17DescriptorBuilder10BuildOneofERKNS0_20OneofDescriptorProtoEPNS0_10DescriptorEPNS0_15OneofDescriptorE
535:__ZN6google8protobuf17DescriptorBuilder19AllocateOptionsImplINS0_10DescriptorEEEvRKNSt3__212basic_stringIcNS4_11char_traitsIcEENS4_9allocatorIcEEEESC_RKNT_11OptionsTypeEPSD_
536:__ZNSt3__212__hash_tableINS_12basic_stringIcNS_11char_traitsIcEENS_9allocatorIcEEEEN6google8protobuf4hashIS6_EENS_8equal_toIS6_EENS4_IS6_EEE4findIS6_EENS_15__hash_iteratorIPNS_11__hash_nodeIS6_PvEEEERKT_
537:__ZN6google8protobuf17DescriptorBuilder19AllocateOptionsImplINS0_15OneofDescriptorEEEvRKNSt3__212basic_stringIcNS4_11char_traitsIcEENS4_9allocatorIcEEEESC_RKNT_11OptionsTypeEPSD_
538:__ZN6google8protobuf12_GLOBAL__N_124InitFileDescriptorTablesEv
539:__ZN6google8protobuf12_GLOBAL__N_126DeleteFileDescriptorTablesEv
540:__ZN6google8protobuf8internal18GenericTypeHandlerINS0_15DescriptorProtoEE16NewFromPrototypeEPKS3_PNS0_5ArenaE
541:__ZNK6google8protobuf10Descriptor6CopyToEPNS0_15DescriptorProtoE
542:__ZN6google8protobuf8internal18GenericTypeHandlerINS0_19EnumDescriptorProtoEE16NewFromPrototypeEPKS3_PNS0_5ArenaE
543:__ZNK6google8protobuf14EnumDescriptor6CopyToEPNS0_19EnumDescriptorProtoE
544:__ZN6google8protobuf8internal18GenericTypeHandlerINS0_22ServiceDescriptorProtoEE16NewFromPrototypeEPKS3_PNS0_5ArenaE
545:__ZNK6google8protobuf17ServiceDescriptor6CopyToEPNS0_22ServiceDescriptorProtoE
546:__ZN6google8protobuf8internal18GenericTypeHandlerINS0_20FieldDescriptorProtoEE16NewFromPrototypeEPKS3_PNS0_5ArenaE
547:__ZNK6google8protobuf15FieldDescriptor6CopyToEPNS0_20FieldDescriptorProtoE
548:__ZN6google8protobuf20FieldDescriptorProto12set_extendeeEPKc
549:__ZN6google8protobuf20FieldDescriptorProto13set_type_nameEPKc
550:__ZN6google8protobuf5Arena18CreateMaybeMessageINS0_20FieldDescriptorProtoEEEPT_PS1_z
551:__ZN6google8protobuf8internal18GenericTypeHandlerINS0_21MethodDescriptorProtoEE16NewFromPrototypeEPKS3_PNS0_5ArenaE
552:__ZNK6google8protobuf16MethodDescriptor6CopyToEPNS0_21MethodDescriptorProtoE
553:__ZN6google8protobuf21MethodDescriptorProto14set_input_typeEPKc
554:__ZN6google8protobuf21MethodDescriptorProto15set_output_typeEPKc
555:__ZN6google8protobuf5Arena18CreateMaybeMessageINS0_21MethodDescriptorProtoEEEPT_PS1_z
556:__ZN6google8protobuf5Arena18CreateMaybeMessageINS0_22ServiceDescriptorProtoEEEPT_PS1_z
557:__ZN6google8protobuf8internal18GenericTypeHandlerINS0_24EnumValueDescriptorProtoEE16NewFromPrototypeEPKS3_PNS0_5ArenaE
558:__ZNK6google8protobuf19EnumValueDescriptor6CopyToEPNS0_24EnumValueDescriptorProtoE
559:__ZN6google8protobuf5Arena18CreateMaybeMessageINS0_24EnumValueDescriptorProtoEEEPT_PS1_z
560:__ZN6google8protobuf5Arena18CreateMaybeMessageINS0_19EnumDescriptorProtoEEEPT_PS1_z
561:__ZN6google8protobuf8internal18GenericTypeHandlerINS0_20OneofDescriptorProtoEE16NewFromPrototypeEPKS3_PNS0_5ArenaE
562:__ZNK6google8protobuf15OneofDescriptor6CopyToEPNS0_20OneofDescriptorProtoE
563:__ZN6google8protobuf8internal18GenericTypeHandlerINS0_30DescriptorProto_ExtensionRangeEE16NewFromPrototypeEPKS3_PNS0_5ArenaE
564:__ZN6google8protobuf8internal18GenericTypeHandlerINS0_29DescriptorProto_ReservedRangeEE16NewFromPrototypeEPKS3_PNS0_5ArenaE
565:__ZN6google8protobuf5Arena18CreateMaybeMessageINS0_29DescriptorProto_ReservedRangeEEEPT_PS1_z
566:__ZN6google8protobuf5Arena18CreateMaybeMessageINS0_30DescriptorProto_ExtensionRangeEEEPT_PS1_z
567:__ZN6google8protobuf5Arena18CreateMaybeMessageINS0_20OneofDescriptorProtoEEEPT_PS1_z
568:__ZN6google8protobuf5Arena18CreateMaybeMessageINS0_15DescriptorProtoEEEPT_PS1_z
569:__ZNK6google8protobuf14DescriptorPool21FindMessageTypeByNameERKNSt3__212basic_stringIcNS2_11char_traitsIcEENS2_9allocatorIcEEEE
570:__ZN6google8protobuf14DescriptorPool6Tables16FindByNameHelperEPKS1_RKNSt3__212basic_stringIcNS5_11char_traitsIcEENS5_9allocatorIcEEEE
571:__ZNK6google8protobuf14DescriptorPool19FindExtensionByNameERKNSt3__212basic_stringIcNS2_11char_traitsIcEENS2_9allocatorIcEEEE
572:__ZNK6google8protobuf14DescriptorPool21FindExtensionByNumberEPKNS0_10DescriptorEi
573:__ZNK6google8protobuf14DescriptorPool34TryFindExtensionInFallbackDatabaseEPKNS0_10DescriptorEi
574:__ZNK6google8protobuf10Descriptor17FindFieldByNumberEi
575:__ZNK6google8protobuf10Descriptor24FindFieldByLowercaseNameERKNSt3__212basic_stringIcNS2_11char_traitsIcEENS2_9allocatorIcEEEE
576:__ZN6google8protobuf13FindPtrOrNullINS0_8hash_mapINSt3__24pairIPKvPKcEEPKNS0_15FieldDescriptorENS0_12_GLOBAL__N_121PointerStringPairHashENSD_22PointerStringPairEqualENS3_9allocatorINS4_IKS9_SC_EEEEEEEENT_10value_type11second_typeERKSL_RKNSL_10value_type10first_typeE
577:__ZNK6google8protobuf10Descriptor15FindFieldByNameERKNSt3__212basic_stringIcNS2_11char_traitsIcEENS2_9allocatorIcEEEE
578:__ZNK6google8protobuf14EnumDescriptor15FindValueByNameERKNSt3__212basic_stringIcNS2_11char_traitsIcEENS2_9allocatorIcEEEE
579:__ZNK6google8protobuf14EnumDescriptor17FindValueByNumberEi
580:__ZNK6google8protobuf14EnumDescriptor34FindValueByNumberCreatingIfUnknownEi
581:__ZNK6google8protobuf20FileDescriptorTables38FindEnumValueByNumberCreatingIfUnknownEPKNS0_14EnumDescriptorEi
582:__ZNK6google8protobuf10Descriptor34FindExtensionRangeContainingNumberEi
583:__ZNK6google8protobuf15FieldDescriptor6is_mapEv
584:__ZNK6google8protobuf15FieldDescriptor9is_packedEv
585:__ZN6google8protobuf25EncodedDescriptorDatabaseD2Ev
586:__ZN6google8protobuf25EncodedDescriptorDatabaseD0Ev
587:__ZN6google8protobuf25EncodedDescriptorDatabase14FindFileByNameERKNSt3__212basic_stringIcNS2_11char_traitsIcEENS2_9allocatorIcEEEEPNS0_19FileDescriptorProtoE
588:__ZN6google8protobuf25EncodedDescriptorDatabase24FindFileContainingSymbolERKNSt3__212basic_stringIcNS2_11char_traitsIcEENS2_9allocatorIcEEEEPNS0_19FileDescriptorProtoE
589:__ZN6google8protobuf25EncodedDescriptorDatabase27FindFileContainingExtensionERKNSt3__212basic_stringIcNS2_11char_traitsIcEENS2_9allocatorIcEEEEiPNS0_19FileDescriptorProtoE
590:__ZN6google8protobuf25EncodedDescriptorDatabase23FindAllExtensionNumbersERKNSt3__212basic_stringIcNS2_11char_traitsIcEENS2_9allocatorIcEEEEPNS2_6vectorIiNS6_IiEEEE
591:__ZN6google8protobuf24SimpleDescriptorDatabase15DescriptorIndexINSt3__24pairIPKviEEE23FindAllExtensionNumbersERKNS3_12basic_stringIcNS3_11char_traitsIcEENS3_9allocatorIcEEEEPNS3_6vectorIiNSC_IiEEEE
592:__ZNSt3__26__treeINS_12__value_typeINS_4pairINS_12basic_stringIcNS_11char_traitsIcEENS_9allocatorIcEEEEiEENS2_IPKviEEEENS_19__map_value_compareIS9_SD_NS_4lessIS9_EELb1EEENS6_ISD_EEE13__lower_boundIS9_EENS_15__tree_iteratorISD_PNS_11__tree_nodeISD_PvEEiEERKT_SP_PNS_15__tree_end_nodeIPNS_16__tree_node_baseISN_EEEE
593:__ZN6google8protobuf24SimpleDescriptorDatabase15DescriptorIndexINSt3__24pairIPKviEEE13FindExtensionERKNS3_12basic_stringIcNS3_11char_traitsIcEENS3_9allocatorIcEEEEi
594:__ZNKSt3__26__treeINS_12__value_typeINS_4pairINS_12basic_stringIcNS_11char_traitsIcEENS_9allocatorIcEEEEiEENS2_IPKviEEEENS_19__map_value_compareIS9_SD_NS_4lessIS9_EELb1EEENS6_ISD_EEE4findIS9_EENS_21__tree_const_iteratorISD_PNS_11__tree_nodeISD_PvEEiEERKT_
595:__ZN6google8protobuf24SimpleDescriptorDatabase15DescriptorIndexINSt3__24pairIPKviEEE10FindSymbolERKNS3_12basic_stringIcNS3_11char_traitsIcEENS3_9allocatorIcEEEE
596:__ZN6google8protobuf24SimpleDescriptorDatabase15DescriptorIndexINSt3__24pairIPKviEEE11IsSubSymbolERKNS3_12basic_stringIcNS3_11char_traitsIcEENS3_9allocatorIcEEEESG_
597:__ZNSt3__26__treeINS_12__value_typeINS_4pairINS_12basic_stringIcNS_11char_traitsIcEENS_9allocatorIcEEEEiEENS2_IPKviEEEENS_19__map_value_compareIS9_SD_NS_4lessIS9_EELb1EEENS6_ISD_EEE7destroyEPNS_11__tree_nodeISD_PvEE
598:__ZNSt3__26__treeINS_12__value_typeINS_12basic_stringIcNS_11char_traitsIcEENS_9allocatorIcEEEENS_4pairIPKviEEEENS_19__map_value_compareIS7_SC_NS_4lessIS7_EELb1EEENS5_ISC_EEE7destroyEPNS_11__tree_nodeISC_PvEE
599:__ZN6google8protobuf25EncodedDescriptorDatabaseC2Ev
600:__ZN6google8protobuf25EncodedDescriptorDatabase3AddEPKvi
601:__ZN6google8protobuf24SimpleDescriptorDatabase15DescriptorIndexINSt3__24pairIPKviEEE7AddFileERKNS0_19FileDescriptorProtoES7_
602:__ZN6google8protobuf18InsertIfNotPresentINSt3__23mapINS2_12basic_stringIcNS2_11char_traitsIcEENS2_9allocatorIcEEEENS2_4pairIPKviEENS2_4lessIS9_EENS7_INSA_IKS9_SD_EEEEEEEEbPT_RKNSK_10value_typeE
603:__ZN6google8protobuf24SimpleDescriptorDatabase15DescriptorIndexINSt3__24pairIPKviEEE9AddSymbolERKNS3_12basic_stringIcNS3_11char_traitsIcEENS3_9allocatorIcEEEES7_
604:__ZN6google8protobuf24SimpleDescriptorDatabase15DescriptorIndexINSt3__24pairIPKviEEE19AddNestedExtensionsERKNS0_15DescriptorProtoES7_
605:__ZN6google8protobuf24SimpleDescriptorDatabase15DescriptorIndexINSt3__24pairIPKviEEE12AddExtensionERKNS0_20FieldDescriptorProtoES7_
606:__ZN6google8protobuf18InsertIfNotPresentINSt3__23mapINS2_4pairINS2_12basic_stringIcNS2_11char_traitsIcEENS2_9allocatorIcEEEEiEENS4_IPKviEENS2_4lessISB_EENS8_INS4_IKSB_SE_EEEEEEEEbPT_RKNSL_10value_typeE
607:__ZNSt3__26__treeINS_12__value_typeINS_4pairINS_12basic_stringIcNS_11char_traitsIcEENS_9allocatorIcEEEEiEENS2_IPKviEEEENS_19__map_value_compareIS9_SD_NS_4lessIS9_EELb1EEENS6_ISD_EEE12__find_equalIS9_EERPNS_16__tree_node_baseIPvEERPNS_15__tree_end_nodeISO_EERKT_
608:__ZNSt3__26__treeINS_12__value_typeINS_12basic_stringIcNS_11char_traitsIcEENS_9allocatorIcEEEENS_4pairIPKviEEEENS_19__map_value_compareIS7_SC_NS_4lessIS7_EELb1EEENS5_ISC_EEE12__find_equalIS7_EERPNS_16__tree_node_baseIPvEENS_21__tree_const_iteratorISC_PNS_11__tree_nodeISC_SL_EEiEERPNS_15__tree_end_nodeISN_EESO_RKT_
609:__ZN6google8protobuf17FileDescriptorSetD2Ev
610:__ZN6google8protobuf17FileDescriptorSetD0Ev
611:__ZNK6google8protobuf17FileDescriptorSet3NewEPNS0_5ArenaE
612:__ZN6google8protobuf17FileDescriptorSet5ClearEv
613:__ZNK6google8protobuf17FileDescriptorSet13IsInitializedEv
614:__ZN6google8protobuf17FileDescriptorSet27MergePartialFromCodedStreamEPNS0_2io16CodedInputStreamE
615:__ZNK6google8protobuf17FileDescriptorSet12ByteSizeLongEv
616:__ZNK6google8protobuf17FileDescriptorSet24SerializeWithCachedSizesEPNS0_2io17CodedOutputStreamE
617:__ZNK6google8protobuf17FileDescriptorSet13GetCachedSizeEv
618:__ZNK6google8protobuf17FileDescriptorSet39InternalSerializeWithCachedSizesToArrayEbPh
619:__ZN6google8protobuf17FileDescriptorSet9MergeFromERKNS0_7MessageE
620:__ZNK6google8protobuf17FileDescriptorSet13SetCachedSizeEi
621:__ZNK6google8protobuf17FileDescriptorSet11GetMetadataEv
622:__ZN6google8protobuf58protobuf_AssignDesc_google_2fprotobuf_2fdescriptor_2eprotoEv
623:__ZN6google8protobuf60protobuf_AddDesc_google_2fprotobuf_2fdescriptor_2eproto_implEv
624:__ZN6google8protobuf65protobuf_InitDefaults_google_2fprotobuf_2fdescriptor_2eproto_implEv
625:__ZN6google8protobuf12_GLOBAL__N_122protobuf_RegisterTypesERKNSt3__212basic_stringIcNS2_11char_traitsIcEENS2_9allocatorIcEEEE_401
626:__ZN6google8protobuf60protobuf_ShutdownFile_google_2fprotobuf_2fdescriptor_2eprotoEv
627:__ZN6google8protobuf28GeneratedCodeInfo_AnnotationD2Ev
628:__ZN6google8protobuf28GeneratedCodeInfo_AnnotationD0Ev
629:__ZNK6google8protobuf28GeneratedCodeInfo_Annotation3NewEPNS0_5ArenaE
630:__ZN6google8protobuf28GeneratedCodeInfo_Annotation5ClearEv
631:__ZN6google8protobuf28GeneratedCodeInfo_Annotation27MergePartialFromCodedStreamEPNS0_2io16CodedInputStreamE
632:__ZNK6google8protobuf28GeneratedCodeInfo_Annotation12ByteSizeLongEv
633:__ZNK6google8protobuf28GeneratedCodeInfo_Annotation24SerializeWithCachedSizesEPNS0_2io17CodedOutputStreamE
634:__ZNK6google8protobuf28GeneratedCodeInfo_Annotation39InternalSerializeWithCachedSizesToArrayEbPh
635:__ZN6google8protobuf28GeneratedCodeInfo_Annotation9MergeFromERKNS0_7MessageE
636:__ZNK6google8protobuf28GeneratedCodeInfo_Annotation11GetMetadataEv
637:__ZN6google8protobuf12_GLOBAL__N_1L13MergeFromFailEi_402
638:__ZN6google8protobuf28GeneratedCodeInfo_Annotation15UnsafeMergeFromERKS1_
639:__ZN6google8protobuf8internal14WireFormatLite29ReadRepeatedPrimitiveNoInlineIiLNS2_9FieldTypeE5EEEbijPNS0_2io16CodedInputStreamEPNS0_13RepeatedFieldIT_EE
640:__ZN6google8protobuf28GeneratedCodeInfo_AnnotationC2Ev
641:__ZN6google8protobuf17GeneratedCodeInfoD2Ev
642:__ZN6google8protobuf17GeneratedCodeInfoD0Ev
643:__ZNK6google8protobuf17GeneratedCodeInfo3NewEPNS0_5ArenaE
644:__ZN6google8protobuf17GeneratedCodeInfo27MergePartialFromCodedStreamEPNS0_2io16CodedInputStreamE
645:__ZNK6google8protobuf17GeneratedCodeInfo12ByteSizeLongEv
646:__ZN6google8protobuf17GeneratedCodeInfo9MergeFromERKNS0_7MessageE
647:__ZNK6google8protobuf17GeneratedCodeInfo11GetMetadataEv
648:__ZN6google8protobuf16RepeatedPtrFieldINS0_28GeneratedCodeInfo_AnnotationEE9MergeFromERKS3_
649:__ZN6google8protobuf8internal18GenericTypeHandlerINS0_28GeneratedCodeInfo_AnnotationEE5MergeERKS3_PS3_
650:__ZN6google8protobuf8internal18GenericTypeHandlerINS0_28GeneratedCodeInfo_AnnotationEE16NewFromPrototypeEPKS3_PNS0_5ArenaE
651:__ZN6google8protobuf5Arena18CreateMaybeMessageINS0_28GeneratedCodeInfo_AnnotationEEEPT_PS1_z
652:__ZN6google8protobuf17GeneratedCodeInfoC2Ev
653:__ZN6google8protobuf23SourceCodeInfo_LocationD2Ev
654:__ZN6google8protobuf23SourceCodeInfo_LocationD0Ev
655:__ZNK6google8protobuf23SourceCodeInfo_Location3NewEPNS0_5ArenaE
656:__ZN6google8protobuf23SourceCodeInfo_Location5ClearEv
657:__ZN6google8protobuf23SourceCodeInfo_Location27MergePartialFromCodedStreamEPNS0_2io16CodedInputStreamE
658:__ZNK6google8protobuf23SourceCodeInfo_Location12ByteSizeLongEv
659:__ZNK6google8protobuf23SourceCodeInfo_Location24SerializeWithCachedSizesEPNS0_2io17CodedOutputStreamE
660:__ZNK6google8protobuf23SourceCodeInfo_Location39InternalSerializeWithCachedSizesToArrayEbPh
661:__ZN6google8protobuf23SourceCodeInfo_Location9MergeFromERKNS0_7MessageE
662:__ZNK6google8protobuf23SourceCodeInfo_Location11GetMetadataEv
663:__ZN6google8protobuf23SourceCodeInfo_Location15UnsafeMergeFromERKS1_
664:__ZN6google8protobuf23SourceCodeInfo_LocationC2Ev
665:__ZN6google8protobuf14SourceCodeInfoD2Ev
666:__ZN6google8protobuf14SourceCodeInfoD0Ev
667:__ZNK6google8protobuf14SourceCodeInfo3NewEPNS0_5ArenaE
668:__ZN6google8protobuf14SourceCodeInfo27MergePartialFromCodedStreamEPNS0_2io16CodedInputStreamE
669:__ZNK6google8protobuf14SourceCodeInfo12ByteSizeLongEv
670:__ZN6google8protobuf14SourceCodeInfo9MergeFromERKNS0_7MessageE
671:__ZNK6google8protobuf14SourceCodeInfo11GetMetadataEv
672:__ZN6google8protobuf14SourceCodeInfo16default_instanceEv
673:__ZN6google8protobuf16RepeatedPtrFieldINS0_23SourceCodeInfo_LocationEE9MergeFromERKS3_
674:__ZN6google8protobuf8internal18GenericTypeHandlerINS0_23SourceCodeInfo_LocationEE5MergeERKS3_PS3_
675:__ZN6google8protobuf8internal18GenericTypeHandlerINS0_23SourceCodeInfo_LocationEE16NewFromPrototypeEPKS3_PNS0_5ArenaE
676:__ZN6google8protobuf5Arena18CreateMaybeMessageINS0_23SourceCodeInfo_LocationEEEPT_PS1_z
677:__ZN6google8protobuf14SourceCodeInfoC2Ev
678:__ZN6google8protobuf28UninterpretedOption_NamePartD2Ev
679:__ZN6google8protobuf28UninterpretedOption_NamePartD0Ev
680:__ZNK6google8protobuf28UninterpretedOption_NamePart3NewEPNS0_5ArenaE
681:__ZN6google8protobuf28UninterpretedOption_NamePart5ClearEv
682:__ZNK6google8protobuf28UninterpretedOption_NamePart13IsInitializedEv
683:__ZN6google8protobuf28UninterpretedOption_NamePart27MergePartialFromCodedStreamEPNS0_2io16CodedInputStreamE
684:__ZNK6google8protobuf28UninterpretedOption_NamePart12ByteSizeLongEv
685:__ZNK6google8protobuf28UninterpretedOption_NamePart24SerializeWithCachedSizesEPNS0_2io17CodedOutputStreamE
686:__ZNK6google8protobuf28UninterpretedOption_NamePart39InternalSerializeWithCachedSizesToArrayEbPh
687:__ZN6google8protobuf28UninterpretedOption_NamePart9MergeFromERKNS0_7MessageE
688:__ZNK6google8protobuf28UninterpretedOption_NamePart11GetMetadataEv
689:__ZN6google8protobuf28UninterpretedOption_NamePartC2Ev
690:__ZN6google8protobuf19UninterpretedOptionD2Ev
691:__ZN6google8protobuf19UninterpretedOptionD0Ev
692:__ZNK6google8protobuf19UninterpretedOption3NewEPNS0_5ArenaE
693:__ZN6google8protobuf19UninterpretedOption5ClearEv
694:__ZN6google8protobuf19UninterpretedOption27MergePartialFromCodedStreamEPNS0_2io16CodedInputStreamE
695:__ZNK6google8protobuf19UninterpretedOption12ByteSizeLongEv
696:__ZNK6google8protobuf19UninterpretedOption24SerializeWithCachedSizesEPNS0_2io17CodedOutputStreamE
697:__ZNK6google8protobuf19UninterpretedOption39InternalSerializeWithCachedSizesToArrayEbPh
698:__ZN6google8protobuf19UninterpretedOption9MergeFromERKNS0_7MessageE
699:__ZNK6google8protobuf19UninterpretedOption11GetMetadataEv
700:__ZN6google8protobuf19UninterpretedOption15UnsafeMergeFromERKS1_
701:__ZN6google8protobuf16RepeatedPtrFieldINS0_28UninterpretedOption_NamePartEE9MergeFromERKS3_
702:__ZN6google8protobuf8internal18GenericTypeHandlerINS0_28UninterpretedOption_NamePartEE5MergeERKS3_PS3_
703:__ZN6google8protobuf8internal18GenericTypeHandlerINS0_28UninterpretedOption_NamePartEE16NewFromPrototypeEPKS3_PNS0_5ArenaE
704:__ZN6google8protobuf5Arena18CreateMaybeMessageINS0_28UninterpretedOption_NamePartEEEPT_PS1_z
705:__ZN6google8protobuf19UninterpretedOptionC2Ev
706:__ZN6google8protobuf19UninterpretedOption10SharedDtorEv
707:__ZN6google8protobuf13MethodOptionsD2Ev
708:__ZN6google8protobuf13MethodOptionsD0Ev
709:__ZNK6google8protobuf13MethodOptions3NewEPNS0_5ArenaE
710:__ZN6google8protobuf13MethodOptions5ClearEv
711:__ZNK6google8protobuf13MethodOptions13IsInitializedEv
712:__ZN6google8protobuf13MethodOptions27MergePartialFromCodedStreamEPNS0_2io16CodedInputStreamE
713:__ZNK6google8protobuf13MethodOptions12ByteSizeLongEv
714:__ZNK6google8protobuf13MethodOptions24SerializeWithCachedSizesEPNS0_2io17CodedOutputStreamE
715:__ZNK6google8protobuf13MethodOptions13GetCachedSizeEv
716:__ZNK6google8protobuf13MethodOptions39InternalSerializeWithCachedSizesToArrayEbPh
717:__ZN6google8protobuf13MethodOptions9MergeFromERKNS0_7MessageE
718:__ZNK6google8protobuf13MethodOptions13SetCachedSizeEi
719:__ZNK6google8protobuf13MethodOptions11GetMetadataEv
720:__ZN6google8protobuf16RepeatedPtrFieldINS0_19UninterpretedOptionEE9MergeFromERKS3_
721:__ZN6google8protobuf8internal18GenericTypeHandlerINS0_19UninterpretedOptionEE5MergeERKS3_PS3_
722:__ZN6google8protobuf8internal18GenericTypeHandlerINS0_19UninterpretedOptionEE16NewFromPrototypeEPKS3_PNS0_5ArenaE
723:__ZN6google8protobuf5Arena18CreateMaybeMessageINS0_19UninterpretedOptionEEEPT_PS1_z
724:__ZN6google8protobuf13MethodOptionsC2Ev
725:__ZN6google8protobuf14ServiceOptionsD2Ev
726:__ZN6google8protobuf14ServiceOptionsD0Ev
727:__ZNK6google8protobuf14ServiceOptions3NewEPNS0_5ArenaE
728:__ZN6google8protobuf14ServiceOptions27MergePartialFromCodedStreamEPNS0_2io16CodedInputStreamE
729:__ZN6google8protobuf14ServiceOptions9MergeFromERKNS0_7MessageE
730:__ZNK6google8protobuf14ServiceOptions11GetMetadataEv
731:__ZN6google8protobuf14ServiceOptionsC2Ev
732:__ZN6google8protobuf16EnumValueOptionsD2Ev
733:__ZN6google8protobuf16EnumValueOptionsD0Ev
734:__ZNK6google8protobuf16EnumValueOptions3NewEPNS0_5ArenaE
735:__ZN6google8protobuf16EnumValueOptions27MergePartialFromCodedStreamEPNS0_2io16CodedInputStreamE
736:__ZNK6google8protobuf16EnumValueOptions12ByteSizeLongEv
737:__ZNK6google8protobuf16EnumValueOptions24SerializeWithCachedSizesEPNS0_2io17CodedOutputStreamE
738:__ZNK6google8protobuf16EnumValueOptions39InternalSerializeWithCachedSizesToArrayEbPh
739:__ZN6google8protobuf16EnumValueOptions9MergeFromERKNS0_7MessageE
740:__ZNK6google8protobuf16EnumValueOptions11GetMetadataEv
741:__ZN6google8protobuf16EnumValueOptionsC2Ev
742:__ZN6google8protobuf11EnumOptionsD2Ev
743:__ZN6google8protobuf11EnumOptionsD0Ev
744:__ZNK6google8protobuf11EnumOptions3NewEPNS0_5ArenaE
745:__ZN6google8protobuf11EnumOptions5ClearEv
746:__ZN6google8protobuf11EnumOptions27MergePartialFromCodedStreamEPNS0_2io16CodedInputStreamE
747:__ZNK6google8protobuf11EnumOptions12ByteSizeLongEv
748:__ZNK6google8protobuf11EnumOptions24SerializeWithCachedSizesEPNS0_2io17CodedOutputStreamE
749:__ZNK6google8protobuf11EnumOptions39InternalSerializeWithCachedSizesToArrayEbPh
750:__ZN6google8protobuf11EnumOptions9MergeFromERKNS0_7MessageE
751:__ZNK6google8protobuf11EnumOptions11GetMetadataEv
752:__ZN6google8protobuf11EnumOptionsC2Ev
753:__ZN6google8protobuf12OneofOptionsD2Ev
754:__ZN6google8protobuf12OneofOptionsD0Ev
755:__ZNK6google8protobuf12OneofOptions3NewEPNS0_5ArenaE
756:__ZN6google8protobuf12OneofOptions5ClearEv
757:__ZN6google8protobuf12OneofOptions27MergePartialFromCodedStreamEPNS0_2io16CodedInputStreamE
758:__ZNK6google8protobuf12OneofOptions12ByteSizeLongEv
759:__ZNK6google8protobuf12OneofOptions24SerializeWithCachedSizesEPNS0_2io17CodedOutputStreamE
760:__ZNK6google8protobuf12OneofOptions39InternalSerializeWithCachedSizesToArrayEbPh
761:__ZN6google8protobuf12OneofOptions9MergeFromERKNS0_7MessageE
762:__ZNK6google8protobuf12OneofOptions11GetMetadataEv
763:__ZN6google8protobuf12OneofOptionsC2Ev
764:__ZN6google8protobuf12FieldOptionsD2Ev
765:__ZN6google8protobuf12FieldOptionsD0Ev
766:__ZNK6google8protobuf12FieldOptions3NewEPNS0_5ArenaE
767:__ZN6google8protobuf12FieldOptions5ClearEv
768:__ZN6google8protobuf12FieldOptions27MergePartialFromCodedStreamEPNS0_2io16CodedInputStreamE
769:__ZNK6google8protobuf12FieldOptions12ByteSizeLongEv
770:__ZNK6google8protobuf12FieldOptions24SerializeWithCachedSizesEPNS0_2io17CodedOutputStreamE
771:__ZNK6google8protobuf12FieldOptions39InternalSerializeWithCachedSizesToArrayEbPh
772:__ZN6google8protobuf12FieldOptions9MergeFromERKNS0_7MessageE
773:__ZNK6google8protobuf12FieldOptions11GetMetadataEv
774:__ZN6google8protobuf12FieldOptions15UnsafeMergeFromERKS1_
775:__ZN6google8protobuf12FieldOptionsC2Ev
776:__ZN6google8protobuf14MessageOptionsD2Ev
777:__ZN6google8protobuf14MessageOptionsD0Ev
778:__ZNK6google8protobuf14MessageOptions3NewEPNS0_5ArenaE
779:__ZN6google8protobuf14MessageOptions5ClearEv
780:__ZN6google8protobuf14MessageOptions27MergePartialFromCodedStreamEPNS0_2io16CodedInputStreamE
781:__ZNK6google8protobuf14MessageOptions12ByteSizeLongEv
782:__ZNK6google8protobuf14MessageOptions24SerializeWithCachedSizesEPNS0_2io17CodedOutputStreamE
783:__ZNK6google8protobuf14MessageOptions39InternalSerializeWithCachedSizesToArrayEbPh
784:__ZN6google8protobuf14MessageOptions9MergeFromERKNS0_7MessageE
785:__ZNK6google8protobuf14MessageOptions11GetMetadataEv
786:__ZN6google8protobuf14MessageOptions15UnsafeMergeFromERKS1_
787:__ZN6google8protobuf14MessageOptionsC2Ev
788:__ZN6google8protobuf11FileOptionsD2Ev
789:__ZN6google8protobuf11FileOptionsD0Ev
790:__ZNK6google8protobuf11FileOptions3NewEPNS0_5ArenaE
791:__ZN6google8protobuf11FileOptions5ClearEv
792:__ZN6google8protobuf11FileOptions27MergePartialFromCodedStreamEPNS0_2io16CodedInputStreamE
793:__ZNK6google8protobuf11FileOptions12ByteSizeLongEv
794:__ZNK6google8protobuf11FileOptions24SerializeWithCachedSizesEPNS0_2io17CodedOutputStreamE
795:__ZNK6google8protobuf11FileOptions39InternalSerializeWithCachedSizesToArrayEbPh
796:__ZN6google8protobuf11FileOptions9MergeFromERKNS0_7MessageE
797:__ZNK6google8protobuf11FileOptions11GetMetadataEv
798:__ZN6google8protobuf11FileOptions15UnsafeMergeFromERKS1_
799:__ZN6google8protobuf11FileOptionsC2Ev
800:__ZN6google8protobuf11FileOptions10SharedDtorEv
801:__ZN6google8protobuf21MethodDescriptorProtoD2Ev
802:__ZN6google8protobuf21MethodDescriptorProtoD0Ev
803:__ZNK6google8protobuf21MethodDescriptorProto3NewEPNS0_5ArenaE
804:__ZN6google8protobuf21MethodDescriptorProto5ClearEv
805:__ZNK6google8protobuf21MethodDescriptorProto13IsInitializedEv
806:__ZN6google8protobuf21MethodDescriptorProto27MergePartialFromCodedStreamEPNS0_2io16CodedInputStreamE
807:__ZNK6google8protobuf21MethodDescriptorProto12ByteSizeLongEv
808:__ZNK6google8protobuf21MethodDescriptorProto24SerializeWithCachedSizesEPNS0_2io17CodedOutputStreamE
809:__ZNK6google8protobuf21MethodDescriptorProto39InternalSerializeWithCachedSizesToArrayEbPh
810:__ZN6google8protobuf21MethodDescriptorProto9MergeFromERKNS0_7MessageE
811:__ZNK6google8protobuf21MethodDescriptorProto11GetMetadataEv
812:__ZN6google8protobuf21MethodDescriptorProto15UnsafeMergeFromERKS1_
813:__ZN6google8protobuf21MethodDescriptorProtoC2Ev
814:__ZN6google8protobuf21MethodDescriptorProto10SharedDtorEv
815:__ZN6google8protobuf22ServiceDescriptorProtoD2Ev
816:__ZN6google8protobuf22ServiceDescriptorProtoD0Ev
817:__ZNK6google8protobuf22ServiceDescriptorProto3NewEPNS0_5ArenaE
818:__ZN6google8protobuf22ServiceDescriptorProto5ClearEv
819:__ZNK6google8protobuf22ServiceDescriptorProto13IsInitializedEv
820:__ZN6google8protobuf22ServiceDescriptorProto27MergePartialFromCodedStreamEPNS0_2io16CodedInputStreamE
821:__ZNK6google8protobuf22ServiceDescriptorProto12ByteSizeLongEv
822:__ZNK6google8protobuf22ServiceDescriptorProto24SerializeWithCachedSizesEPNS0_2io17CodedOutputStreamE
823:__ZNK6google8protobuf22ServiceDescriptorProto39InternalSerializeWithCachedSizesToArrayEbPh
824:__ZN6google8protobuf22ServiceDescriptorProto9MergeFromERKNS0_7MessageE
825:__ZNK6google8protobuf22ServiceDescriptorProto11GetMetadataEv
826:__ZN6google8protobuf22ServiceDescriptorProto15UnsafeMergeFromERKS1_
827:__ZN6google8protobuf16RepeatedPtrFieldINS0_21MethodDescriptorProtoEE9MergeFromERKS3_
828:__ZN6google8protobuf8internal18GenericTypeHandlerINS0_21MethodDescriptorProtoEE5MergeERKS3_PS3_
829:__ZN6google8protobuf22ServiceDescriptorProtoC2Ev
830:__ZN6google8protobuf24EnumValueDescriptorProtoD2Ev
831:__ZN6google8protobuf24EnumValueDescriptorProtoD0Ev
832:__ZNK6google8protobuf24EnumValueDescriptorProto3NewEPNS0_5ArenaE
833:__ZN6google8protobuf24EnumValueDescriptorProto5ClearEv
834:__ZNK6google8protobuf24EnumValueDescriptorProto13IsInitializedEv
835:__ZN6google8protobuf24EnumValueDescriptorProto27MergePartialFromCodedStreamEPNS0_2io16CodedInputStreamE
836:__ZNK6google8protobuf24EnumValueDescriptorProto12ByteSizeLongEv
837:__ZNK6google8protobuf24EnumValueDescriptorProto24SerializeWithCachedSizesEPNS0_2io17CodedOutputStreamE
838:__ZNK6google8protobuf24EnumValueDescriptorProto39InternalSerializeWithCachedSizesToArrayEbPh
839:__ZN6google8protobuf24EnumValueDescriptorProto9MergeFromERKNS0_7MessageE
840:__ZNK6google8protobuf24EnumValueDescriptorProto11GetMetadataEv
841:__ZN6google8protobuf24EnumValueDescriptorProto15UnsafeMergeFromERKS1_
842:__ZN6google8protobuf24EnumValueDescriptorProtoC2Ev
843:__ZN6google8protobuf19EnumDescriptorProtoD2Ev
844:__ZN6google8protobuf19EnumDescriptorProtoD0Ev
845:__ZNK6google8protobuf19EnumDescriptorProto3NewEPNS0_5ArenaE
846:__ZN6google8protobuf19EnumDescriptorProto5ClearEv
847:__ZN6google8protobuf19EnumDescriptorProto27MergePartialFromCodedStreamEPNS0_2io16CodedInputStreamE
848:__ZNK6google8protobuf19EnumDescriptorProto12ByteSizeLongEv
849:__ZN6google8protobuf19EnumDescriptorProto9MergeFromERKNS0_7MessageE
850:__ZNK6google8protobuf19EnumDescriptorProto11GetMetadataEv
851:__ZN6google8protobuf19EnumDescriptorProto15UnsafeMergeFromERKS1_
852:__ZN6google8protobuf16RepeatedPtrFieldINS0_24EnumValueDescriptorProtoEE9MergeFromERKS3_
853:__ZN6google8protobuf11EnumOptions9MergeFromERKS1_
854:__ZN6google8protobuf8internal18GenericTypeHandlerINS0_24EnumValueDescriptorProtoEE5MergeERKS3_PS3_
855:__ZN6google8protobuf19EnumDescriptorProtoC2Ev
856:__ZN6google8protobuf20OneofDescriptorProtoD2Ev
857:__ZN6google8protobuf20OneofDescriptorProtoD0Ev
858:__ZNK6google8protobuf20OneofDescriptorProto3NewEPNS0_5ArenaE
859:__ZN6google8protobuf20OneofDescriptorProto5ClearEv
860:__ZNK6google8protobuf20OneofDescriptorProto13IsInitializedEv
861:__ZN6google8protobuf20OneofDescriptorProto27MergePartialFromCodedStreamEPNS0_2io16CodedInputStreamE
862:__ZNK6google8protobuf20OneofDescriptorProto12ByteSizeLongEv
863:__ZNK6google8protobuf20OneofDescriptorProto24SerializeWithCachedSizesEPNS0_2io17CodedOutputStreamE
864:__ZNK6google8protobuf20OneofDescriptorProto39InternalSerializeWithCachedSizesToArrayEbPh
865:__ZN6google8protobuf20OneofDescriptorProto9MergeFromERKNS0_7MessageE
866:__ZNK6google8protobuf20OneofDescriptorProto11GetMetadataEv
867:__ZN6google8protobuf20OneofDescriptorProto15UnsafeMergeFromERKS1_
868:__ZN6google8protobuf20OneofDescriptorProtoC2Ev
869:__ZN6google8protobuf20FieldDescriptorProtoD2Ev
870:__ZN6google8protobuf20FieldDescriptorProtoD0Ev
871:__ZNK6google8protobuf20FieldDescriptorProto3NewEPNS0_5ArenaE
872:__ZN6google8protobuf20FieldDescriptorProto5ClearEv
873:__ZNK6google8protobuf20FieldDescriptorProto13IsInitializedEv
874:__ZN6google8protobuf20FieldDescriptorProto27MergePartialFromCodedStreamEPNS0_2io16CodedInputStreamE
875:__ZNK6google8protobuf20FieldDescriptorProto12ByteSizeLongEv
876:__ZNK6google8protobuf20FieldDescriptorProto24SerializeWithCachedSizesEPNS0_2io17CodedOutputStreamE
877:__ZNK6google8protobuf20FieldDescriptorProto39InternalSerializeWithCachedSizesToArrayEbPh
878:__ZN6google8protobuf20FieldDescriptorProto9MergeFromERKNS0_7MessageE
879:__ZNK6google8protobuf20FieldDescriptorProto11GetMetadataEv
880:__ZN6google8protobuf20FieldDescriptorProto15UnsafeMergeFromERKS1_
881:__ZN6google8protobuf20FieldDescriptorProtoC2Ev
882:__ZN6google8protobuf20FieldDescriptorProto10SharedDtorEv
883:__ZN6google8protobuf29DescriptorProto_ReservedRangeD2Ev
884:__ZN6google8protobuf29DescriptorProto_ReservedRangeD0Ev
885:__ZNK6google8protobuf29DescriptorProto_ReservedRange3NewEPNS0_5ArenaE
886:__ZN6google8protobuf29DescriptorProto_ReservedRange5ClearEv
887:__ZN6google8protobuf29DescriptorProto_ReservedRange27MergePartialFromCodedStreamEPNS0_2io16CodedInputStreamE
888:__ZNK6google8protobuf29DescriptorProto_ReservedRange12ByteSizeLongEv
889:__ZNK6google8protobuf29DescriptorProto_ReservedRange24SerializeWithCachedSizesEPNS0_2io17CodedOutputStreamE
890:__ZNK6google8protobuf29DescriptorProto_ReservedRange39InternalSerializeWithCachedSizesToArrayEbPh
891:__ZN6google8protobuf29DescriptorProto_ReservedRange9MergeFromERKNS0_7MessageE
892:__ZNK6google8protobuf29DescriptorProto_ReservedRange11GetMetadataEv
893:__ZN6google8protobuf29DescriptorProto_ReservedRangeC2Ev
894:__ZN6google8protobuf30DescriptorProto_ExtensionRangeD2Ev
895:__ZN6google8protobuf30DescriptorProto_ExtensionRangeD0Ev
896:__ZNK6google8protobuf30DescriptorProto_ExtensionRange3NewEPNS0_5ArenaE
897:__ZN6google8protobuf30DescriptorProto_ExtensionRange9MergeFromERKNS0_7MessageE
898:__ZNK6google8protobuf30DescriptorProto_ExtensionRange11GetMetadataEv
899:__ZN6google8protobuf30DescriptorProto_ExtensionRangeC2Ev
900:__ZN6google8protobuf15DescriptorProtoD2Ev
901:__ZN6google8protobuf15DescriptorProtoD0Ev
902:__ZNK6google8protobuf15DescriptorProto3NewEPNS0_5ArenaE
903:__ZN6google8protobuf15DescriptorProto5ClearEv
904:__ZNK6google8protobuf15DescriptorProto13IsInitializedEv
905:__ZN6google8protobuf15DescriptorProto27MergePartialFromCodedStreamEPNS0_2io16CodedInputStreamE
906:__ZNK6google8protobuf15DescriptorProto12ByteSizeLongEv
907:__ZNK6google8protobuf15DescriptorProto24SerializeWithCachedSizesEPNS0_2io17CodedOutputStreamE
908:__ZNK6google8protobuf15DescriptorProto39InternalSerializeWithCachedSizesToArrayEbPh
909:__ZN6google8protobuf15DescriptorProto9MergeFromERKNS0_7MessageE
910:__ZNK6google8protobuf15DescriptorProto11GetMetadataEv
911:__ZN6google8protobuf15DescriptorProto15UnsafeMergeFromERKS1_
912:__ZN6google8protobuf16RepeatedPtrFieldINS0_20FieldDescriptorProtoEE9MergeFromERKS3_
913:__ZN6google8protobuf16RepeatedPtrFieldINS0_15DescriptorProtoEE9MergeFromERKS3_
914:__ZN6google8protobuf16RepeatedPtrFieldINS0_19EnumDescriptorProtoEE9MergeFromERKS3_
915:__ZN6google8protobuf16RepeatedPtrFieldINS0_30DescriptorProto_ExtensionRangeEE9MergeFromERKS3_
916:__ZN6google8protobuf16RepeatedPtrFieldINS0_20OneofDescriptorProtoEE9MergeFromERKS3_
917:__ZN6google8protobuf16RepeatedPtrFieldINS0_29DescriptorProto_ReservedRangeEE9MergeFromERKS3_
918:__ZN6google8protobuf8internal18GenericTypeHandlerINS0_29DescriptorProto_ReservedRangeEE5MergeERKS3_PS3_
919:__ZN6google8protobuf8internal18GenericTypeHandlerINS0_20OneofDescriptorProtoEE5MergeERKS3_PS3_
920:__ZN6google8protobuf8internal18GenericTypeHandlerINS0_30DescriptorProto_ExtensionRangeEE5MergeERKS3_PS3_
921:__ZN6google8protobuf8internal18GenericTypeHandlerINS0_19EnumDescriptorProtoEE5MergeERKS3_PS3_
922:__ZN6google8protobuf8internal18GenericTypeHandlerINS0_15DescriptorProtoEE5MergeERKS3_PS3_
923:__ZN6google8protobuf8internal18GenericTypeHandlerINS0_20FieldDescriptorProtoEE5MergeERKS3_PS3_
924:__ZN6google8protobuf15DescriptorProtoC2Ev
925:__ZN6google8protobuf19FileDescriptorProtoD2Ev
926:__ZN6google8protobuf19FileDescriptorProtoD0Ev
927:__ZNK6google8protobuf19FileDescriptorProto3NewEPNS0_5ArenaE
928:__ZN6google8protobuf19FileDescriptorProto5ClearEv
929:__ZNK6google8protobuf19FileDescriptorProto13IsInitializedEv
930:__ZN6google8protobuf19FileDescriptorProto27MergePartialFromCodedStreamEPNS0_2io16CodedInputStreamE
931:__ZNK6google8protobuf19FileDescriptorProto12ByteSizeLongEv
932:__ZNK6google8protobuf19FileDescriptorProto24SerializeWithCachedSizesEPNS0_2io17CodedOutputStreamE
933:__ZNK6google8protobuf19FileDescriptorProto39InternalSerializeWithCachedSizesToArrayEbPh
934:__ZN6google8protobuf19FileDescriptorProto9MergeFromERKNS0_7MessageE
935:__ZNK6google8protobuf19FileDescriptorProto11GetMetadataEv
936:__ZN6google8protobuf19FileDescriptorProto15UnsafeMergeFromERKS1_
937:__ZN6google8protobuf16RepeatedPtrFieldINS0_22ServiceDescriptorProtoEE9MergeFromERKS3_
938:__ZN6google8protobuf8internal18GenericTypeHandlerINS0_22ServiceDescriptorProtoEE5MergeERKS3_PS3_
939:__ZN6google8protobuf8internal14WireFormatLite27ReadPackedPrimitiveNoInlineIiLNS2_9FieldTypeE5EEEbPNS0_2io16CodedInputStreamEPNS0_13RepeatedFieldIT_EE
940:__ZN6google8protobuf19FileDescriptorProtoC2Ev
941:__ZN6google8protobuf19FileDescriptorProto10SharedDtorEv
942:__ZN6google8protobuf16RepeatedPtrFieldINS0_19FileDescriptorProtoEE9MergeFromERKS3_
943:__ZN6google8protobuf8internal18GenericTypeHandlerINS0_19FileDescriptorProtoEE5MergeERKS3_PS3_
944:__ZN6google8protobuf8internal18GenericTypeHandlerINS0_19FileDescriptorProtoEE16NewFromPrototypeEPKS3_PNS0_5ArenaE
945:__ZN6google8protobuf5Arena18CreateMaybeMessageINS0_19FileDescriptorProtoEEEPT_PS1_z
946:__ZN6google8protobuf17FileDescriptorSetC2Ev
947:__GLOBAL__sub_I_descriptor_pb_cc
948:__ZN6google8protobuf11FileOptions8CopyFromERKS1_
949:__ZN6google8protobuf14MessageOptions8CopyFromERKS1_
950:__ZN6google8protobuf12FieldOptions8CopyFromERKS1_
951:__ZN6google8protobuf12OneofOptions8CopyFromERKS1_
952:__ZN6google8protobuf11EnumOptions8CopyFromERKS1_
953:__ZN6google8protobuf16EnumValueOptions8CopyFromERKS1_
954:__ZN6google8protobuf14SourceCodeInfo8CopyFromERKS1_
955:__ZN6google8protobuf8DurationD2Ev
956:__ZN6google8protobuf8DurationD0Ev
957:__ZNK6google8protobuf8Duration3NewEPNS0_5ArenaE
958:__ZNK6google8protobuf8Duration8GetArenaEv
959:__ZNK6google8protobuf8Duration20GetMaybeArenaPointerEv
960:__ZN6google8protobuf8Duration5ClearEv
961:__ZN6google8protobuf8Duration27MergePartialFromCodedStreamEPNS0_2io16CodedInputStreamE
962:__ZNK6google8protobuf8Duration12ByteSizeLongEv
963:__ZNK6google8protobuf8Duration24SerializeWithCachedSizesEPNS0_2io17CodedOutputStreamE
964:__ZNK6google8protobuf8Duration13GetCachedSizeEv
965:__ZNK6google8protobuf8Duration39InternalSerializeWithCachedSizesToArrayEbPh
966:__ZN6google8protobuf8Duration9MergeFromERKNS0_7MessageE
967:__ZNK6google8protobuf8Duration13SetCachedSizeEi
968:__ZNK6google8protobuf8Duration11GetMetadataEv
969:__ZN6google8protobuf56protobuf_AssignDesc_google_2fprotobuf_2fduration_2eprotoEv
970:__ZN6google8protobuf58protobuf_AddDesc_google_2fprotobuf_2fduration_2eproto_implEv
971:__ZN6google8protobuf63protobuf_InitDefaults_google_2fprotobuf_2fduration_2eproto_implEv
972:__ZN6google8protobuf12_GLOBAL__N_122protobuf_RegisterTypesERKNSt3__212basic_stringIcNS2_11char_traitsIcEENS2_9allocatorIcEEEE_531
973:__ZN6google8protobuf58protobuf_ShutdownFile_google_2fprotobuf_2fduration_2eprotoEv
974:__ZN6google8protobuf8DurationC2Ev
975:__GLOBAL__sub_I_duration_pb_cc
976:__ZN6google8protobuf14DynamicMessageD2Ev
977:__ZN6google8protobuf14DynamicMessageD0Ev
978:__ZNK6google8protobuf14DynamicMessage3NewEv
979:__ZNK6google8protobuf14DynamicMessage3NewEPNS0_5ArenaE
980:__ZNK6google8protobuf14DynamicMessage13GetCachedSizeEv
981:__ZNK6google8protobuf14DynamicMessage13SetCachedSizeEi
982:__ZNK6google8protobuf14DynamicMessage11GetMetadataEv
983:__ZN6google8protobuf14DynamicMessage10SharedCtorEv
984:__ZN6google8protobuf21DynamicMessageFactory18GetPrototypeNoLockEPKNS0_10DescriptorE
985:__ZNSt3__213unordered_mapIPKN6google8protobuf10DescriptorEPKNS2_14DynamicMessage8TypeInfoENS2_4hashIS5_EENS_8equal_toIS5_EENS_9allocatorINS_4pairIKS5_S9_EEEEEixERSG_
986:__ZN6google8protobuf21DynamicMessageFactory29ConstructDefaultOneofInstanceEPKNS0_10DescriptorEPKiPv
987:__ZN6google8protobuf14DynamicMessage19CrossLinkPrototypesEv
988:__ZNSt3__212__hash_tableINS_17__hash_value_typeIPKN6google8protobuf10DescriptorEPKNS3_14DynamicMessage8TypeInfoEEENS_22__unordered_map_hasherIS6_SB_NS3_4hashIS6_EELb1EEENS_21__unordered_map_equalIS6_SB_NS_8equal_toIS6_EELb1EEENS_9allocatorISB_EEE20__node_insert_uniqueEPNS_11__hash_nodeISB_PvEE
989:__ZNSt3__212__hash_tableINS_17__hash_value_typeIPKN6google8protobuf10DescriptorEPKNS3_14DynamicMessage8TypeInfoEEENS_22__unordered_map_hasherIS6_SB_NS3_4hashIS6_EELb1EEENS_21__unordered_map_equalIS6_SB_NS_8equal_toIS6_EELb1EEENS_9allocatorISB_EEE6rehashEj
990:__ZNSt3__212__hash_tableINS_17__hash_value_typeIPKN6google8protobuf10DescriptorEPKNS3_14DynamicMessage8TypeInfoEEENS_22__unordered_map_hasherIS6_SB_NS3_4hashIS6_EELb1EEENS_21__unordered_map_equalIS6_SB_NS_8equal_toIS6_EELb1EEENS_9allocatorISB_EEE8__rehashEj
991:__ZN6google8protobuf21DynamicMessageFactoryD2Ev
992:__ZN6google8protobuf21DynamicMessageFactoryD0Ev
993:__ZN6google8protobuf21DynamicMessageFactory12GetPrototypeEPKNS0_10DescriptorE
994:__ZN6google8protobuf14DynamicMessage8TypeInfoD2Ev
995:__ZN6google8protobuf21DynamicMessageFactoryC2Ev
996:__ZN6google8protobuf5EmptyD2Ev
997:__ZN6google8protobuf5EmptyD0Ev
998:__ZNK6google8protobuf5Empty3NewEPNS0_5ArenaE
999:__ZN6google8protobuf5Empty27MergePartialFromCodedStreamEPNS0_2io16CodedInputStreamE
1000:__ZNK6google8protobuf5Empty12ByteSizeLongEv
1001:__ZNK6google8protobuf5Empty24SerializeWithCachedSizesEPNS0_2io17CodedOutputStreamE
1002:__ZNK6google8protobuf5Empty39InternalSerializeWithCachedSizesToArrayEbPh
1003:__ZN6google8protobuf5Empty9MergeFromERKNS0_7MessageE
1004:__ZNK6google8protobuf5Empty11GetMetadataEv
1005:__ZN6google8protobuf53protobuf_AssignDesc_google_2fprotobuf_2fempty_2eprotoEv
1006:__ZN6google8protobuf55protobuf_AddDesc_google_2fprotobuf_2fempty_2eproto_implEv
1007:__ZN6google8protobuf60protobuf_InitDefaults_google_2fprotobuf_2fempty_2eproto_implEv
1008:__ZN6google8protobuf12_GLOBAL__N_122protobuf_RegisterTypesERKNSt3__212basic_stringIcNS2_11char_traitsIcEENS2_9allocatorIcEEEE_549
1009:__ZN6google8protobuf55protobuf_ShutdownFile_google_2fprotobuf_2fempty_2eprotoEv
1010:__ZN6google8protobuf5EmptyC2Ev
1011:__GLOBAL__sub_I_empty_pb_cc
1012:__ZN6google8protobuf8internal29DescriptorPoolExtensionFinder4FindEiPNS1_13ExtensionInfoE
1013:__ZN6google8protobuf8internalL27ValidateEnumUsingDescriptorEPKvi
1014:__ZNK6google8protobuf8internal12ExtensionSet12AppendToListEPKNS0_10DescriptorEPKNS0_14DescriptorPoolEPNSt3__26vectorIPKNS0_15FieldDescriptorENS9_9allocatorISD_EEEE
1015:__ZNK6google8protobuf8internal12ExtensionSet10GetMessageEiPKNS0_10DescriptorEPNS0_14MessageFactoryE
1016:__ZN6google8protobuf8internal12ExtensionSet14MutableMessageEPKNS0_15FieldDescriptorEPNS0_14MessageFactoryE
1017:__ZN6google8protobuf8internal12ExtensionSet25UnsafeArenaReleaseMessageEPKNS0_15FieldDescriptorEPNS0_14MessageFactoryE
1018:__ZN6google8protobuf8internal12ExtensionSet25MaybeNewRepeatedExtensionEPKNS0_15FieldDescriptorE
1019:__ZN6google8protobuf8internal12ExtensionSet10AddMessageEPKNS0_15FieldDescriptorEPNS0_14MessageFactoryE
1020:__ZN6google8protobuf8internal12ExtensionSet10ParseFieldEjPNS0_2io16CodedInputStreamEPKNS0_7MessageEPNS0_15UnknownFieldSetE
1021:__ZNK6google8protobuf8internal12ExtensionSet22SpaceUsedExcludingSelfEv
1022:__ZNK6google8protobuf8internal12ExtensionSet9Extension22SpaceUsedExcludingSelfEv
1023:__ZNK6google8protobuf8internal12ExtensionSet9Extension44InternalSerializeFieldWithCachedSizesToArrayEibPh
1024:__ZNK6google8protobuf8internal12ExtensionSet39InternalSerializeWithCachedSizesToArrayEiibPh
1025:__ZN6google8protobuf9FieldMaskD2Ev
1026:__ZN6google8protobuf9FieldMaskD0Ev
1027:__ZNK6google8protobuf9FieldMask3NewEPNS0_5ArenaE
1028:__ZN6google8protobuf9FieldMask5ClearEv
1029:__ZN6google8protobuf9FieldMask27MergePartialFromCodedStreamEPNS0_2io16CodedInputStreamE
1030:__ZNK6google8protobuf9FieldMask12ByteSizeLongEv
1031:__ZNK6google8protobuf9FieldMask24SerializeWithCachedSizesEPNS0_2io17CodedOutputStreamE
1032:__ZNK6google8protobuf9FieldMask13GetCachedSizeEv
1033:__ZNK6google8protobuf9FieldMask39InternalSerializeWithCachedSizesToArrayEbPh
1034:__ZN6google8protobuf9FieldMask9MergeFromERKNS0_7MessageE
1035:__ZNK6google8protobuf9FieldMask13SetCachedSizeEi
1036:__ZNK6google8protobuf9FieldMask11GetMetadataEv
1037:__ZN6google8protobuf60protobuf_AssignDesc_google_2fprotobuf_2ffield_5fmask_2eprotoEv
1038:__ZN6google8protobuf62protobuf_AddDesc_google_2fprotobuf_2ffield_5fmask_2eproto_implEv
1039:__ZN6google8protobuf67protobuf_InitDefaults_google_2fprotobuf_2ffield_5fmask_2eproto_implEv
1040:__ZN6google8protobuf12_GLOBAL__N_122protobuf_RegisterTypesERKNSt3__212basic_stringIcNS2_11char_traitsIcEENS2_9allocatorIcEEEE_567
1041:__ZN6google8protobuf62protobuf_ShutdownFile_google_2fprotobuf_2ffield_5fmask_2eprotoEv
1042:__ZN6google8protobuf9FieldMaskC2Ev
1043:__GLOBAL__sub_I_field_mask_pb_cc
1044:__ZNK6google8protobuf8internal26GeneratedMessageReflection16GetUnknownFieldsERKNS0_7MessageE
1045:__ZNK6google8protobuf8internal26GeneratedMessageReflection20MutableUnknownFieldsEPNS0_7MessageE
1046:__ZNK6google8protobuf8internal26GeneratedMessageReflection9SpaceUsedERKNS0_7MessageE
1047:__ZNK6google8protobuf8internal26GeneratedMessageReflection8HasFieldERKNS0_7MessageEPKNS0_15FieldDescriptorE
1048:__ZNK6google8protobuf8internal26GeneratedMessageReflection9FieldSizeERKNS0_7MessageEPKNS0_15FieldDescriptorE
1049:__ZNK6google8protobuf8internal26GeneratedMessageReflection10ClearFieldEPNS0_7MessageEPKNS0_15FieldDescriptorE
1050:__ZNK6google8protobuf8internal26GeneratedMessageReflection8HasOneofERKNS0_7MessageEPKNS0_15OneofDescriptorE
1051:__ZNK6google8protobuf8internal26GeneratedMessageReflection10ClearOneofEPNS0_7MessageEPKNS0_15OneofDescriptorE
1052:__ZNK6google8protobuf8internal26GeneratedMessageReflection23GetOneofFieldDescriptorERKNS0_7MessageEPKNS0_15OneofDescriptorE
1053:__ZNK6google8protobuf8internal26GeneratedMessageReflection10RemoveLastEPNS0_7MessageEPKNS0_15FieldDescriptorE
1054:__ZNK6google8protobuf8internal26GeneratedMessageReflection11ReleaseLastEPNS0_7MessageEPKNS0_15FieldDescriptorE
1055:__ZNK6google8protobuf8internal26GeneratedMessageReflection4SwapEPNS0_7MessageES4_
1056:__ZNK6google8protobuf8internal26GeneratedMessageReflection10SwapFieldsEPNS0_7MessageES4_RKNSt3__26vectorIPKNS0_15FieldDescriptorENS5_9allocatorIS9_EEEE
1057:__ZNK6google8protobuf8internal26GeneratedMessageReflection12SwapElementsEPNS0_7MessageEPKNS0_15FieldDescriptorEii
1058:__ZNK6google8protobuf8internal26GeneratedMessageReflection10ListFieldsERKNS0_7MessageEPNSt3__26vectorIPKNS0_15FieldDescriptorENS6_9allocatorISA_EEEE
1059:__ZNK6google8protobuf8internal26GeneratedMessageReflection8GetInt32ERKNS0_7MessageEPKNS0_15FieldDescriptorE
1060:__ZNK6google8protobuf8internal26GeneratedMessageReflection8GetInt64ERKNS0_7MessageEPKNS0_15FieldDescriptorE
1061:__ZNK6google8protobuf8internal26GeneratedMessageReflection9GetUInt32ERKNS0_7MessageEPKNS0_15FieldDescriptorE
1062:__ZNK6google8protobuf8internal26GeneratedMessageReflection9GetUInt64ERKNS0_7MessageEPKNS0_15FieldDescriptorE
1063:__ZNK6google8protobuf8internal26GeneratedMessageReflection8GetFloatERKNS0_7MessageEPKNS0_15FieldDescriptorE
1064:__ZNK6google8protobuf8internal26GeneratedMessageReflection9GetDoubleERKNS0_7MessageEPKNS0_15FieldDescriptorE
1065:__ZNK6google8protobuf8internal26GeneratedMessageReflection7GetBoolERKNS0_7MessageEPKNS0_15FieldDescriptorE
1066:__ZNK6google8protobuf8internal26GeneratedMessageReflection9GetStringERKNS0_7MessageEPKNS0_15FieldDescriptorE
1067:__ZNK6google8protobuf8internal26GeneratedMessageReflection7GetEnumERKNS0_7MessageEPKNS0_15FieldDescriptorE
1068:__ZNK6google8protobuf8internal26GeneratedMessageReflection12GetEnumValueERKNS0_7MessageEPKNS0_15FieldDescriptorE
1069:__ZNK6google8protobuf8internal26GeneratedMessageReflection10GetMessageERKNS0_7MessageEPKNS0_15FieldDescriptorEPNS0_14MessageFactoryE
1070:__ZNK6google8protobuf8internal26GeneratedMessageReflection18GetStringReferenceERKNS0_7MessageEPKNS0_15FieldDescriptorEPNSt3__212basic_stringIcNS9_11char_traitsIcEENS9_9allocatorIcEEEE
1071:__ZNK6google8protobuf8internal26GeneratedMessageReflection8SetInt32EPNS0_7MessageEPKNS0_15FieldDescriptorEi
1072:__ZNK6google8protobuf8internal26GeneratedMessageReflection8SetInt64EPNS0_7MessageEPKNS0_15FieldDescriptorEx
1073:__ZNK6google8protobuf8internal26GeneratedMessageReflection9SetUInt32EPNS0_7MessageEPKNS0_15FieldDescriptorEj
1074:__ZNK6google8protobuf8internal26GeneratedMessageReflection9SetUInt64EPNS0_7MessageEPKNS0_15FieldDescriptorEy
1075:__ZNK6google8protobuf8internal26GeneratedMessageReflection8SetFloatEPNS0_7MessageEPKNS0_15FieldDescriptorEf
1076:__ZNK6google8protobuf8internal26GeneratedMessageReflection9SetDoubleEPNS0_7MessageEPKNS0_15FieldDescriptorEd
1077:__ZNK6google8protobuf8internal26GeneratedMessageReflection7SetBoolEPNS0_7MessageEPKNS0_15FieldDescriptorEb
1078:__ZNK6google8protobuf8internal26GeneratedMessageReflection9SetStringEPNS0_7MessageEPKNS0_15FieldDescriptorERKNSt3__212basic_stringIcNS8_11char_traitsIcEENS8_9allocatorIcEEEE
1079:__ZNK6google8protobuf8internal26GeneratedMessageReflection7SetEnumEPNS0_7MessageEPKNS0_15FieldDescriptorEPKNS0_19EnumValueDescriptorE
1080:__ZNK6google8protobuf8internal26GeneratedMessageReflection12SetEnumValueEPNS0_7MessageEPKNS0_15FieldDescriptorEi
1081:__ZNK6google8protobuf8internal26GeneratedMessageReflection14MutableMessageEPNS0_7MessageEPKNS0_15FieldDescriptorEPNS0_14MessageFactoryE
1082:__ZNK6google8protobuf8internal26GeneratedMessageReflection19SetAllocatedMessageEPNS0_7MessageES4_PKNS0_15FieldDescriptorE
1083:__ZNK6google8protobuf8internal26GeneratedMessageReflection14ReleaseMessageEPNS0_7MessageEPKNS0_15FieldDescriptorEPNS0_14MessageFactoryE
1084:__ZNK6google8protobuf8internal26GeneratedMessageReflection16GetRepeatedInt32ERKNS0_7MessageEPKNS0_15FieldDescriptorEi
1085:__ZNK6google8protobuf8internal26GeneratedMessageReflection16GetRepeatedInt64ERKNS0_7MessageEPKNS0_15FieldDescriptorEi
1086:__ZNK6google8protobuf8internal26GeneratedMessageReflection17GetRepeatedUInt32ERKNS0_7MessageEPKNS0_15FieldDescriptorEi
1087:__ZNK6google8protobuf8internal26GeneratedMessageReflection17GetRepeatedUInt64ERKNS0_7MessageEPKNS0_15FieldDescriptorEi
1088:__ZNK6google8protobuf8internal26GeneratedMessageReflection16GetRepeatedFloatERKNS0_7MessageEPKNS0_15FieldDescriptorEi
1089:__ZNK6google8protobuf8internal26GeneratedMessageReflection17GetRepeatedDoubleERKNS0_7MessageEPKNS0_15FieldDescriptorEi
1090:__ZNK6google8protobuf8internal26GeneratedMessageReflection15GetRepeatedBoolERKNS0_7MessageEPKNS0_15FieldDescriptorEi
1091:__ZNK6google8protobuf8internal26GeneratedMessageReflection17GetRepeatedStringERKNS0_7MessageEPKNS0_15FieldDescriptorEi
1092:__ZNK6google8protobuf8internal26GeneratedMessageReflection15GetRepeatedEnumERKNS0_7MessageEPKNS0_15FieldDescriptorEi
1093:__ZNK6google8protobuf8internal26GeneratedMessageReflection20GetRepeatedEnumValueERKNS0_7MessageEPKNS0_15FieldDescriptorEi
1094:__ZNK6google8protobuf8internal26GeneratedMessageReflection18GetRepeatedMessageERKNS0_7MessageEPKNS0_15FieldDescriptorEi
1095:__ZNK6google8protobuf8internal26GeneratedMessageReflection26GetRepeatedStringReferenceERKNS0_7MessageEPKNS0_15FieldDescriptorEiPNSt3__212basic_stringIcNS9_11char_traitsIcEENS9_9allocatorIcEEEE
1096:__ZNK6google8protobuf8internal26GeneratedMessageReflection16SetRepeatedInt32EPNS0_7MessageEPKNS0_15FieldDescriptorEii
1097:__ZNK6google8protobuf8internal26GeneratedMessageReflection16SetRepeatedInt64EPNS0_7MessageEPKNS0_15FieldDescriptorEix
1098:__ZNK6google8protobuf8internal26GeneratedMessageReflection17SetRepeatedUInt32EPNS0_7MessageEPKNS0_15FieldDescriptorEij
1099:__ZNK6google8protobuf8internal26GeneratedMessageReflection17SetRepeatedUInt64EPNS0_7MessageEPKNS0_15FieldDescriptorEiy
1100:__ZNK6google8protobuf8internal26GeneratedMessageReflection16SetRepeatedFloatEPNS0_7MessageEPKNS0_15FieldDescriptorEif
1101:__ZNK6google8protobuf8internal26GeneratedMessageReflection17SetRepeatedDoubleEPNS0_7MessageEPKNS0_15FieldDescriptorEid
1102:__ZNK6google8protobuf8internal26GeneratedMessageReflection15SetRepeatedBoolEPNS0_7MessageEPKNS0_15FieldDescriptorEib
1103:__ZNK6google8protobuf8internal26GeneratedMessageReflection17SetRepeatedStringEPNS0_7MessageEPKNS0_15FieldDescriptorEiRKNSt3__212basic_stringIcNS8_11char_traitsIcEENS8_9allocatorIcEEEE
1104:__ZNK6google8protobuf8internal26GeneratedMessageReflection15SetRepeatedEnumEPNS0_7MessageEPKNS0_15FieldDescriptorEiPKNS0_19EnumValueDescriptorE
1105:__ZNK6google8protobuf8internal26GeneratedMessageReflection20SetRepeatedEnumValueEPNS0_7MessageEPKNS0_15FieldDescriptorEii
1106:__ZNK6google8protobuf8internal26GeneratedMessageReflection22MutableRepeatedMessageEPNS0_7MessageEPKNS0_15FieldDescriptorEi
1107:__ZNK6google8protobuf8internal26GeneratedMessageReflection8AddInt32EPNS0_7MessageEPKNS0_15FieldDescriptorEi
1108:__ZNK6google8protobuf8internal26GeneratedMessageReflection8AddInt64EPNS0_7MessageEPKNS0_15FieldDescriptorEx
1109:__ZNK6google8protobuf8internal26GeneratedMessageReflection9AddUInt32EPNS0_7MessageEPKNS0_15FieldDescriptorEj
1110:__ZNK6google8protobuf8internal26GeneratedMessageReflection9AddUInt64EPNS0_7MessageEPKNS0_15FieldDescriptorEy
1111:__ZNK6google8protobuf8internal26GeneratedMessageReflection8AddFloatEPNS0_7MessageEPKNS0_15FieldDescriptorEf
1112:__ZNK6google8protobuf8internal26GeneratedMessageReflection9AddDoubleEPNS0_7MessageEPKNS0_15FieldDescriptorEd
1113:__ZNK6google8protobuf8internal26GeneratedMessageReflection7AddBoolEPNS0_7MessageEPKNS0_15FieldDescriptorEb
1114:__ZNK6google8protobuf8internal26GeneratedMessageReflection9AddStringEPNS0_7MessageEPKNS0_15FieldDescriptorERKNSt3__212basic_stringIcNS8_11char_traitsIcEENS8_9allocatorIcEEEE
1115:__ZNK6google8protobuf8internal26GeneratedMessageReflection7AddEnumEPNS0_7MessageEPKNS0_15FieldDescriptorEPKNS0_19EnumValueDescriptorE
1116:__ZNK6google8protobuf8internal26GeneratedMessageReflection12AddEnumValueEPNS0_7MessageEPKNS0_15FieldDescriptorEi
1117:__ZNK6google8protobuf8internal26GeneratedMessageReflection10AddMessageEPNS0_7MessageEPKNS0_15FieldDescriptorEPNS0_14MessageFactoryE
1118:__ZNK6google8protobuf8internal26GeneratedMessageReflection19AddAllocatedMessageEPNS0_7MessageEPKNS0_15FieldDescriptorES4_
1119:__ZNK6google8protobuf8internal26GeneratedMessageReflection24FindKnownExtensionByNameERKNSt3__212basic_stringIcNS3_11char_traitsIcEENS3_9allocatorIcEEEE
1120:__ZNK6google8protobuf8internal26GeneratedMessageReflection26FindKnownExtensionByNumberEi
1121:__ZNK6google8protobuf8internal26GeneratedMessageReflection25SupportsUnknownEnumValuesEv
1122:__ZNK6google8protobuf8internal26GeneratedMessageReflection17GetMessageFactoryEv
1123:__ZNK6google8protobuf8internal26GeneratedMessageReflection23MutableRawRepeatedFieldEPNS0_7MessageEPKNS0_15FieldDescriptorENS5_7CppTypeEiPKNS0_10DescriptorE
1124:__ZNK6google8protobuf8internal26GeneratedMessageReflection19GetRawRepeatedFieldERKNS0_7MessageEPKNS0_15FieldDescriptorENS6_7CppTypeEiPKNS0_10DescriptorE
1125:__ZNK6google8protobuf8internal26GeneratedMessageReflection17RepeatedFieldDataEPNS0_7MessageEPKNS0_15FieldDescriptorENS5_7CppTypeEPKNS0_10DescriptorE
1126:__ZNK6google8protobuf8internal26GeneratedMessageReflection14ContainsMapKeyERKNS0_7MessageEPKNS0_15FieldDescriptorERKNS0_6MapKeyE
1127:__ZNK6google8protobuf8internal26GeneratedMessageReflection22InsertOrLookupMapValueEPNS0_7MessageEPKNS0_15FieldDescriptorERKNS0_6MapKeyEPNS0_11MapValueRefE
1128:__ZNK6google8protobuf8internal26GeneratedMessageReflection14DeleteMapValueEPNS0_7MessageEPKNS0_15FieldDescriptorERKNS0_6MapKeyE
1129:__ZNK6google8protobuf8internal26GeneratedMessageReflection8MapBeginEPNS0_7MessageEPKNS0_15FieldDescriptorE
1130:__ZNK6google8protobuf8internal26GeneratedMessageReflection6MapEndEPNS0_7MessageEPKNS0_15FieldDescriptorE
1131:__ZNK6google8protobuf8internal26GeneratedMessageReflection7MapSizeERKNS0_7MessageEPKNS0_15FieldDescriptorE
1132:__ZNK6google8protobuf8internal26GeneratedMessageReflection7MapDataEPNS0_7MessageEPKNS0_15FieldDescriptorE
1133:__ZN6google8protobuf8internal12_GLOBAL__N_126ReportReflectionUsageErrorEPKNS0_10DescriptorEPKNS0_15FieldDescriptorEPKcSA_
1134:__ZN6google8protobuf11MapIteratorC2EPNS0_7MessageEPKNS0_15FieldDescriptorE
1135:__ZN6google8protobuf8internal12_GLOBAL__N_1L30ReportReflectionUsageTypeErrorEPKNS0_10DescriptorEPKNS0_15FieldDescriptorEPKcNS6_7CppTypeE
1136:__ZN6google8protobuf8internal20RepeatedPtrFieldBase24AddAllocatedSlowWithCopyINS1_18GenericTypeHandlerINS0_7MessageEEEEEvPNT_4TypeEPNS0_5ArenaESB_
1137:__ZN6google8protobuf8internal18GenericTypeHandlerINS0_7MessageEE5MergeERKS3_PS3_
1138:__ZNK6google8protobuf8internal26GeneratedMessageReflection20AddEnumValueInternalEPNS0_7MessageEPKNS0_15FieldDescriptorEi
1139:__ZN6google8protobuf8internal12_GLOBAL__N_1L34ReportReflectionUsageEnumTypeErrorEPKNS0_10DescriptorEPKNS0_15FieldDescriptorEPKcPKNS0_19EnumValueDescriptorE
1140:__ZNK6google8protobuf8internal26GeneratedMessageReflection25UnsafeArenaReleaseMessageEPNS0_7MessageEPKNS0_15FieldDescriptorEPNS0_14MessageFactoryE
1141:__ZNK6google8protobuf8internal26GeneratedMessageReflection30UnsafeArenaSetAllocatedMessageEPNS0_7MessageES4_PKNS0_15FieldDescriptorE
1142:__ZNK6google8protobuf8internal26GeneratedMessageReflection8SetFieldIiEEvPNS0_7MessageEPKNS0_15FieldDescriptorERKT_
1143:__ZN6google8protobuf8internal14ArenaStringPtr14CreateInstanceEPNS0_5ArenaEPKNSt3__212basic_stringIcNS5_11char_traitsIcEENS5_9allocatorIcEEEE
1144:__ZN6google8protobuf5Arena3OwnINSt3__212basic_stringIcNS3_11char_traitsIcEENS3_9allocatorIcEEEEEEvPT_
1145:__ZN6google8protobuf8internal19arena_delete_objectINSt3__212basic_stringIcNS3_11char_traitsIcEENS3_9allocatorIcEEEEEEvPv
1146:__ZNK6google8protobuf8internal26GeneratedMessageReflection8SetFieldIbEEvPNS0_7MessageEPKNS0_15FieldDescriptorERKT_
1147:__ZNK6google8protobuf8internal26GeneratedMessageReflection8SetFieldIdEEvPNS0_7MessageEPKNS0_15FieldDescriptorERKT_
1148:__ZNK6google8protobuf8internal26GeneratedMessageReflection8SetFieldIyEEvPNS0_7MessageEPKNS0_15FieldDescriptorERKT_
1149:__ZNSt3__26vectorIPKN6google8protobuf15FieldDescriptorENS_9allocatorIS5_EEE7reserveEj
1150:__ZNK6google8protobuf8internal26GeneratedMessageReflection6HasBitERKNS0_7MessageEPKNS0_15FieldDescriptorE
1151:__ZNSt3__26__sortIRN6google8protobuf8internal12_GLOBAL__N_117FieldNumberSorterEPPKNS2_15FieldDescriptorEEEvT0_SB_T_
1152:__ZNSt3__27__sort5IRN6google8protobuf8internal12_GLOBAL__N_117FieldNumberSorterEPPKNS2_15FieldDescriptorEEEjT0_SB_SB_SB_SB_T_
1153:__ZNSt3__227__insertion_sort_incompleteIRN6google8protobuf8internal12_GLOBAL__N_117FieldNumberSorterEPPKNS2_15FieldDescriptorEEEbT0_SB_T_
1154:__ZNK6google8protobuf8internal26GeneratedMessageReflection14SwapOneofFieldEPNS0_7MessageES4_PKNS0_15OneofDescriptorE
1155:__ZNK6google8protobuf8internal26GeneratedMessageReflection7SwapBitEPNS0_7MessageES4_PKNS0_15FieldDescriptorE
1156:__ZNK6google8protobuf8internal26GeneratedMessageReflection9SwapFieldEPNS0_7MessageES4_PKNS0_15FieldDescriptorE
1157:__ZN6google8protobuf13RepeatedFieldIiE4SwapEPS2_
1158:__ZN6google8protobuf13RepeatedFieldIxE4SwapEPS2_
1159:__ZN6google8protobuf13RepeatedFieldIbE4SwapEPS2_
1160:__ZN6google8protobuf8internal20RepeatedPtrFieldBase12SwapFallbackINS1_18GenericTypeHandlerINSt3__212basic_stringIcNS5_11char_traitsIcEENS5_9allocatorIcEEEEEEEEvPS2_
1161:__ZN6google8protobuf8internal20RepeatedPtrFieldBase12SwapFallbackINS1_18GenericTypeHandlerINS0_7MessageEEEEEvPS2_
1162:__ZN6google8protobuf8internal20RepeatedPtrFieldBase9MergeFromINS1_18GenericTypeHandlerINS0_7MessageEEEEEvRKS2_
1163:__ZN6google8protobuf8internal20RepeatedPtrFieldBase9MergeFromINS1_18GenericTypeHandlerINSt3__212basic_stringIcNS5_11char_traitsIcEENS5_9allocatorIcEEEEEEEEvRKS2_
1164:__ZN6google8protobuf5Arena18CreateMaybeMessageINSt3__212basic_stringIcNS3_11char_traitsIcEENS3_9allocatorIcEEEEEEPT_PS1_z
1165:__ZN6google8protobuf8internal12_GLOBAL__N_124InitEmptyUnknownFieldSetEv
1166:__ZN6google8protobuf8internal12_GLOBAL__N_126DeleteEmptyUnknownFieldSetEv
1167:__ZN6google8protobuf8internal26GeneratedMessageReflectionC2EPKNS0_10DescriptorEPKNS0_7MessageEPKiiiiPKNS0_14DescriptorPoolEPNS0_14MessageFactoryEii
1168:__ZN6google8protobuf8internal26GeneratedMessageReflectionC2EPKNS0_10DescriptorEPKNS0_7MessageEPKiiiiPKviPKNS0_14DescriptorPoolEPNS0_14MessageFactoryEii
1169:__ZN6google8protobuf8internal26GeneratedMessageReflection29NewGeneratedMessageReflectionEPKNS0_10DescriptorEPKNS0_7MessageEPKiiiiPKviiii
1170:__ZN6google8protobuf8internal26GeneratedMessageReflection29NewGeneratedMessageReflectionEPKNS0_10DescriptorEPKNS0_7MessageEPKiiiiiii
1171:__ZN6google8protobuf8internal12MapFieldBaseD2Ev
1172:__ZN6google8protobuf8internal12MapFieldBaseD0Ev
1173:__ZNK6google8protobuf8internal12MapFieldBase28SpaceUsedExcludingSelfNoLockEv
1174:__ZNK6google8protobuf8internal12MapFieldBase30SyncRepeatedFieldWithMapNoLockEv
1175:__ZN6google8protobuf8internal15DynamicMapFieldD2Ev
1176:__ZN6google8protobuf8internal15DynamicMapFieldD0Ev
1177:__ZNK6google8protobuf8internal15DynamicMapField14ContainsMapKeyERKNS0_6MapKeyE
1178:__ZN6google8protobuf8internal15DynamicMapField22InsertOrLookupMapValueERKNS0_6MapKeyEPNS0_11MapValueRefE
1179:__ZN6google8protobuf8internal15DynamicMapField14DeleteMapValueERKNS0_6MapKeyE
1180:__ZNK6google8protobuf8internal23TypeDefinedMapFieldBaseINS0_6MapKeyENS0_11MapValueRefEE13EqualIteratorERKNS0_11MapIteratorES8_
1181:__ZNK6google8protobuf8internal23TypeDefinedMapFieldBaseINS0_6MapKeyENS0_11MapValueRefEE8MapBeginEPNS0_11MapIteratorE
1182:__ZNK6google8protobuf8internal23TypeDefinedMapFieldBaseINS0_6MapKeyENS0_11MapValueRefEE6MapEndEPNS0_11MapIteratorE
1183:__ZNK6google8protobuf8internal15DynamicMapField4sizeEv
1184:__ZNK6google8protobuf8internal15DynamicMapField28SpaceUsedExcludingSelfNoLockEv
1185:__ZNK6google8protobuf8internal15DynamicMapField30SyncRepeatedFieldWithMapNoLockEv
1186:__ZNK6google8protobuf8internal15DynamicMapField30SyncMapWithRepeatedFieldNoLockEv
1187:__ZNK6google8protobuf8internal23TypeDefinedMapFieldBaseINS0_6MapKeyENS0_11MapValueRefEE18InitializeIteratorEPNS0_11MapIteratorE
1188:__ZNK6google8protobuf8internal23TypeDefinedMapFieldBaseINS0_6MapKeyENS0_11MapValueRefEE14DeleteIteratorEPNS0_11MapIteratorE
1189:__ZNK6google8protobuf8internal23TypeDefinedMapFieldBaseINS0_6MapKeyENS0_11MapValueRefEE12CopyIteratorEPNS0_11MapIteratorERKS6_
1190:__ZNK6google8protobuf8internal23TypeDefinedMapFieldBaseINS0_6MapKeyENS0_11MapValueRefEE16IncreaseIteratorEPNS0_11MapIteratorE
1191:__ZNK6google8protobuf8internal15DynamicMapField6GetMapEv
1192:__ZN6google8protobuf8internal15DynamicMapField10MutableMapEv
1193:__ZNK6google8protobuf8internal15DynamicMapField19SetMapIteratorValueEPNS0_11MapIteratorE
1194:__ZN6google8protobuf6MapKey8CopyFromERKS1_
1195:__ZNK6google8protobuf6MapKey4typeEv
1196:__ZN6google8protobuf3MapINS0_6MapKeyENS0_11MapValueRefEE8InnerMap13iterator_baseIKNS4_12KeyValuePairEEppEv
1197:__ZNK6google8protobuf3MapINS0_6MapKeyENS0_11MapValueRefEE8InnerMap10FindHelperERKS2_
1198:__ZNK6google8protobuf4hashINS0_6MapKeyEEclERKS2_
1199:__ZNK6google8protobuf6MapKeyeqERKS1_
1200:__ZNK6google8protobuf6MapKeyltERKS1_
1201:__ZNK6google8protobuf6MapKey14GetStringValueEv
1202:__ZNK6google8protobuf6MapKey13GetInt64ValueEv
1203:__ZNK6google8protobuf6MapKey13GetInt32ValueEv
1204:__ZNK6google8protobuf6MapKey14GetUInt64ValueEv
1205:__ZNK6google8protobuf6MapKey14GetUInt32ValueEv
1206:__ZNK6google8protobuf6MapKey12GetBoolValueEv
1207:__ZN6google8protobuf3MapINS0_6MapKeyENS0_11MapValueRefEE5clearEv
1208:__ZN6google8protobuf11MapValueRef10DeleteDataEv
1209:__ZNSt3__213unordered_mapIN6google8protobuf6MapKeyEPNS2_7MapPairIS3_NS2_11MapValueRefEEENS2_4hashIS3_EENS_8equal_toIS3_EENS2_3MapIS3_S5_E12MapAllocatorINS_4pairIKS3_S7_EEEEEixERSG_
1210:__ZN6google8protobuf3MapINS0_6MapKeyENS0_11MapValueRefEE8InnerMapixERKS2_
1211:__ZN6google8protobuf3MapINS0_6MapKeyENS0_11MapValueRefEE23CreateValueTypeInternalERKS2_
1212:__ZN6google8protobuf8internal21arena_destruct_objectINS0_6MapKeyEEEvPv
1213:__ZN6google8protobuf3MapINS0_6MapKeyENS0_11MapValueRefEE8InnerMap6insertERKNS4_12KeyValuePairE
1214:__ZN6google8protobuf3MapINS0_6MapKeyENS0_11MapValueRefEE8InnerMap6ResizeEj
1215:__ZN6google8protobuf3MapINS0_6MapKeyENS0_11MapValueRefEE8InnerMap12InsertUniqueEjPNS5_4NodeE
1216:__ZN6google8protobuf3MapINS0_6MapKeyENS0_11MapValueRefEE8InnerMap11TreeConvertEj
1217:__ZN6google8protobuf3MapINS0_6MapKeyENS0_11MapValueRefEE8InnerMap18InsertUniqueInTreeEjPNS5_4NodeE
1218:__ZN6google8protobuf3MapINS0_6MapKeyENS0_11MapValueRefEE12MapAllocatorINSt3__23setIPS2_NS4_8InnerMap10KeyCompareENS5_IS8_EEEEE9constructEPSC_RKSC_
1219:__ZNSt3__26__treeIPN6google8protobuf6MapKeyENS2_3MapIS3_NS2_11MapValueRefEE8InnerMap10KeyCompareENS7_12MapAllocatorIS4_EEE7destroyEPNS_11__tree_nodeIS4_PvEE
1220:__ZN6google8protobuf3MapINS0_6MapKeyENS0_11MapValueRefEE8InnerMap14CopyListToTreeEjPNSt3__23setIPS2_NS5_10KeyCompareENS4_12MapAllocatorIS8_EEEE
1221:__ZNSt3__26__treeIPN6google8protobuf6MapKeyENS2_3MapIS3_NS2_11MapValueRefEE8InnerMap10KeyCompareENS7_12MapAllocatorIS4_EEE12__find_equalIS4_EERPNS_16__tree_node_baseIPvEENS_21__tree_const_iteratorIS4_PNS_11__tree_nodeIS4_SF_EEiEERPNS_15__tree_end_nodeISH_EESI_RKT_
1222:__ZN6google8protobuf3MapINS0_6MapKeyENS0_11MapValueRefEE8InnerMap12TransferTreeEPKPvj
1223:__ZNSt3__212__hash_tableINS_17__hash_value_typeIN6google8protobuf6MapKeyEPNS3_7MapPairIS4_NS3_11MapValueRefEEEEENS_22__unordered_map_hasherIS4_S9_NS3_4hashIS4_EELb1EEENS_21__unordered_map_equalIS4_S9_NS_8equal_toIS4_EELb1EEENS3_3MapIS4_S6_E12MapAllocatorIS9_EEE4findIS4_EENS_15__hash_iteratorIPNS_11__hash_nodeIS9_PvEEEERKT_
1224:__ZNSt3__212__hash_tableINS_17__hash_value_typeIN6google8protobuf6MapKeyEPNS3_7MapPairIS4_NS3_11MapValueRefEEEEENS_22__unordered_map_hasherIS4_S9_NS3_4hashIS4_EELb1EEENS_21__unordered_map_equalIS4_S9_NS_8equal_toIS4_EELb1EEENS3_3MapIS4_S6_E12MapAllocatorIS9_EEE20__node_insert_uniqueEPNS_11__hash_nodeIS9_PvEE
1225:__ZNSt3__212__hash_tableINS_17__hash_value_typeIN6google8protobuf6MapKeyEPNS3_7MapPairIS4_NS3_11MapValueRefEEEEENS_22__unordered_map_hasherIS4_S9_NS3_4hashIS4_EELb1EEENS_21__unordered_map_equalIS4_S9_NS_8equal_toIS4_EELb1EEENS3_3MapIS4_S6_E12MapAllocatorIS9_EEE6rehashEj
1226:__ZNSt3__212__hash_tableINS_17__hash_value_typeIN6google8protobuf6MapKeyEPNS3_7MapPairIS4_NS3_11MapValueRefEEEEENS_22__unordered_map_hasherIS4_S9_NS3_4hashIS4_EELb1EEENS_21__unordered_map_equalIS4_S9_NS_8equal_toIS4_EELb1EEENS3_3MapIS4_S6_E12MapAllocatorIS9_EEE8__rehashEj
1227:__ZN6google8protobuf3MapINS0_6MapKeyENS0_11MapValueRefEE5eraseENS4_8iteratorE
1228:__ZNSt3__212__hash_tableINS_17__hash_value_typeIN6google8protobuf6MapKeyEPNS3_7MapPairIS4_NS3_11MapValueRefEEEEENS_22__unordered_map_hasherIS4_S9_NS3_4hashIS4_EELb1EEENS_21__unordered_map_equalIS4_S9_NS_8equal_toIS4_EELb1EEENS3_3MapIS4_S6_E12MapAllocatorIS9_EEE5eraseENS_21__hash_const_iteratorIPNS_11__hash_nodeIS9_PvEEEE
1229:__ZN6google8protobuf3MapINS0_6MapKeyENS0_11MapValueRefEE8InnerMap5eraseENS5_13iterator_baseINS4_12KeyValuePairEEE
1230:__ZN6google8protobuf3MapINS0_6MapKeyENS0_11MapValueRefEE8InnerMap19EraseFromLinkedListEPNS5_4NodeES7_
1231:__ZNK6google8protobuf11MapValueRef14GetStringValueEv
1232:__ZNK6google8protobuf11MapValueRef13GetInt64ValueEv
1233:__ZNK6google8protobuf11MapValueRef13GetInt32ValueEv
1234:__ZNK6google8protobuf11MapValueRef14GetUInt64ValueEv
1235:__ZNK6google8protobuf11MapValueRef14GetUInt32ValueEv
1236:__ZNK6google8protobuf11MapValueRef12GetBoolValueEv
1237:__ZNK6google8protobuf11MapValueRef14GetDoubleValueEv
1238:__ZNK6google8protobuf11MapValueRef13GetFloatValueEv
1239:__ZNK6google8protobuf11MapValueRef12GetEnumValueEv
1240:__ZNK6google8protobuf11MapValueRef15GetMessageValueEv
1241:__ZNK6google8protobuf11MapValueRef4typeEv
1242:__ZN6google8protobuf3MapINS0_6MapKeyENS0_11MapValueRefEED2Ev
1243:__ZN6google8protobuf3MapINS0_6MapKeyENS0_11MapValueRefEE8InnerMap5clearEv
1244:__ZN6google8protobuf8internal30DeleteMapEntryDefaultInstancesEv
1245:__ZN6google8protobuf8internal28InitMapEntryDefaultInstancesEv
1246:__ZN6google8protobuf8internal31RegisterMapEntryDefaultInstanceEPNS0_11MessageLiteE
1247:__ZNK6google8protobuf8internal12MapFieldBase16GetRepeatedFieldEv
1248:__ZN6google8protobuf8internal12MapFieldBase20MutableRepeatedFieldEv
1249:__ZNK6google8protobuf8internal12MapFieldBase16InitMetadataOnceEv
1250:__ZN6google8protobuf8internal12MapFieldBase11SetMapDirtyEv
1251:__ZNK6google8protobuf8internal12MapFieldBase24SyncMapWithRepeatedFieldEv
1252:__ZN6google8protobuf8internal15DynamicMapFieldC2EPKNS0_7MessageE
1253:__ZN6google8protobuf3MapINS0_6MapKeyENS0_11MapValueRefEE4InitEv
1254:__ZN6google8protobuf8hash_mapINS0_6MapKeyEPNS0_7MapPairIS2_NS0_11MapValueRefEEENS0_4hashIS2_EENSt3__28equal_toIS2_EENS0_3MapIS2_S4_E12MapAllocatorINS9_4pairIKS2_S6_EEEEEC2EiRKS8_RKSB_RKSI_
1255:__ZN6google8protobuf8internal21arena_destruct_objectINS0_8hash_mapINS0_6MapKeyEPNS0_7MapPairIS4_NS0_11MapValueRefEEENS0_4hashIS4_EENSt3__28equal_toIS4_EENS0_3MapIS4_S6_E12MapAllocatorINSB_4pairIKS4_S8_EEEEEEEEvPv
1256:__ZN6google8protobuf8internal21arena_destruct_objectINS0_3MapINS0_6MapKeyENS0_11MapValueRefEE8InnerMapEEEvPv
1257:__ZNK6google8protobuf7Message11GetTypeNameEv
1258:__ZN6google8protobuf7Message5ClearEv
1259:__ZNK6google8protobuf7Message13IsInitializedEv
1260:__ZNK6google8protobuf7Message25InitializationErrorStringEv
1261:__ZN6google8protobuf7Message21CheckTypeAndMergeFromERKNS0_11MessageLiteE
1262:__ZN6google8protobuf7Message27MergePartialFromCodedStreamEPNS0_2io16CodedInputStreamE
1263:__ZNK6google8protobuf7Message12ByteSizeLongEv
1264:__ZNK6google8protobuf7Message24SerializeWithCachedSizesEPNS0_2io17CodedOutputStreamE
1265:__ZN6google8protobuf7Message8CopyFromERKS1_
1266:__ZN6google8protobuf7Message9MergeFromERKS1_
1267:__ZN6google8protobuf7Message20DiscardUnknownFieldsEv
1268:__ZNK6google8protobuf7Message9SpaceUsedEv
1269:__ZNK6google8protobuf7Message13SetCachedSizeEi
1270:__ZNK6google8protobuf10Reflection21RepeatedFieldAccessorEPKNS0_15FieldDescriptorE
1271:__ZN6google8protobuf8internal9SingletonINS1_30RepeatedFieldPrimitiveAccessorIiEEE4InitEv
1272:__ZN6google8protobuf8internal9SingletonINS1_30RepeatedFieldPrimitiveAccessorIjEEE4InitEv
1273:__ZN6google8protobuf8internal9SingletonINS1_30RepeatedFieldPrimitiveAccessorIxEEE4InitEv
1274:__ZN6google8protobuf8internal9SingletonINS1_30RepeatedFieldPrimitiveAccessorIyEEE4InitEv
1275:__ZN6google8protobuf8internal9SingletonINS1_30RepeatedFieldPrimitiveAccessorIfEEE4InitEv
1276:__ZN6google8protobuf8internal9SingletonINS1_30RepeatedFieldPrimitiveAccessorIdEEE4InitEv
1277:__ZN6google8protobuf8internal9SingletonINS1_30RepeatedFieldPrimitiveAccessorIbEEE4InitEv
1278:__ZN6google8protobuf8internal9SingletonINS1_30RepeatedPtrFieldStringAccessorEE4InitEv
1279:__ZN6google8protobuf8internal9SingletonINS1_16MapFieldAccessorEE4InitEv
1280:__ZN6google8protobuf8internal9SingletonINS1_31RepeatedPtrFieldMessageAccessorEE4InitEv
1281:__ZNK6google8protobuf8internal23RepeatedPtrFieldWrapperINS0_7MessageEE7IsEmptyEPKv
1282:__ZNK6google8protobuf8internal23RepeatedPtrFieldWrapperINS0_7MessageEE4SizeEPKv
1283:__ZNK6google8protobuf8internal23RepeatedPtrFieldWrapperINS0_7MessageEE3GetEPKviPv
1284:__ZNK6google8protobuf8internal23RepeatedPtrFieldWrapperINS0_7MessageEE5ClearEPv
1285:__ZNK6google8protobuf8internal23RepeatedPtrFieldWrapperINS0_7MessageEE3SetEPviPKv
1286:__ZNK6google8protobuf8internal23RepeatedPtrFieldWrapperINS0_7MessageEE3AddEPvPKv
1287:__ZNK6google8protobuf8internal23RepeatedPtrFieldWrapperINS0_7MessageEE10RemoveLastEPv
1288:__ZNK6google8protobuf8internal23RepeatedPtrFieldWrapperINS0_7MessageEE12SwapElementsEPvii
1289:__ZNK6google8protobuf8internal31RepeatedPtrFieldMessageAccessor4SwapEPvPKNS1_21RepeatedFieldAccessorES3_
1290:__ZNK6google8protobuf8internal33RandomAccessRepeatedFieldAccessor13BeginIteratorEPKv
1291:__ZNK6google8protobuf8internal33RandomAccessRepeatedFieldAccessor11EndIteratorEPKv
1292:__ZNK6google8protobuf8internal33RandomAccessRepeatedFieldAccessor15AdvanceIteratorEPKvPv
1293:__ZNK6google8protobuf8internal33RandomAccessRepeatedFieldAccessor14EqualsIteratorEPKvS4_S4_
1294:__ZNK6google8protobuf8internal33RandomAccessRepeatedFieldAccessor14DeleteIteratorEPKvPv
1295:__ZNK6google8protobuf8internal33RandomAccessRepeatedFieldAccessor16GetIteratorValueEPKvS4_Pv
1296:__ZNK6google8protobuf8internal31RepeatedPtrFieldMessageAccessor3NewEPKv
1297:__ZNK6google8protobuf8internal31RepeatedPtrFieldMessageAccessor10ConvertToTEPKvPNS0_7MessageE
1298:__ZNK6google8protobuf8internal31RepeatedPtrFieldMessageAccessor12ConvertFromTERKNS0_7MessageEPv
1299:__ZN6google8protobuf8internal18GenericTypeHandlerINS0_7MessageEE16NewFromPrototypeEPKS3_PNS0_5ArenaE
1300:__ZNK6google8protobuf8internal16MapFieldAccessor7IsEmptyEPKv
1301:__ZNK6google8protobuf8internal16MapFieldAccessor4SizeEPKv
1302:__ZNK6google8protobuf8internal16MapFieldAccessor3GetEPKviPv
1303:__ZNK6google8protobuf8internal16MapFieldAccessor5ClearEPv
1304:__ZNK6google8protobuf8internal16MapFieldAccessor3SetEPviPKv
1305:__ZNK6google8protobuf8internal16MapFieldAccessor3AddEPvPKv
1306:__ZNK6google8protobuf8internal16MapFieldAccessor10RemoveLastEPv
1307:__ZNK6google8protobuf8internal16MapFieldAccessor12SwapElementsEPvii
1308:__ZNK6google8protobuf8internal16MapFieldAccessor4SwapEPvPKNS1_21RepeatedFieldAccessorES3_
1309:__ZNK6google8protobuf8internal23RepeatedPtrFieldWrapperINSt3__212basic_stringIcNS3_11char_traitsIcEENS3_9allocatorIcEEEEE5ClearEPv
1310:__ZNK6google8protobuf8internal23RepeatedPtrFieldWrapperINSt3__212basic_stringIcNS3_11char_traitsIcEENS3_9allocatorIcEEEEE3AddEPvPKv
1311:__ZNK6google8protobuf8internal23RepeatedPtrFieldWrapperINSt3__212basic_stringIcNS3_11char_traitsIcEENS3_9allocatorIcEEEEE10RemoveLastEPv
1312:__ZNK6google8protobuf8internal30RepeatedPtrFieldStringAccessor4SwapEPvPKNS1_21RepeatedFieldAccessorES3_
1313:__ZNK6google8protobuf8internal30RepeatedPtrFieldStringAccessor3NewEPKv
1314:__ZNK6google8protobuf8internal30RepeatedPtrFieldStringAccessor10ConvertToTEPKvPNSt3__212basic_stringIcNS5_11char_traitsIcEENS5_9allocatorIcEEEE
1315:__ZN6google8protobuf8internal20RepeatedPtrFieldBase12SwapFallbackINS0_16RepeatedPtrFieldINSt3__212basic_stringIcNS5_11char_traitsIcEENS5_9allocatorIcEEEEE11TypeHandlerEEEvPS2_
1316:__ZN6google8protobuf8internal20RepeatedPtrFieldBase23UnsafeArenaAddAllocatedINS0_16RepeatedPtrFieldINSt3__212basic_stringIcNS5_11char_traitsIcEENS5_9allocatorIcEEEEE11TypeHandlerEEEvPNT_4TypeE
1317:__ZNK6google8protobuf8internal20RepeatedFieldWrapperIbE7IsEmptyEPKv
1318:__ZNK6google8protobuf8internal20RepeatedFieldWrapperIbE4SizeEPKv
1319:__ZNK6google8protobuf8internal20RepeatedFieldWrapperIbE3GetEPKviPv
1320:__ZNK6google8protobuf8internal20RepeatedFieldWrapperIbE5ClearEPv
1321:__ZNK6google8protobuf8internal20RepeatedFieldWrapperIbE3SetEPviPKv
1322:__ZNK6google8protobuf8internal20RepeatedFieldWrapperIbE3AddEPvPKv
1323:__ZNK6google8protobuf8internal20RepeatedFieldWrapperIbE10RemoveLastEPv
1324:__ZNK6google8protobuf8internal20RepeatedFieldWrapperIbE12SwapElementsEPvii
1325:__ZNK6google8protobuf8internal30RepeatedFieldPrimitiveAccessorIbE4SwapEPvPKNS1_21RepeatedFieldAccessorES4_
1326:__ZNK6google8protobuf8internal30RepeatedFieldPrimitiveAccessorIbE10ConvertToTEPKv
1327:__ZNK6google8protobuf8internal20RepeatedFieldWrapperIdE3GetEPKviPv
1328:__ZNK6google8protobuf8internal20RepeatedFieldWrapperIdE3SetEPviPKv
1329:__ZNK6google8protobuf8internal20RepeatedFieldWrapperIdE3AddEPvPKv
1330:__ZNK6google8protobuf8internal20RepeatedFieldWrapperIdE12SwapElementsEPvii
1331:__ZNK6google8protobuf8internal30RepeatedFieldPrimitiveAccessorIdE4SwapEPvPKNS1_21RepeatedFieldAccessorES4_
1332:__ZNK6google8protobuf8internal30RepeatedFieldPrimitiveAccessorIdE10ConvertToTEPKv
1333:__ZNK6google8protobuf8internal20RepeatedFieldWrapperIfE3GetEPKviPv
1334:__ZNK6google8protobuf8internal20RepeatedFieldWrapperIfE3SetEPviPKv
1335:__ZNK6google8protobuf8internal20RepeatedFieldWrapperIfE3AddEPvPKv
1336:__ZNK6google8protobuf8internal20RepeatedFieldWrapperIfE12SwapElementsEPvii
1337:__ZNK6google8protobuf8internal30RepeatedFieldPrimitiveAccessorIfE4SwapEPvPKNS1_21RepeatedFieldAccessorES4_
1338:__ZNK6google8protobuf8internal30RepeatedFieldPrimitiveAccessorIfE10ConvertToTEPKv
1339:__ZNK6google8protobuf8internal20RepeatedFieldWrapperIyE3SetEPviPKv
1340:__ZNK6google8protobuf8internal20RepeatedFieldWrapperIyE3AddEPvPKv
1341:__ZNK6google8protobuf8internal20RepeatedFieldWrapperIyE12SwapElementsEPvii
1342:__ZNK6google8protobuf8internal30RepeatedFieldPrimitiveAccessorIyE10ConvertToTEPKv
1343:__ZNK6google8protobuf8internal20RepeatedFieldWrapperIjE3SetEPviPKv
1344:__ZNK6google8protobuf8internal20RepeatedFieldWrapperIjE3AddEPvPKv
1345:__GLOBAL__sub_I_message_cc
1346:__ZN6google8protobuf8internal12_GLOBAL__N_129ShutdownRepeatedFieldAccessorEv
1347:__ZNK6google8protobuf7Message24FindInitializationErrorsEPNSt3__26vectorINS2_12basic_stringIcNS2_11char_traitsIcEENS2_9allocatorIcEEEENS7_IS9_EEEE
1348:__ZN6google8protobuf14MessageFactory17generated_factoryEv
1349:__ZN6google8protobuf12_GLOBAL__N_127InitGeneratedMessageFactoryEv
1350:__ZN6google8protobuf12_GLOBAL__N_131ShutdownGeneratedMessageFactoryEv
1351:__ZN6google8protobuf12_GLOBAL__N_123GeneratedMessageFactoryD2Ev
1352:__ZN6google8protobuf12_GLOBAL__N_123GeneratedMessageFactoryD0Ev
1353:__ZN6google8protobuf12_GLOBAL__N_123GeneratedMessageFactory12GetPrototypeEPKNS0_10DescriptorE
1354:__ZN6google8protobuf14MessageFactory29InternalRegisterGeneratedFileEPKcPFvRKNSt3__212basic_stringIcNS4_11char_traitsIcEENS4_9allocatorIcEEEEE
1355:__ZN6google8protobuf14MessageFactory32InternalRegisterGeneratedMessageEPKNS0_10DescriptorEPKNS0_7MessageE
1356:__ZN6google8protobuf18InsertIfNotPresentINS0_8hash_mapIPKNS0_10DescriptorEPKNS0_7MessageENS0_4hashIS5_EENSt3__28equal_toIS5_EENSB_9allocatorINSB_4pairIKS5_S8_EEEEEEEEbPT_RKNSK_10value_typeE
1357:__ZN6google8protobuf8internal18GenericTypeHandlerINS0_7MessageEE20GetMaybeArenaPointerEPS3_
1358:__ZN6google8protobuf8internal13ReflectionOps4CopyERKNS0_7MessageEPS3_
1359:__ZN6google8protobuf8internal13ReflectionOps5ClearEPNS0_7MessageE
1360:__ZN6google8protobuf8internal13ReflectionOps5MergeERKNS0_7MessageEPS3_
1361:__ZN6google8protobuf8internal13ReflectionOps13IsInitializedERKNS0_7MessageE
1362:__ZN6google8protobuf8internal13ReflectionOps20DiscardUnknownFieldsEPNS0_7MessageE
1363:__ZN6google8protobuf8internal13ReflectionOps24FindInitializationErrorsERKNS0_7MessageERKNSt3__212basic_stringIcNS6_11char_traitsIcEENS6_9allocatorIcEEEEPNS6_6vectorISC_NSA_ISC_EEEE
1364:__ZN6google8protobuf8internalL16SubMessagePrefixERKNSt3__212basic_stringIcNS2_11char_traitsIcEENS2_9allocatorIcEEEEPKNS0_15FieldDescriptorEi
1365:__ZN6google8protobuf13SourceContextD2Ev
1366:__ZN6google8protobuf13SourceContextD0Ev
1367:__ZNK6google8protobuf13SourceContext3NewEPNS0_5ArenaE
1368:__ZN6google8protobuf13SourceContext5ClearEv
1369:__ZN6google8protobuf13SourceContext27MergePartialFromCodedStreamEPNS0_2io16CodedInputStreamE
1370:__ZNK6google8protobuf13SourceContext12ByteSizeLongEv
1371:__ZNK6google8protobuf13SourceContext24SerializeWithCachedSizesEPNS0_2io17CodedOutputStreamE
1372:__ZNK6google8protobuf13SourceContext39InternalSerializeWithCachedSizesToArrayEbPh
1373:__ZN6google8protobuf13SourceContext9MergeFromERKNS0_7MessageE
1374:__ZNK6google8protobuf13SourceContext11GetMetadataEv
1375:__ZN6google8protobuf64protobuf_AssignDesc_google_2fprotobuf_2fsource_5fcontext_2eprotoEv
1376:__ZN6google8protobuf66protobuf_AddDesc_google_2fprotobuf_2fsource_5fcontext_2eproto_implEv
1377:__ZN6google8protobuf71protobuf_InitDefaults_google_2fprotobuf_2fsource_5fcontext_2eproto_implEv
1378:__ZN6google8protobuf12_GLOBAL__N_122protobuf_RegisterTypesERKNSt3__212basic_stringIcNS2_11char_traitsIcEENS2_9allocatorIcEEEE_849
1379:__ZN6google8protobuf66protobuf_ShutdownFile_google_2fprotobuf_2fsource_5fcontext_2eprotoEv
1380:__ZN6google8protobuf12_GLOBAL__N_1L13MergeFromFailEi_850
1381:__ZN6google8protobuf13SourceContextC2Ev
1382:__GLOBAL__sub_I_source_context_pb_cc
1383:__ZN6google8protobuf66protobuf_InitDefaults_google_2fprotobuf_2fsource_5fcontext_2eprotoEv
1384:__ZN6google8protobuf13SourceContext9MergeFromERKS1_
1385:__ZN6google8protobuf6StructD2Ev
1386:__ZN6google8protobuf6StructD0Ev
1387:__ZNK6google8protobuf6Struct3NewEPNS0_5ArenaE
1388:__ZN6google8protobuf6Struct5ClearEv
1389:__ZN6google8protobuf6Struct27MergePartialFromCodedStreamEPNS0_2io16CodedInputStreamE
1390:__ZNK6google8protobuf6Struct12ByteSizeLongEv
1391:__ZNK6google8protobuf6Struct24SerializeWithCachedSizesEPNS0_2io17CodedOutputStreamE
1392:__ZNK6google8protobuf6Struct13GetCachedSizeEv
1393:__ZNK6google8protobuf6Struct39InternalSerializeWithCachedSizesToArrayEbPh
1394:__ZN6google8protobuf6Struct9MergeFromERKNS0_7MessageE
1395:__ZNK6google8protobuf6Struct13SetCachedSizeEi
1396:__ZNK6google8protobuf6Struct11GetMetadataEv
1397:__ZN6google8protobuf54protobuf_AssignDesc_google_2fprotobuf_2fstruct_2eprotoEv
1398:__ZN6google8protobuf56protobuf_AddDesc_google_2fprotobuf_2fstruct_2eproto_implEv
1399:__ZN6google8protobuf61protobuf_InitDefaults_google_2fprotobuf_2fstruct_2eproto_implEv
1400:__ZN6google8protobuf12_GLOBAL__N_122protobuf_RegisterTypesERKNSt3__212basic_stringIcNS2_11char_traitsIcEENS2_9allocatorIcEEEE_866
1401:__ZN6google8protobuf56protobuf_ShutdownFile_google_2fprotobuf_2fstruct_2eprotoEv
1402:__ZN6google8protobuf8internal8MapEntryINSt3__212basic_stringIcNS3_11char_traitsIcEENS3_9allocatorIcEEEENS0_5ValueELNS1_14WireFormatLite9FieldTypeE9ELSC_11ELi0EE21CreateDefaultInstanceEPKNS0_10DescriptorE
1403:__ZN6google8protobuf8internal12MapEntryLiteINSt3__212basic_stringIcNS3_11char_traitsIcEENS3_9allocatorIcEEEENS0_5ValueELNS1_14WireFormatLite9FieldTypeE9ELSC_11ELi0EED2Ev
1404:__ZN6google8protobuf8internal12MapEntryLiteINSt3__212basic_stringIcNS3_11char_traitsIcEENS3_9allocatorIcEEEENS0_5ValueELNS1_14WireFormatLite9FieldTypeE9ELSC_11ELi0EED0Ev
1405:__ZNK6google8protobuf8internal12MapEntryLiteINSt3__212basic_stringIcNS3_11char_traitsIcEENS3_9allocatorIcEEEENS0_5ValueELNS1_14WireFormatLite9FieldTypeE9ELSC_11ELi0EE11GetTypeNameEv
1406:__ZNK6google8protobuf8internal12MapEntryLiteINSt3__212basic_stringIcNS3_11char_traitsIcEENS3_9allocatorIcEEEENS0_5ValueELNS1_14WireFormatLite9FieldTypeE9ELSC_11ELi0EE3NewEv
1407:__ZNK6google8protobuf8internal12MapEntryLiteINSt3__212basic_stringIcNS3_11char_traitsIcEENS3_9allocatorIcEEEENS0_5ValueELNS1_14WireFormatLite9FieldTypeE9ELSC_11ELi0EE3NewEPNS0_5ArenaE
1408:__ZN6google8protobuf8internal12MapEntryLiteINSt3__212basic_stringIcNS3_11char_traitsIcEENS3_9allocatorIcEEEENS0_5ValueELNS1_14WireFormatLite9FieldTypeE9ELSC_11ELi0EE5ClearEv
1409:__ZNK6google8protobuf8internal12MapEntryLiteINSt3__212basic_stringIcNS3_11char_traitsIcEENS3_9allocatorIcEEEENS0_5ValueELNS1_14WireFormatLite9FieldTypeE9ELSC_11ELi0EE13IsInitializedEv
1410:__ZN6google8protobuf8internal12MapEntryLiteINSt3__212basic_stringIcNS3_11char_traitsIcEENS3_9allocatorIcEEEENS0_5ValueELNS1_14WireFormatLite9FieldTypeE9ELSC_11ELi0EE21CheckTypeAndMergeFromERKNS0_11MessageLiteE
1411:__ZN6google8protobuf8internal12MapEntryLiteINSt3__212basic_stringIcNS3_11char_traitsIcEENS3_9allocatorIcEEEENS0_5ValueELNS1_14WireFormatLite9FieldTypeE9ELSC_11ELi0EE27MergePartialFromCodedStreamEPNS0_2io16CodedInputStreamE
1412:__ZNK6google8protobuf8internal12MapEntryLiteINSt3__212basic_stringIcNS3_11char_traitsIcEENS3_9allocatorIcEEEENS0_5ValueELNS1_14WireFormatLite9FieldTypeE9ELSC_11ELi0EE12ByteSizeLongEv
1413:__ZNK6google8protobuf8internal12MapEntryLiteINSt3__212basic_stringIcNS3_11char_traitsIcEENS3_9allocatorIcEEEENS0_5ValueELNS1_14WireFormatLite9FieldTypeE9ELSC_11ELi0EE24SerializeWithCachedSizesEPNS0_2io17CodedOutputStreamE
1414:__ZNK6google8protobuf8internal12MapEntryLiteINSt3__212basic_stringIcNS3_11char_traitsIcEENS3_9allocatorIcEEEENS0_5ValueELNS1_14WireFormatLite9FieldTypeE9ELSC_11ELi0EE13GetCachedSizeEv
1415:__ZNK6google8protobuf8internal12MapEntryLiteINSt3__212basic_stringIcNS3_11char_traitsIcEENS3_9allocatorIcEEEENS0_5ValueELNS1_14WireFormatLite9FieldTypeE9ELSC_11ELi0EE39InternalSerializeWithCachedSizesToArrayEbPh
1416:__ZNK6google8protobuf8internal12MapEntryLiteINSt3__212basic_stringIcNS3_11char_traitsIcEENS3_9allocatorIcEEEENS0_5ValueELNS1_14WireFormatLite9FieldTypeE9ELSC_11ELi0EE5valueEv
1417:__ZNK6google8protobuf5Value12ByteSizeLongEv
1418:__ZN6google8protobuf5ValueC2Ev
1419:__ZN6google8protobuf5Value27MergePartialFromCodedStreamEPNS0_2io16CodedInputStreamE
1420:__ZN6google8protobuf5Value10clear_kindEv
1421:__ZN6google8protobuf6StructC2Ev
1422:__ZN6google8protobuf6StructC2EPNS0_5ArenaE
1423:__ZN6google8protobuf9ListValueC2Ev
1424:__ZN6google8protobuf9ListValue27MergePartialFromCodedStreamEPNS0_2io16CodedInputStreamE
1425:__ZN6google8protobuf8internal18GenericTypeHandlerINS0_5ValueEE16NewFromPrototypeEPKS3_PNS0_5ArenaE
1426:__ZN6google8protobuf9ListValueD2Ev
1427:__ZN6google8protobuf9ListValueD0Ev
1428:__ZNK6google8protobuf9ListValue3NewEPNS0_5ArenaE
1429:__ZN6google8protobuf9ListValue5ClearEv
1430:__ZNK6google8protobuf9ListValue12ByteSizeLongEv
1431:__ZNK6google8protobuf9ListValue24SerializeWithCachedSizesEPNS0_2io17CodedOutputStreamE
1432:__ZNK6google8protobuf9ListValue39InternalSerializeWithCachedSizesToArrayEbPh
1433:__ZN6google8protobuf9ListValue9MergeFromERKNS0_7MessageE
1434:__ZNK6google8protobuf9ListValue11GetMetadataEv
1435:__ZN6google8protobuf12_GLOBAL__N_1L13MergeFromFailEi_870
1436:__ZN6google8protobuf16RepeatedPtrFieldINS0_5ValueEE9MergeFromERKS3_
1437:__ZN6google8protobuf8internal18GenericTypeHandlerINS0_5ValueEE5MergeERKS3_PS3_
1438:__ZN6google8protobuf5Value15UnsafeMergeFromERKS1_
1439:__ZN6google8protobuf8internal12MapFieldLiteINSt3__212basic_stringIcNS3_11char_traitsIcEENS3_9allocatorIcEEEENS0_5ValueELNS1_14WireFormatLite9FieldTypeE9ELSC_11ELi0EE9MergeFromERKSD_
1440:__ZN6google8protobuf3MapINSt3__212basic_stringIcNS2_11char_traitsIcEENS2_9allocatorIcEEEENS0_5ValueEEixERKS8_
1441:__ZN6google8protobuf3MapINSt3__212basic_stringIcNS2_11char_traitsIcEENS2_9allocatorIcEEEENS0_5ValueEE8InnerMap13iterator_baseIKNSA_12KeyValuePairEEppEv
1442:__ZNK6google8protobuf3MapINSt3__212basic_stringIcNS2_11char_traitsIcEENS2_9allocatorIcEEEENS0_5ValueEE8InnerMap10FindHelperERKS8_
1443:__ZNSt3__26__treeIPNS_12basic_stringIcNS_11char_traitsIcEENS_9allocatorIcEEEEN6google8protobuf3MapIS6_NS9_5ValueEE8InnerMap10KeyCompareENSC_12MapAllocatorIS7_EEE13__lower_boundIS7_EENS_15__tree_iteratorIS7_PNS_11__tree_nodeIS7_PvEEiEERKT_SN_PNS_15__tree_end_nodeIPNS_16__tree_node_baseISL_EEEE
1444:__ZNSt3__213unordered_mapINS_12basic_stringIcNS_11char_traitsIcEENS_9allocatorIcEEEEPN6google8protobuf7MapPairIS6_NS8_5ValueEEENS8_4hashIS6_EENS_8equal_toIS6_EENS8_3MapIS6_SA_E12MapAllocatorINS_4pairIKS6_SC_EEEEEixERSL_
1445:__ZN6google8protobuf3MapINSt3__212basic_stringIcNS2_11char_traitsIcEENS2_9allocatorIcEEEENS0_5ValueEE8InnerMap6insertERKNSA_12KeyValuePairE
1446:__ZN6google8protobuf3MapINSt3__212basic_stringIcNS2_11char_traitsIcEENS2_9allocatorIcEEEENS0_5ValueEE23CreateValueTypeInternalERKS8_
1447:__ZN6google8protobuf3MapINSt3__212basic_stringIcNS2_11char_traitsIcEENS2_9allocatorIcEEEENS0_5ValueEE8InnerMap6ResizeEj
1448:__ZN6google8protobuf3MapINSt3__212basic_stringIcNS2_11char_traitsIcEENS2_9allocatorIcEEEENS0_5ValueEE8InnerMap12InsertUniqueEjPNSB_4NodeE
1449:__ZN6google8protobuf3MapINSt3__212basic_stringIcNS2_11char_traitsIcEENS2_9allocatorIcEEEENS0_5ValueEE8InnerMap11TreeConvertEj
1450:__ZN6google8protobuf3MapINSt3__212basic_stringIcNS2_11char_traitsIcEENS2_9allocatorIcEEEENS0_5ValueEE8InnerMap18InsertUniqueInTreeEjPNSB_4NodeE
1451:__ZNSt3__26__treeIPNS_12basic_stringIcNS_11char_traitsIcEENS_9allocatorIcEEEEN6google8protobuf3MapIS6_NS9_5ValueEE8InnerMap10KeyCompareENSC_12MapAllocatorIS7_EEE12__find_equalIS7_EERPNS_16__tree_node_baseIPvEERPNS_15__tree_end_nodeISM_EERKT_
1452:__ZN6google8protobuf3MapINSt3__212basic_stringIcNS2_11char_traitsIcEENS2_9allocatorIcEEEENS0_5ValueEE12MapAllocatorINS2_3setIPS8_NSA_8InnerMap10KeyCompareENSB_ISD_EEEEE9constructEPSH_RKSH_
1453:__ZNSt3__26__treeIPNS_12basic_stringIcNS_11char_traitsIcEENS_9allocatorIcEEEEN6google8protobuf3MapIS6_NS9_5ValueEE8InnerMap10KeyCompareENSC_12MapAllocatorIS7_EEE7destroyEPNS_11__tree_nodeIS7_PvEE
1454:__ZN6google8protobuf3MapINSt3__212basic_stringIcNS2_11char_traitsIcEENS2_9allocatorIcEEEENS0_5ValueEE8InnerMap14CopyListToTreeEjPNS2_3setIPS8_NSB_10KeyCompareENSA_12MapAllocatorISD_EEEE
1455:__ZNSt3__26__treeIPNS_12basic_stringIcNS_11char_traitsIcEENS_9allocatorIcEEEEN6google8protobuf3MapIS6_NS9_5ValueEE8InnerMap10KeyCompareENSC_12MapAllocatorIS7_EEE12__find_equalIS7_EERPNS_16__tree_node_baseIPvEENS_21__tree_const_iteratorIS7_PNS_11__tree_nodeIS7_SK_EEiEERPNS_15__tree_end_nodeISM_EESN_RKT_
1456:__ZN6google8protobuf3MapINSt3__212basic_stringIcNS2_11char_traitsIcEENS2_9allocatorIcEEEENS0_5ValueEE8InnerMap12TransferTreeEPKPvj
1457:__ZNSt3__212__hash_tableINS_17__hash_value_typeINS_12basic_stringIcNS_11char_traitsIcEENS_9allocatorIcEEEEPN6google8protobuf7MapPairIS7_NS9_5ValueEEEEENS_22__unordered_map_hasherIS7_SE_NS9_4hashIS7_EELb1EEENS_21__unordered_map_equalIS7_SE_NS_8equal_toIS7_EELb1EEENS9_3MapIS7_SB_E12MapAllocatorISE_EEE20__node_insert_uniqueEPNS_11__hash_nodeISE_PvEE
1458:__ZNSt3__212__hash_tableINS_17__hash_value_typeINS_12basic_stringIcNS_11char_traitsIcEENS_9allocatorIcEEEEPN6google8protobuf7MapPairIS7_NS9_5ValueEEEEENS_22__unordered_map_hasherIS7_SE_NS9_4hashIS7_EELb1EEENS_21__unordered_map_equalIS7_SE_NS_8equal_toIS7_EELb1EEENS9_3MapIS7_SB_E12MapAllocatorISE_EEE6rehashEj
1459:__ZNSt3__212__hash_tableINS_17__hash_value_typeINS_12basic_stringIcNS_11char_traitsIcEENS_9allocatorIcEEEEPN6google8protobuf7MapPairIS7_NS9_5ValueEEEEENS_22__unordered_map_hasherIS7_SE_NS9_4hashIS7_EELb1EEENS_21__unordered_map_equalIS7_SE_NS_8equal_toIS7_EELb1EEENS9_3MapIS7_SB_E12MapAllocatorISE_EEE8__rehashEj
1460:__ZN6google8protobuf3MapINSt3__212basic_stringIcNS2_11char_traitsIcEENS2_9allocatorIcEEEENS0_5ValueEE4InitEv
1461:__ZN6google8protobuf12_GLOBAL__N_130protobuf_AssignDescriptorsOnceEv
1462:__ZN6google8protobuf8internal8MapFieldINSt3__212basic_stringIcNS3_11char_traitsIcEENS3_9allocatorIcEEEENS0_5ValueELNS1_14WireFormatLite9FieldTypeE9ELSC_11ELi0EED2Ev
1463:__ZN6google8protobuf8internal8MapFieldINSt3__212basic_stringIcNS3_11char_traitsIcEENS3_9allocatorIcEEEENS0_5ValueELNS1_14WireFormatLite9FieldTypeE9ELSC_11ELi0EED0Ev
1464:__ZNK6google8protobuf8internal8MapFieldINSt3__212basic_stringIcNS3_11char_traitsIcEENS3_9allocatorIcEEEENS0_5ValueELNS1_14WireFormatLite9FieldTypeE9ELSC_11ELi0EE14ContainsMapKeyERKNS0_6MapKeyE
1465:__ZN6google8protobuf8internal8MapFieldINSt3__212basic_stringIcNS3_11char_traitsIcEENS3_9allocatorIcEEEENS0_5ValueELNS1_14WireFormatLite9FieldTypeE9ELSC_11ELi0EE22InsertOrLookupMapValueERKNS0_6MapKeyEPNS0_11MapValueRefE
1466:__ZN6google8protobuf8internal8MapFieldINSt3__212basic_stringIcNS3_11char_traitsIcEENS3_9allocatorIcEEEENS0_5ValueELNS1_14WireFormatLite9FieldTypeE9ELSC_11ELi0EE14DeleteMapValueERKNS0_6MapKeyE
1467:__ZNK6google8protobuf8internal8MapFieldINSt3__212basic_stringIcNS3_11char_traitsIcEENS3_9allocatorIcEEEENS0_5ValueELNS1_14WireFormatLite9FieldTypeE9ELSC_11ELi0EE4sizeEv
1468:__ZNK6google8protobuf8internal8MapFieldINSt3__212basic_stringIcNS3_11char_traitsIcEENS3_9allocatorIcEEEENS0_5ValueELNS1_14WireFormatLite9FieldTypeE9ELSC_11ELi0EE28SpaceUsedExcludingSelfNoLockEv
1469:__ZNK6google8protobuf8internal8MapFieldINSt3__212basic_stringIcNS3_11char_traitsIcEENS3_9allocatorIcEEEENS0_5ValueELNS1_14WireFormatLite9FieldTypeE9ELSC_11ELi0EE30SyncRepeatedFieldWithMapNoLockEv
1470:__ZNK6google8protobuf8internal8MapFieldINSt3__212basic_stringIcNS3_11char_traitsIcEENS3_9allocatorIcEEEENS0_5ValueELNS1_14WireFormatLite9FieldTypeE9ELSC_11ELi0EE30SyncMapWithRepeatedFieldNoLockEv
1471:__ZNK6google8protobuf8internal23TypeDefinedMapFieldBaseINSt3__212basic_stringIcNS3_11char_traitsIcEENS3_9allocatorIcEEEENS0_5ValueEE16IncreaseIteratorEPNS0_11MapIteratorE
1472:__ZNK6google8protobuf8internal8MapFieldINSt3__212basic_stringIcNS3_11char_traitsIcEENS3_9allocatorIcEEEENS0_5ValueELNS1_14WireFormatLite9FieldTypeE9ELSC_11ELi0EE6GetMapEv
1473:__ZN6google8protobuf8internal8MapFieldINSt3__212basic_stringIcNS3_11char_traitsIcEENS3_9allocatorIcEEEENS0_5ValueELNS1_14WireFormatLite9FieldTypeE9ELSC_11ELi0EE10MutableMapEv
1474:__ZNK6google8protobuf8internal8MapFieldINSt3__212basic_stringIcNS3_11char_traitsIcEENS3_9allocatorIcEEEENS0_5ValueELNS1_14WireFormatLite9FieldTypeE9ELSC_11ELi0EE19SetMapIteratorValueEPNS0_11MapIteratorE
1475:__ZN6google8protobuf8internal8MapFieldINSt3__212basic_stringIcNS3_11char_traitsIcEENS3_9allocatorIcEEEENS0_5ValueELNS1_14WireFormatLite9FieldTypeE9ELSC_11ELi0EE5ClearEv
1476:__ZN6google8protobuf8internal8MapFieldINSt3__212basic_stringIcNS3_11char_traitsIcEENS3_9allocatorIcEEEENS0_5ValueELNS1_14WireFormatLite9FieldTypeE9ELSC_11ELi0EE9MergeFromERKNS1_12MapFieldLiteIS9_SA_LSC_9ELSC_11ELi0EEE
1477:__ZN6google8protobuf8internal8MapFieldINSt3__212basic_stringIcNS3_11char_traitsIcEENS3_9allocatorIcEEEENS0_5ValueELNS1_14WireFormatLite9FieldTypeE9ELSC_11ELi0EE4SwapEPNS1_12MapFieldLiteIS9_SA_LSC_9ELSC_11ELi0EEE
1478:__ZNK6google8protobuf8internal8MapFieldINSt3__212basic_stringIcNS3_11char_traitsIcEENS3_9allocatorIcEEEENS0_5ValueELNS1_14WireFormatLite9FieldTypeE9ELSC_11ELi0EE14GetInternalMapEv
1479:__ZThn28_N6google8protobuf8internal8MapFieldINSt3__212basic_stringIcNS3_11char_traitsIcEENS3_9allocatorIcEEEENS0_5ValueELNS1_14WireFormatLite9FieldTypeE9ELSC_11ELi0EED1Ev
1480:__ZThn28_N6google8protobuf8internal8MapFieldINSt3__212basic_stringIcNS3_11char_traitsIcEENS3_9allocatorIcEEEENS0_5ValueELNS1_14WireFormatLite9FieldTypeE9ELSC_11ELi0EED0Ev
1481:__ZThn28_NK6google8protobuf8internal8MapFieldINSt3__212basic_stringIcNS3_11char_traitsIcEENS3_9allocatorIcEEEENS0_5ValueELNS1_14WireFormatLite9FieldTypeE9ELSC_11ELi0EE6GetMapEv
1482:__ZThn28_N6google8protobuf8internal8MapFieldINSt3__212basic_stringIcNS3_11char_traitsIcEENS3_9allocatorIcEEEENS0_5ValueELNS1_14WireFormatLite9FieldTypeE9ELSC_11ELi0EE10MutableMapEv
1483:__ZThn28_NK6google8protobuf8internal8MapFieldINSt3__212basic_stringIcNS3_11char_traitsIcEENS3_9allocatorIcEEEENS0_5ValueELNS1_14WireFormatLite9FieldTypeE9ELSC_11ELi0EE4sizeEv
1484:__ZThn28_N6google8protobuf8internal8MapFieldINSt3__212basic_stringIcNS3_11char_traitsIcEENS3_9allocatorIcEEEENS0_5ValueELNS1_14WireFormatLite9FieldTypeE9ELSC_11ELi0EE5ClearEv
1485:__ZThn28_N6google8protobuf8internal8MapFieldINSt3__212basic_stringIcNS3_11char_traitsIcEENS3_9allocatorIcEEEENS0_5ValueELNS1_14WireFormatLite9FieldTypeE9ELSC_11ELi0EE9MergeFromERKNS1_12MapFieldLiteIS9_SA_LSC_9ELSC_11ELi0EEE
1486:__ZThn28_N6google8protobuf8internal8MapFieldINSt3__212basic_stringIcNS3_11char_traitsIcEENS3_9allocatorIcEEEENS0_5ValueELNS1_14WireFormatLite9FieldTypeE9ELSC_11ELi0EE4SwapEPNS1_12MapFieldLiteIS9_SA_LSC_9ELSC_11ELi0EEE
1487:__ZN6google8protobuf3MapINSt3__212basic_stringIcNS2_11char_traitsIcEENS2_9allocatorIcEEEENS0_5ValueEE5clearEv
1488:__ZN6google8protobuf3MapINSt3__212basic_stringIcNS2_11char_traitsIcEENS2_9allocatorIcEEEENS0_5ValueEE5eraseENSA_8iteratorE
1489:__ZN6google8protobuf5ValueD2Ev
1490:__ZN6google8protobuf3MapINSt3__212basic_stringIcNS2_11char_traitsIcEENS2_9allocatorIcEEEENS0_5ValueEE8InnerMap5eraseENSB_13iterator_baseINSA_12KeyValuePairEEE
1491:__ZN6google8protobuf3MapINSt3__212basic_stringIcNS2_11char_traitsIcEENS2_9allocatorIcEEEENS0_5ValueEE8InnerMap19EraseFromLinkedListEPNSB_4NodeESD_
1492:__ZN6google8protobuf3MapINSt3__212basic_stringIcNS2_11char_traitsIcEENS2_9allocatorIcEEEENS0_5ValueEED2Ev
1493:__ZN6google8protobuf3MapINSt3__212basic_stringIcNS2_11char_traitsIcEENS2_9allocatorIcEEEENS0_5ValueEE8InnerMap5clearEv
1494:__ZNK6google8protobuf8internal8MapFieldINSt3__212basic_stringIcNS3_11char_traitsIcEENS3_9allocatorIcEEEENS0_5ValueELNS1_14WireFormatLite9FieldTypeE9ELSC_11ELi0EE20InitDefaultEntryOnceEv
1495:__ZN6google8protobuf8internal20RepeatedPtrFieldBase24AddAllocatedSlowWithCopyINS0_16RepeatedPtrFieldINS1_8MapEntryINSt3__212basic_stringIcNS6_11char_traitsIcEENS6_9allocatorIcEEEENS0_5ValueELNS1_14WireFormatLite9FieldTypeE9ELSF_11ELi0EEEE11TypeHandlerEEEvPNT_4TypeEPNS0_5ArenaESN_
1496:__ZN6google8protobuf8internal18GenericTypeHandlerINS1_8MapEntryINSt3__212basic_stringIcNS4_11char_traitsIcEENS4_9allocatorIcEEEENS0_5ValueELNS1_14WireFormatLite9FieldTypeE9ELSD_11ELi0EEEE16NewFromPrototypeEPKSE_PNS0_5ArenaE
1497:__ZN6google8protobuf8internal12MapEntryLiteINSt3__212basic_stringIcNS3_11char_traitsIcEENS3_9allocatorIcEEEENS0_5ValueELNS1_14WireFormatLite9FieldTypeE9ELSC_11ELi0EE9MergeFromERKSD_
1498:__ZN6google8protobuf8internal21arena_destruct_objectINS0_8hash_mapINSt3__212basic_stringIcNS4_11char_traitsIcEENS4_9allocatorIcEEEEPNS0_7MapPairISA_NS0_5ValueEEENS0_4hashISA_EENS4_8equal_toISA_EENS0_3MapISA_SC_E12MapAllocatorINS4_4pairIKSA_SE_EEEEEEEEvPv
1499:__ZN6google8protobuf8internal21arena_destruct_objectINS0_3MapINSt3__212basic_stringIcNS4_11char_traitsIcEENS4_9allocatorIcEEEENS0_5ValueEE8InnerMapEEEvPv
1500:__ZN6google8protobuf8internal12MapFieldLiteINSt3__212basic_stringIcNS3_11char_traitsIcEENS3_9allocatorIcEEEENS0_5ValueELNS1_14WireFormatLite9FieldTypeE9ELSC_11ELi0EED2Ev
1501:__ZN6google8protobuf8internal12MapFieldLiteINSt3__212basic_stringIcNS3_11char_traitsIcEENS3_9allocatorIcEEEENS0_5ValueELNS1_14WireFormatLite9FieldTypeE9ELSC_11ELi0EED0Ev
1502:__ZNK6google8protobuf8internal12MapFieldLiteINSt3__212basic_stringIcNS3_11char_traitsIcEENS3_9allocatorIcEEEENS0_5ValueELNS1_14WireFormatLite9FieldTypeE9ELSC_11ELi0EE4sizeEv
1503:__ZN6google8protobuf8internal12MapFieldLiteINSt3__212basic_stringIcNS3_11char_traitsIcEENS3_9allocatorIcEEEENS0_5ValueELNS1_14WireFormatLite9FieldTypeE9ELSC_11ELi0EE5ClearEv
1504:__ZN6google8protobuf8internal12MapFieldLiteINSt3__212basic_stringIcNS3_11char_traitsIcEENS3_9allocatorIcEEEENS0_5ValueELNS1_14WireFormatLite9FieldTypeE9ELSC_11ELi0EE4SwapEPSD_
1505:__ZN6google8protobuf8internal8MapFieldINSt3__212basic_stringIcNS3_11char_traitsIcEENS3_9allocatorIcEEEENS0_5ValueELNS1_14WireFormatLite9FieldTypeE9ELSC_11ELi0EEC2Ev
1506:__ZN6google8protobuf5ValueD0Ev
1507:__ZNK6google8protobuf5Value3NewEPNS0_5ArenaE
1508:__ZN6google8protobuf5Value5ClearEv
1509:__ZNK6google8protobuf5Value24SerializeWithCachedSizesEPNS0_2io17CodedOutputStreamE
1510:__ZNK6google8protobuf5Value39InternalSerializeWithCachedSizesToArrayEbPh
1511:__ZN6google8protobuf5Value9MergeFromERKNS0_7MessageE
1512:__ZNK6google8protobuf5Value11GetMetadataEv
1513:__ZN6google8protobuf8internal8MapEntryINSt3__212basic_stringIcNS3_11char_traitsIcEENS3_9allocatorIcEEEENS0_5ValueELNS1_14WireFormatLite9FieldTypeE9ELSC_11ELi0EED2Ev
1514:__ZN6google8protobuf8internal8MapEntryINSt3__212basic_stringIcNS3_11char_traitsIcEENS3_9allocatorIcEEEENS0_5ValueELNS1_14WireFormatLite9FieldTypeE9ELSC_11ELi0EED0Ev
1515:__ZNK6google8protobuf8internal8MapEntryINSt3__212basic_stringIcNS3_11char_traitsIcEENS3_9allocatorIcEEEENS0_5ValueELNS1_14WireFormatLite9FieldTypeE9ELSC_11ELi0EE3NewEv
1516:__ZNK6google8protobuf8internal8MapEntryINSt3__212basic_stringIcNS3_11char_traitsIcEENS3_9allocatorIcEEEENS0_5ValueELNS1_14WireFormatLite9FieldTypeE9ELSC_11ELi0EE3NewEPNS0_5ArenaE
1517:__ZNK6google8protobuf8internal8MapEntryINSt3__212basic_stringIcNS3_11char_traitsIcEENS3_9allocatorIcEEEENS0_5ValueELNS1_14WireFormatLite9FieldTypeE9ELSC_11ELi0EE8GetArenaEv
1518:__ZN6google8protobuf8internal8MapEntryINSt3__212basic_stringIcNS3_11char_traitsIcEENS3_9allocatorIcEEEENS0_5ValueELNS1_14WireFormatLite9FieldTypeE9ELSC_11ELi0EE5ClearEv
1519:__ZNK6google8protobuf8internal8MapEntryINSt3__212basic_stringIcNS3_11char_traitsIcEENS3_9allocatorIcEEEENS0_5ValueELNS1_14WireFormatLite9FieldTypeE9ELSC_11ELi0EE13IsInitializedEv
1520:__ZN6google8protobuf8internal8MapEntryINSt3__212basic_stringIcNS3_11char_traitsIcEENS3_9allocatorIcEEEENS0_5ValueELNS1_14WireFormatLite9FieldTypeE9ELSC_11ELi0EE27MergePartialFromCodedStreamEPNS0_2io16CodedInputStreamE
1521:__ZNK6google8protobuf8internal8MapEntryINSt3__212basic_stringIcNS3_11char_traitsIcEENS3_9allocatorIcEEEENS0_5ValueELNS1_14WireFormatLite9FieldTypeE9ELSC_11ELi0EE12ByteSizeLongEv
1522:__ZNK6google8protobuf8internal8MapEntryINSt3__212basic_stringIcNS3_11char_traitsIcEENS3_9allocatorIcEEEENS0_5ValueELNS1_14WireFormatLite9FieldTypeE9ELSC_11ELi0EE24SerializeWithCachedSizesEPNS0_2io17CodedOutputStreamE
1523:__ZNK6google8protobuf8internal8MapEntryINSt3__212basic_stringIcNS3_11char_traitsIcEENS3_9allocatorIcEEEENS0_5ValueELNS1_14WireFormatLite9FieldTypeE9ELSC_11ELi0EE13GetCachedSizeEv
1524:__ZNK6google8protobuf8internal8MapEntryINSt3__212basic_stringIcNS3_11char_traitsIcEENS3_9allocatorIcEEEENS0_5ValueELNS1_14WireFormatLite9FieldTypeE9ELSC_11ELi0EE39InternalSerializeWithCachedSizesToArrayEbPh
1525:__ZN6google8protobuf8internal8MapEntryINSt3__212basic_stringIcNS3_11char_traitsIcEENS3_9allocatorIcEEEENS0_5ValueELNS1_14WireFormatLite9FieldTypeE9ELSC_11ELi0EE8CopyFromERKNS0_7MessageE
1526:__ZN6google8protobuf8internal8MapEntryINSt3__212basic_stringIcNS3_11char_traitsIcEENS3_9allocatorIcEEEENS0_5ValueELNS1_14WireFormatLite9FieldTypeE9ELSC_11ELi0EE9MergeFromERKNS0_7MessageE
1527:__ZNK6google8protobuf8internal8MapEntryINSt3__212basic_stringIcNS3_11char_traitsIcEENS3_9allocatorIcEEEENS0_5ValueELNS1_14WireFormatLite9FieldTypeE9ELSC_11ELi0EE9SpaceUsedEv
1528:__ZNK6google8protobuf8internal12MapEntryBase11GetMetadataEv
1529:__ZNK6google8protobuf8internal8MapEntryINSt3__212basic_stringIcNS3_11char_traitsIcEENS3_9allocatorIcEEEENS0_5ValueELNS1_14WireFormatLite9FieldTypeE9ELSC_11ELi0EE3keyEv
1530:__ZNK6google8protobuf8internal8MapEntryINSt3__212basic_stringIcNS3_11char_traitsIcEENS3_9allocatorIcEEEENS0_5ValueELNS1_14WireFormatLite9FieldTypeE9ELSC_11ELi0EE5valueEv
1531:__ZNSt3__26__sortIRN6google8protobuf8internal19CompareByDerefFirstIPKNS2_7MapPairINS_12basic_stringIcNS_11char_traitsIcEENS_9allocatorIcEEEENS2_5ValueEEEEEPSF_EEvT0_SJ_T_
1532:__ZNSt3__27__sort3IRN6google8protobuf8internal19CompareByDerefFirstIPKNS2_7MapPairINS_12basic_stringIcNS_11char_traitsIcEENS_9allocatorIcEEEENS2_5ValueEEEEEPSF_EEjT0_SJ_SJ_T_
1533:__ZNSt3__27__sort4IRN6google8protobuf8internal19CompareByDerefFirstIPKNS2_7MapPairINS_12basic_stringIcNS_11char_traitsIcEENS_9allocatorIcEEEENS2_5ValueEEEEEPSF_EEjT0_SJ_SJ_SJ_T_
1534:__ZNSt3__27__sort5IRN6google8protobuf8internal19CompareByDerefFirstIPKNS2_7MapPairINS_12basic_stringIcNS_11char_traitsIcEENS_9allocatorIcEEEENS2_5ValueEEEEEPSF_EEjT0_SJ_SJ_SJ_SJ_T_
1535:__ZNSt3__218__insertion_sort_3IRN6google8protobuf8internal19CompareByDerefFirstIPKNS2_7MapPairINS_12basic_stringIcNS_11char_traitsIcEENS_9allocatorIcEEEENS2_5ValueEEEEEPSF_EEvT0_SJ_T_
1536:__ZNSt3__227__insertion_sort_incompleteIRN6google8protobuf8internal19CompareByDerefFirstIPKNS2_7MapPairINS_12basic_stringIcNS_11char_traitsIcEENS_9allocatorIcEEEENS2_5ValueEEEEEPSF_EEbT0_SJ_T_
1537:__ZN6google8protobuf8internal12MapEntryLiteINSt3__212basic_stringIcNS3_11char_traitsIcEENS3_9allocatorIcEEEENS0_5ValueELNS1_14WireFormatLite9FieldTypeE9ELSC_11ELi0EE6ParserINS1_8MapFieldIS9_SA_LSC_9ELSC_11ELi0EEENS0_3MapIS9_SA_EEE27MergePartialFromCodedStreamEPNS0_2io16CodedInputStreamE
1538:__ZN6google8protobuf8internal12MapEntryLiteINSt3__212basic_stringIcNS3_11char_traitsIcEENS3_9allocatorIcEEEENS0_5ValueELNS1_14WireFormatLite9FieldTypeE9ELSC_11ELi0EE6ParserINS1_8MapFieldIS9_SA_LSC_9ELSC_11ELi0EEENS0_3MapIS9_SA_EEE22ReadBeyondKeyValuePairEPNS0_2io16CodedInputStreamE
1539:__ZN6google8protobuf8internal12MapEntryLiteINSt3__212basic_stringIcNS3_11char_traitsIcEENS3_9allocatorIcEEEENS0_5ValueELNS1_14WireFormatLite9FieldTypeE9ELSC_11ELi0EE6ParserINS1_8MapFieldIS9_SA_LSC_9ELSC_11ELi0EEENS0_3MapIS9_SA_EEE23UseKeyAndValueFromEntryEv
1540:__ZN6google8protobuf5Value4SwapEPS1_
1541:__GLOBAL__sub_I_struct_pb_cc
1542:__ZN6google8protobuf7strings10SubstituteEPKcRKNS1_8internal13SubstituteArgES7_S7_S7_S7_S7_S7_S7_S7_S7_
1543:__ZN6google8protobuf7strings19SubstituteAndAppendEPNSt3__212basic_stringIcNS2_11char_traitsIcEENS2_9allocatorIcEEEEPKcRKNS1_8internal13SubstituteArgESF_SF_SF_SF_SF_SF_SF_SF_SF_
1544:__ZNK6google8protobuf10TextFormat17FieldValuePrinter9PrintBoolEb
1545:__ZNK6google8protobuf10TextFormat17FieldValuePrinter10PrintInt32Ei
1546:__ZNK6google8protobuf10TextFormat17FieldValuePrinter11PrintUInt32Ej
1547:__ZNK6google8protobuf10TextFormat17FieldValuePrinter10PrintInt64Ex
1548:__ZNK6google8protobuf10TextFormat17FieldValuePrinter11PrintUInt64Ey
1549:__ZNK6google8protobuf10TextFormat17FieldValuePrinter10PrintFloatEf
1550:__ZNK6google8protobuf10TextFormat17FieldValuePrinter11PrintDoubleEd
1551:__ZNK6google8protobuf10TextFormat17FieldValuePrinter11PrintStringERKNSt3__212basic_stringIcNS3_11char_traitsIcEENS3_9allocatorIcEEEE
1552:__ZNK6google8protobuf10TextFormat17FieldValuePrinter10PrintBytesERKNSt3__212basic_stringIcNS3_11char_traitsIcEENS3_9allocatorIcEEEE
1553:__ZNK6google8protobuf10TextFormat17FieldValuePrinter9PrintEnumEiRKNSt3__212basic_stringIcNS3_11char_traitsIcEENS3_9allocatorIcEEEE
1554:__ZNK6google8protobuf10TextFormat17FieldValuePrinter14PrintFieldNameERKNS0_7MessageEPKNS0_10ReflectionEPKNS0_15FieldDescriptorE
1555:__ZNK6google8protobuf10TextFormat17FieldValuePrinter17PrintMessageStartERKNS0_7MessageEiib
1556:__ZNK6google8protobuf10TextFormat17FieldValuePrinter15PrintMessageEndERKNS0_7MessageEiib
1557:__ZN6google8protobuf10TextFormat7PrinterD2Ev
1558:__ZNSt3__26__treeINS_12__value_typeIPKN6google8protobuf15FieldDescriptorEPKNS3_10TextFormat17FieldValuePrinterEEENS_19__map_value_compareIS6_SB_NS_4lessIS6_EELb1EEENS_9allocatorISB_EEE7destroyEPNS_11__tree_nodeISB_PvEE
1559:__ZNK6google8protobuf10TextFormat7Printer5PrintERKNS0_7MessageERNS2_13TextGeneratorE
1560:__ZNK6google8protobuf10TextFormat7Printer8PrintAnyERKNS0_7MessageERNS2_13TextGeneratorE
1561:__ZNSt3__26__sortIRN6google8protobuf12_GLOBAL__N_116FieldIndexSorterEPPKNS2_15FieldDescriptorEEEvT0_SA_T_
1562:__ZNK6google8protobuf10TextFormat7Printer10PrintFieldERKNS0_7MessageEPKNS0_10ReflectionEPKNS0_15FieldDescriptorERNS2_13TextGeneratorE
1563:__ZNK6google8protobuf10TextFormat7Printer18PrintUnknownFieldsERKNS0_15UnknownFieldSetERNS2_13TextGeneratorE
1564:__ZN6google8protobuf10TextFormat7Printer13TextGenerator5WriteEPKcj
1565:__ZN6google8protobuf10TextFormat7Printer13TextGenerator7OutdentEv
1566:__ZNK6google8protobuf10TextFormat7Printer23PrintShortRepeatedFieldERKNS0_7MessageEPKNS0_10ReflectionEPKNS0_15FieldDescriptorERNS2_13TextGeneratorE
1567:__ZNSt3__213__stable_sortIRN6google8protobuf25MapEntryMessageComparatorENS_11__wrap_iterIPPKNS2_7MessageEEEEEvT0_SB_T_NS_15iterator_traitsISB_E15difference_typeEPNSE_10value_typeEi
1568:__ZNK6google8protobuf10TextFormat7Printer14PrintFieldNameERKNS0_7MessageEPKNS0_10ReflectionEPKNS0_15FieldDescriptorERNS2_13TextGeneratorE
1569:__ZNK6google8protobuf10TextFormat7Printer15PrintFieldValueERKNS0_7MessageEPKNS0_10ReflectionEPKNS0_15FieldDescriptorEiRNS2_13TextGeneratorE
1570:__ZN6google8protobuf25MapEntryMessageComparatorclEPKNS0_7MessageES4_
1571:__ZNSt3__218__stable_sort_moveIRN6google8protobuf25MapEntryMessageComparatorENS_11__wrap_iterIPPKNS2_7MessageEEEEEvT0_SB_T_NS_15iterator_traitsISB_E15difference_typeEPNSE_10value_typeE
1572:__ZNSt3__215__inplace_mergeIRN6google8protobuf25MapEntryMessageComparatorENS_11__wrap_iterIPPKNS2_7MessageEEEEEvT0_SB_SB_T_NS_15iterator_traitsISB_E15difference_typeESF_PNSE_10value_typeEi
1573:__ZNSt3__224__buffered_inplace_mergeIRN6google8protobuf25MapEntryMessageComparatorENS_11__wrap_iterIPPKNS2_7MessageEEEEEvT0_SB_SB_T_NS_15iterator_traitsISB_E15difference_typeESF_PNSE_10value_typeE
1574:__ZNSt3__27__sort3IRN6google8protobuf12_GLOBAL__N_116FieldIndexSorterEPPKNS2_15FieldDescriptorEEEjT0_SA_SA_T_
1575:__ZNSt3__27__sort4IRN6google8protobuf12_GLOBAL__N_116FieldIndexSorterEPPKNS2_15FieldDescriptorEEEjT0_SA_SA_SA_T_
1576:__ZNSt3__27__sort5IRN6google8protobuf12_GLOBAL__N_116FieldIndexSorterEPPKNS2_15FieldDescriptorEEEjT0_SA_SA_SA_SA_T_
1577:__ZNSt3__227__insertion_sort_incompleteIRN6google8protobuf12_GLOBAL__N_116FieldIndexSorterEPPKNS2_15FieldDescriptorEEEbT0_SA_T_
1578:__ZN6google8protobuf10TextFormat13ParseInfoTree14RecordLocationEPKNS0_15FieldDescriptorENS1_13ParseLocationE
1579:__ZN6google8protobuf10TextFormat13ParseInfoTree12CreateNestedEPKNS0_15FieldDescriptorE
1580:__ZN6google8protobuf10TextFormat6ParserC2Ev
1581:__ZN6google8protobuf10TextFormat6Parser5ParseEPNS0_2io19ZeroCopyInputStreamEPNS0_7MessageE
1582:__ZN6google8protobuf10TextFormat6Parser10ParserImplC2EPKNS0_10DescriptorEPNS0_2io19ZeroCopyInputStreamEPNS7_14ErrorCollectorEPNS1_6FinderEPNS1_13ParseInfoTreeENS3_23SingularOverwritePolicyEbbbbbb
1583:__ZN6google8protobuf10TextFormat6Parser14MergeUsingImplEPNS0_2io19ZeroCopyInputStreamEPNS0_7MessageEPNS2_10ParserImplE
1584:__ZN6google8protobuf10TextFormat6Parser10ParserImpl12ConsumeFieldEPNS0_7MessageE
1585:__ZN6google8protobuf10TextFormat6Parser10ParserImpl11ReportErrorEiiRKNSt3__212basic_stringIcNS4_11char_traitsIcEENS4_9allocatorIcEEEE
1586:__ZN6google8protobuf10TextFormat6Parser10ParserImpl17ConsumeAnyTypeUrlEPNSt3__212basic_stringIcNS4_11char_traitsIcEENS4_9allocatorIcEEEESB_
1587:__ZN6google8protobuf10TextFormat6Parser10ParserImpl7ConsumeERKNSt3__212basic_stringIcNS4_11char_traitsIcEENS4_9allocatorIcEEEE
1588:__ZN6google8protobuf10TextFormat6Parser10ParserImpl15ConsumeAnyValueERKNSt3__212basic_stringIcNS4_11char_traitsIcEENS4_9allocatorIcEEEEPKNS0_14DescriptorPoolEPSA_
1589:__ZN6google8protobuf10TextFormat6Parser10ParserImpl19ConsumeFullTypeNameEPNSt3__212basic_stringIcNS4_11char_traitsIcEENS4_9allocatorIcEEEE
1590:__ZN6google8protobuf10TextFormat6Parser10ParserImpl13ReportWarningEiiRKNSt3__212basic_stringIcNS4_11char_traitsIcEENS4_9allocatorIcEEEE
1591:__ZN6google8protobuf10TextFormat6Parser10ParserImpl17ConsumeIdentifierEPNSt3__212basic_stringIcNS4_11char_traitsIcEENS4_9allocatorIcEEEE
1592:__ZN6google8protobuf10TextFormat6Parser10ParserImpl14SkipFieldValueEv
1593:__ZN6google8protobuf10TextFormat6Parser10ParserImpl16SkipFieldMessageEv
1594:__ZN6google8protobuf10TextFormat6Parser10ParserImpl19ConsumeFieldMessageEPNS0_7MessageEPKNS0_10ReflectionEPKNS0_15FieldDescriptorE
1595:__ZN6google8protobuf10TextFormat6Parser10ParserImpl17ConsumeFieldValueEPNS0_7MessageEPKNS0_10ReflectionEPKNS0_15FieldDescriptorE
1596:__ZN6google8protobuf10TextFormat6Parser10ParserImpl22ConsumeUnsignedIntegerEPyy
1597:__ZN6google8protobuf10TextFormat6Parser10ParserImpl13ConsumeDoubleEPd
1598:__ZN6google8protobuf10TextFormat6Parser10ParserImpl13ConsumeStringEPNSt3__212basic_stringIcNS4_11char_traitsIcEENS4_9allocatorIcEEEE
1599:__ZN6google8protobuf10TextFormat6Parser10ParserImpl29ConsumeUnsignedDecimalIntegerEPyy
1600:__ZN6google8protobuf10TextFormat6Parser10ParserImpl23ConsumeMessageDelimiterEPNSt3__212basic_stringIcNS4_11char_traitsIcEENS4_9allocatorIcEEEE
1601:__ZN6google8protobuf10TextFormat6Parser10ParserImpl14ConsumeMessageEPNS0_7MessageENSt3__212basic_stringIcNS6_11char_traitsIcEENS6_9allocatorIcEEEE
1602:__ZN6google8protobuf10TextFormat6Parser10ParserImpl9SkipFieldEv
1603:__ZN6google8protobuf10TextFormat6Parser10ParserImpl20ParserErrorCollector8AddErrorEiiRKNSt3__212basic_stringIcNS5_11char_traitsIcEENS5_9allocatorIcEEEE
1604:__ZN6google8protobuf10TextFormat6Parser10ParserImpl20ParserErrorCollector10AddWarningEiiRKNSt3__212basic_stringIcNS5_11char_traitsIcEENS5_9allocatorIcEEEE
1605:__ZN6google8protobuf10TextFormat6Parser15ParseFromStringERKNSt3__212basic_stringIcNS3_11char_traitsIcEENS3_9allocatorIcEEEEPNS0_7MessageE
1606:__ZN6google8protobuf10TextFormat7PrinterC2Ev
1607:__ZNK6google8protobuf10TextFormat7Printer23PrintFieldValueToStringERKNS0_7MessageEPKNS0_15FieldDescriptorEiPNSt3__212basic_stringIcNS9_11char_traitsIcEENS9_9allocatorIcEEEE
1608:__ZN6google8protobuf10TextFormat23PrintFieldValueToStringERKNS0_7MessageEPKNS0_15FieldDescriptorEiPNSt3__212basic_stringIcNS8_11char_traitsIcEENS8_9allocatorIcEEEE
1609:__ZN6google8protobuf9TimestampD2Ev
1610:__ZN6google8protobuf9TimestampD0Ev
1611:__ZNK6google8protobuf9Timestamp3NewEPNS0_5ArenaE
1612:__ZN6google8protobuf9Timestamp9MergeFromERKNS0_7MessageE
1613:__ZNK6google8protobuf9Timestamp11GetMetadataEv
1614:__ZN6google8protobuf57protobuf_AssignDesc_google_2fprotobuf_2ftimestamp_2eprotoEv
1615:__ZN6google8protobuf59protobuf_AddDesc_google_2fprotobuf_2ftimestamp_2eproto_implEv
1616:__ZN6google8protobuf64protobuf_InitDefaults_google_2fprotobuf_2ftimestamp_2eproto_implEv
1617:__ZN6google8protobuf12_GLOBAL__N_122protobuf_RegisterTypesERKNSt3__212basic_stringIcNS2_11char_traitsIcEENS2_9allocatorIcEEEE_995
1618:__ZN6google8protobuf59protobuf_ShutdownFile_google_2fprotobuf_2ftimestamp_2eprotoEv
1619:__ZN6google8protobuf9TimestampC2Ev
1620:__GLOBAL__sub_I_timestamp_pb_cc
1621:__ZN6google8protobuf4TypeD2Ev
1622:__ZN6google8protobuf4TypeD0Ev
1623:__ZNK6google8protobuf4Type3NewEPNS0_5ArenaE
1624:__ZN6google8protobuf4Type5ClearEv
1625:__ZN6google8protobuf4Type27MergePartialFromCodedStreamEPNS0_2io16CodedInputStreamE
1626:__ZNK6google8protobuf4Type12ByteSizeLongEv
1627:__ZNK6google8protobuf4Type24SerializeWithCachedSizesEPNS0_2io17CodedOutputStreamE
1628:__ZNK6google8protobuf4Type13GetCachedSizeEv
1629:__ZNK6google8protobuf4Type39InternalSerializeWithCachedSizesToArrayEbPh
1630:__ZN6google8protobuf4Type9MergeFromERKNS0_7MessageE
1631:__ZNK6google8protobuf4Type13SetCachedSizeEi
1632:__ZNK6google8protobuf4Type11GetMetadataEv
1633:__ZN6google8protobuf52protobuf_AssignDesc_google_2fprotobuf_2ftype_2eprotoEv
1634:__ZN6google8protobuf54protobuf_AddDesc_google_2fprotobuf_2ftype_2eproto_implEv
1635:__ZN6google8protobuf59protobuf_InitDefaults_google_2fprotobuf_2ftype_2eproto_implEv
1636:__ZN6google8protobuf12_GLOBAL__N_122protobuf_RegisterTypesERKNSt3__212basic_stringIcNS2_11char_traitsIcEENS2_9allocatorIcEEEE_1003
1637:__ZN6google8protobuf54protobuf_ShutdownFile_google_2fprotobuf_2ftype_2eprotoEv
1638:__ZN6google8protobuf6OptionD2Ev
1639:__ZN6google8protobuf6OptionD0Ev
1640:__ZNK6google8protobuf6Option3NewEPNS0_5ArenaE
1641:__ZN6google8protobuf6Option5ClearEv
1642:__ZN6google8protobuf6Option27MergePartialFromCodedStreamEPNS0_2io16CodedInputStreamE
1643:__ZNK6google8protobuf6Option12ByteSizeLongEv
1644:__ZNK6google8protobuf6Option24SerializeWithCachedSizesEPNS0_2io17CodedOutputStreamE
1645:__ZNK6google8protobuf6Option39InternalSerializeWithCachedSizesToArrayEbPh
1646:__ZN6google8protobuf6Option9MergeFromERKNS0_7MessageE
1647:__ZNK6google8protobuf6Option11GetMetadataEv
1648:__ZN6google8protobuf12_GLOBAL__N_1L13MergeFromFailEi_1010
1649:__ZN6google8protobuf6Option15UnsafeMergeFromERKS1_
1650:__ZN6google8protobuf6Option19_slow_mutable_valueEv
1651:__ZN6google8protobuf6OptionC2Ev
1652:__ZN6google8protobuf9EnumValueD2Ev
1653:__ZN6google8protobuf9EnumValueD0Ev
1654:__ZNK6google8protobuf9EnumValue3NewEPNS0_5ArenaE
1655:__ZN6google8protobuf9EnumValue5ClearEv
1656:__ZN6google8protobuf9EnumValue27MergePartialFromCodedStreamEPNS0_2io16CodedInputStreamE
1657:__ZNK6google8protobuf9EnumValue12ByteSizeLongEv
1658:__ZNK6google8protobuf9EnumValue24SerializeWithCachedSizesEPNS0_2io17CodedOutputStreamE
1659:__ZNK6google8protobuf9EnumValue39InternalSerializeWithCachedSizesToArrayEbPh
1660:__ZN6google8protobuf9EnumValue9MergeFromERKNS0_7MessageE
1661:__ZNK6google8protobuf9EnumValue13SetCachedSizeEi
1662:__ZNK6google8protobuf9EnumValue11GetMetadataEv
1663:__ZN6google8protobuf9EnumValueC2Ev
1664:__ZN6google8protobuf4EnumD2Ev
1665:__ZN6google8protobuf4EnumD0Ev
1666:__ZNK6google8protobuf4Enum3NewEPNS0_5ArenaE
1667:__ZN6google8protobuf4Enum5ClearEv
1668:__ZN6google8protobuf4Enum27MergePartialFromCodedStreamEPNS0_2io16CodedInputStreamE
1669:__ZNK6google8protobuf4Enum12ByteSizeLongEv
1670:__ZNK6google8protobuf4Enum24SerializeWithCachedSizesEPNS0_2io17CodedOutputStreamE
1671:__ZNK6google8protobuf4Enum39InternalSerializeWithCachedSizesToArrayEbPh
1672:__ZN6google8protobuf4Enum9MergeFromERKNS0_7MessageE
1673:__ZNK6google8protobuf4Enum11GetMetadataEv
1674:__ZN6google8protobuf4Enum15UnsafeMergeFromERKS1_
1675:__ZN6google8protobuf16RepeatedPtrFieldINS0_9EnumValueEE9MergeFromERKS3_
1676:__ZN6google8protobuf4Enum28_slow_mutable_source_contextEv
1677:__ZN6google8protobuf8internal18GenericTypeHandlerINS0_9EnumValueEE5MergeERKS3_PS3_
1678:__ZN6google8protobuf8internal18GenericTypeHandlerINS0_9EnumValueEE16NewFromPrototypeEPKS3_PNS0_5ArenaE
1679:__ZN6google8protobuf4EnumC2Ev
1680:__ZN6google8protobuf5FieldD2Ev
1681:__ZN6google8protobuf5FieldD0Ev
1682:__ZNK6google8protobuf5Field3NewEPNS0_5ArenaE
1683:__ZN6google8protobuf5Field5ClearEv
1684:__ZN6google8protobuf5Field27MergePartialFromCodedStreamEPNS0_2io16CodedInputStreamE
1685:__ZNK6google8protobuf5Field12ByteSizeLongEv
1686:__ZNK6google8protobuf5Field24SerializeWithCachedSizesEPNS0_2io17CodedOutputStreamE
1687:__ZNK6google8protobuf5Field13GetCachedSizeEv
1688:__ZNK6google8protobuf5Field39InternalSerializeWithCachedSizesToArrayEbPh
1689:__ZN6google8protobuf5Field9MergeFromERKNS0_7MessageE
1690:__ZNK6google8protobuf5Field13SetCachedSizeEi
1691:__ZNK6google8protobuf5Field11GetMetadataEv
1692:__ZN6google8protobuf5Field15UnsafeMergeFromERKS1_
1693:__ZN6google8protobuf5FieldC2Ev
1694:__ZN6google8protobuf5Field10SharedDtorEv
1695:__ZN6google8protobuf4Type15UnsafeMergeFromERKS1_
1696:__ZN6google8protobuf16RepeatedPtrFieldINS0_5FieldEE9MergeFromERKS3_
1697:__ZN6google8protobuf4Type28_slow_mutable_source_contextEv
1698:__ZN6google8protobuf8internal18GenericTypeHandlerINS0_5FieldEE5MergeERKS3_PS3_
1699:__ZN6google8protobuf8internal18GenericTypeHandlerINS0_5FieldEE16NewFromPrototypeEPKS3_PNS0_5ArenaE
1700:__ZN6google8protobuf4TypeC2Ev
1701:__GLOBAL__sub_I_type_pb_cc
1702:__ZN6google8protobuf54protobuf_InitDefaults_google_2fprotobuf_2ftype_2eprotoEv
1703:__ZN6google8protobuf6OptionC2EPNS0_5ArenaE
1704:__ZN6google8protobuf15UnknownFieldSet16default_instanceEv
1705:__ZN6google8protobuf12_GLOBAL__N_126InitDefaultUnknownFieldSetEv
1706:__ZN6google8protobuf12_GLOBAL__N_128DeleteDefaultUnknownFieldSetEv
1707:__ZN6google8protobuf15UnknownFieldSet13ClearFallbackEv
1708:__ZN6google8protobuf15UnknownFieldSet17InternalMergeFromERKS1_
1709:__ZNSt3__26vectorIN6google8protobuf12UnknownFieldENS_9allocatorIS3_EEE21__push_back_slow_pathIKS3_EEvRT_
1710:__ZN6google8protobuf15UnknownFieldSet9MergeFromERKS1_
1711:__ZN6google8protobuf15UnknownFieldSet19MergeFromAndDestroyEPS1_
1712:__ZN6google8protobuf15UnknownFieldSet22MergeToInternalMetdataERKS1_PNS0_8internal25InternalMetadataWithArenaE
1713:__ZNK6google8protobuf15UnknownFieldSet22SpaceUsedExcludingSelfEv
1714:__ZN6google8protobuf15UnknownFieldSet9AddVarintEiy
1715:__ZN6google8protobuf15UnknownFieldSet10AddFixed32Eij
1716:__ZN6google8protobuf15UnknownFieldSet10AddFixed64Eiy
1717:__ZN6google8protobuf15UnknownFieldSet18AddLengthDelimitedEi
1718:__ZN6google8protobuf15UnknownFieldSet8AddGroupEi
1719:__ZN6google8protobuf15UnknownFieldSet20ParseFromCodedStreamEPNS0_2io16CodedInputStreamE
1720:__ZN6google8protobuf15UnknownFieldSet14ParseFromArrayEPKvi
1721:__ZNK6google8protobuf12UnknownField29SerializeLengthDelimitedNoTagEPNS0_2io17CodedOutputStreamE
1722:__ZN6google8protobuf8internal27UnknownFieldSetFieldSkipper9SkipFieldEPNS0_2io16CodedInputStreamEj
1723:__ZN6google8protobuf8internal27UnknownFieldSetFieldSkipper11SkipMessageEPNS0_2io16CodedInputStreamE
1724:__ZN6google8protobuf8internal27UnknownFieldSetFieldSkipper15SkipUnknownEnumEii
1725:__ZN6google8protobuf8internal10WireFormat9SkipFieldEPNS0_2io16CodedInputStreamEjPNS0_15UnknownFieldSetE
1726:__ZN6google8protobuf8internal10WireFormat11SkipMessageEPNS0_2io16CodedInputStreamEPNS0_15UnknownFieldSetE
1727:__ZN6google8protobuf8internal10WireFormat22SerializeUnknownFieldsERKNS0_15UnknownFieldSetEPNS0_2io17CodedOutputStreamE
1728:__ZN6google8protobuf8internal10WireFormat29SerializeUnknownFieldsToArrayERKNS0_15UnknownFieldSetEPh
1729:__ZN6google8protobuf8internal10WireFormat31SerializeUnknownMessageSetItemsERKNS0_15UnknownFieldSetEPNS0_2io17CodedOutputStreamE
1730:__ZN6google8protobuf8internal10WireFormat24ComputeUnknownFieldsSizeERKNS0_15UnknownFieldSetE
1731:__ZN6google8protobuf8internal10WireFormat20ParseAndMergePartialEPNS0_2io16CodedInputStreamEPNS0_7MessageE
1732:__ZN6google8protobuf8internal10WireFormat18ParseAndMergeFieldEjPKNS0_15FieldDescriptorEPNS0_7MessageEPNS0_2io16CodedInputStreamE
1733:__ZN6google8protobuf8internal10WireFormat27ParseAndMergeMessageSetItemEPNS0_2io16CodedInputStreamEPNS0_7MessageE
1734:__ZN6google8protobuf8internal10WireFormat28ParseAndMergeMessageSetFieldEjPKNS0_15FieldDescriptorEPNS0_7MessageEPNS0_2io16CodedInputStreamE
1735:__ZN6google8protobuf8internal10WireFormat24SerializeWithCachedSizesERKNS0_7MessageEiPNS0_2io17CodedOutputStreamE
1736:__ZN6google8protobuf8internal10WireFormat29SerializeFieldWithCachedSizesEPKNS0_15FieldDescriptorERKNS0_7MessageEPNS0_2io17CodedOutputStreamE
1737:__ZN6google8protobuf8internal10WireFormat38SerializeMessageSetItemWithCachedSizesEPKNS0_15FieldDescriptorERKNS0_7MessageEPNS0_2io17CodedOutputStreamE
1738:__ZN6google8protobuf8internal10WireFormat21FieldDataOnlyByteSizeEPKNS0_15FieldDescriptorERKNS0_7MessageE
1739:__ZN6google8protobuf8internal10WireFormat8ByteSizeERKNS0_7MessageE
1740:__ZN6google8protobuf8internal10WireFormat13FieldByteSizeEPKNS0_15FieldDescriptorERKNS0_7MessageE
1741:__ZN6google8protobuf11DoubleValueD2Ev
1742:__ZN6google8protobuf11DoubleValueD0Ev
1743:__ZNK6google8protobuf11DoubleValue3NewEPNS0_5ArenaE
1744:__ZN6google8protobuf11DoubleValue5ClearEv
1745:__ZN6google8protobuf11DoubleValue27MergePartialFromCodedStreamEPNS0_2io16CodedInputStreamE
1746:__ZNK6google8protobuf11DoubleValue12ByteSizeLongEv
1747:__ZNK6google8protobuf11DoubleValue24SerializeWithCachedSizesEPNS0_2io17CodedOutputStreamE
1748:__ZNK6google8protobuf11DoubleValue39InternalSerializeWithCachedSizesToArrayEbPh
1749:__ZN6google8protobuf11DoubleValue9MergeFromERKNS0_7MessageE
1750:__ZNK6google8protobuf11DoubleValue11GetMetadataEv
1751:__ZN6google8protobuf56protobuf_AssignDesc_google_2fprotobuf_2fwrappers_2eprotoEv
1752:__ZN6google8protobuf58protobuf_AddDesc_google_2fprotobuf_2fwrappers_2eproto_implEv
1753:__ZN6google8protobuf63protobuf_InitDefaults_google_2fprotobuf_2fwrappers_2eproto_implEv
1754:__ZN6google8protobuf12_GLOBAL__N_122protobuf_RegisterTypesERKNSt3__212basic_stringIcNS2_11char_traitsIcEENS2_9allocatorIcEEEE_1089
1755:__ZN6google8protobuf58protobuf_ShutdownFile_google_2fprotobuf_2fwrappers_2eprotoEv
1756:__ZN6google8protobuf10BytesValueD2Ev
1757:__ZN6google8protobuf10BytesValueD0Ev
1758:__ZNK6google8protobuf10BytesValue3NewEPNS0_5ArenaE
1759:__ZN6google8protobuf10BytesValue27MergePartialFromCodedStreamEPNS0_2io16CodedInputStreamE
1760:__ZNK6google8protobuf10BytesValue24SerializeWithCachedSizesEPNS0_2io17CodedOutputStreamE
1761:__ZNK6google8protobuf10BytesValue39InternalSerializeWithCachedSizesToArrayEbPh
1762:__ZN6google8protobuf10BytesValue9MergeFromERKNS0_7MessageE
1763:__ZNK6google8protobuf10BytesValue11GetMetadataEv
1764:__ZN6google8protobuf12_GLOBAL__N_1L13MergeFromFailEi_1090
1765:__ZN6google8protobuf10BytesValueC2Ev
1766:__ZN6google8protobuf11StringValueD2Ev
1767:__ZN6google8protobuf11StringValueD0Ev
1768:__ZNK6google8protobuf11StringValue3NewEPNS0_5ArenaE
1769:__ZN6google8protobuf11StringValue27MergePartialFromCodedStreamEPNS0_2io16CodedInputStreamE
1770:__ZNK6google8protobuf11StringValue24SerializeWithCachedSizesEPNS0_2io17CodedOutputStreamE
1771:__ZNK6google8protobuf11StringValue39InternalSerializeWithCachedSizesToArrayEbPh
1772:__ZN6google8protobuf11StringValue9MergeFromERKNS0_7MessageE
1773:__ZNK6google8protobuf11StringValue11GetMetadataEv
1774:__ZN6google8protobuf11StringValueC2Ev
1775:__ZN6google8protobuf9BoolValueD2Ev
1776:__ZN6google8protobuf9BoolValueD0Ev
1777:__ZNK6google8protobuf9BoolValue3NewEPNS0_5ArenaE
1778:__ZN6google8protobuf9BoolValue5ClearEv
1779:__ZN6google8protobuf9BoolValue27MergePartialFromCodedStreamEPNS0_2io16CodedInputStreamE
1780:__ZNK6google8protobuf9BoolValue12ByteSizeLongEv
1781:__ZNK6google8protobuf9BoolValue24SerializeWithCachedSizesEPNS0_2io17CodedOutputStreamE
1782:__ZNK6google8protobuf9BoolValue39InternalSerializeWithCachedSizesToArrayEbPh
1783:__ZN6google8protobuf9BoolValue9MergeFromERKNS0_7MessageE
1784:__ZNK6google8protobuf9BoolValue11GetMetadataEv
1785:__ZN6google8protobuf9BoolValueC2Ev
1786:__ZN6google8protobuf11UInt32ValueD2Ev
1787:__ZN6google8protobuf11UInt32ValueD0Ev
1788:__ZNK6google8protobuf11UInt32Value3NewEPNS0_5ArenaE
1789:__ZN6google8protobuf11UInt32Value5ClearEv
1790:__ZN6google8protobuf11UInt32Value27MergePartialFromCodedStreamEPNS0_2io16CodedInputStreamE
1791:__ZNK6google8protobuf11UInt32Value12ByteSizeLongEv
1792:__ZNK6google8protobuf11UInt32Value24SerializeWithCachedSizesEPNS0_2io17CodedOutputStreamE
1793:__ZNK6google8protobuf11UInt32Value39InternalSerializeWithCachedSizesToArrayEbPh
1794:__ZN6google8protobuf11UInt32Value9MergeFromERKNS0_7MessageE
1795:__ZNK6google8protobuf11UInt32Value11GetMetadataEv
1796:__ZN6google8protobuf11UInt32ValueC2Ev
1797:__ZN6google8protobuf10Int32ValueD2Ev
1798:__ZN6google8protobuf10Int32ValueD0Ev
1799:__ZNK6google8protobuf10Int32Value3NewEPNS0_5ArenaE
1800:__ZN6google8protobuf10Int32Value27MergePartialFromCodedStreamEPNS0_2io16CodedInputStreamE
1801:__ZNK6google8protobuf10Int32Value12ByteSizeLongEv
1802:__ZNK6google8protobuf10Int32Value24SerializeWithCachedSizesEPNS0_2io17CodedOutputStreamE
1803:__ZNK6google8protobuf10Int32Value39InternalSerializeWithCachedSizesToArrayEbPh
1804:__ZN6google8protobuf10Int32Value9MergeFromERKNS0_7MessageE
1805:__ZNK6google8protobuf10Int32Value11GetMetadataEv
1806:__ZN6google8protobuf10Int32ValueC2Ev
1807:__ZN6google8protobuf11UInt64ValueD2Ev
1808:__ZN6google8protobuf11UInt64ValueD0Ev
1809:__ZNK6google8protobuf11UInt64Value3NewEPNS0_5ArenaE
1810:__ZN6google8protobuf11UInt64Value5ClearEv
1811:__ZN6google8protobuf11UInt64Value27MergePartialFromCodedStreamEPNS0_2io16CodedInputStreamE
1812:__ZNK6google8protobuf11UInt64Value12ByteSizeLongEv
1813:__ZNK6google8protobuf11UInt64Value24SerializeWithCachedSizesEPNS0_2io17CodedOutputStreamE
1814:__ZNK6google8protobuf11UInt64Value39InternalSerializeWithCachedSizesToArrayEbPh
1815:__ZN6google8protobuf11UInt64Value9MergeFromERKNS0_7MessageE
1816:__ZNK6google8protobuf11UInt64Value11GetMetadataEv
1817:__ZN6google8protobuf11UInt64ValueC2Ev
1818:__ZN6google8protobuf10Int64ValueD2Ev
1819:__ZN6google8protobuf10Int64ValueD0Ev
1820:__ZNK6google8protobuf10Int64Value3NewEPNS0_5ArenaE
1821:__ZN6google8protobuf10Int64Value27MergePartialFromCodedStreamEPNS0_2io16CodedInputStreamE
1822:__ZN6google8protobuf10Int64Value9MergeFromERKNS0_7MessageE
1823:__ZNK6google8protobuf10Int64Value11GetMetadataEv
1824:__ZN6google8protobuf10Int64ValueC2Ev
1825:__ZN6google8protobuf10FloatValueD2Ev
1826:__ZN6google8protobuf10FloatValueD0Ev
1827:__ZNK6google8protobuf10FloatValue3NewEPNS0_5ArenaE
1828:__ZN6google8protobuf10FloatValue5ClearEv
1829:__ZN6google8protobuf10FloatValue27MergePartialFromCodedStreamEPNS0_2io16CodedInputStreamE
1830:__ZNK6google8protobuf10FloatValue12ByteSizeLongEv
1831:__ZNK6google8protobuf10FloatValue24SerializeWithCachedSizesEPNS0_2io17CodedOutputStreamE
1832:__ZNK6google8protobuf10FloatValue39InternalSerializeWithCachedSizesToArrayEbPh
1833:__ZN6google8protobuf10FloatValue9MergeFromERKNS0_7MessageE
1834:__ZNK6google8protobuf10FloatValue11GetMetadataEv
1835:__ZN6google8protobuf10FloatValueC2Ev
1836:__ZN6google8protobuf11DoubleValueC2Ev
1837:__GLOBAL__sub_I_wrappers_pb_cc
1838:__ZN6google8protobuf2io14NoLocaleStrtodEPKcPPc
1839:__ZNSt3__212basic_stringIcNS_11char_traitsIcEENS_9allocatorIcEEE23__append_forward_unsafeIPKcEERS5_T_SA_
1840:__ZN6google8protobuf2io17SafeDoubleToFloatEd
1841:__ZN6google8protobuf2io9TokenizerC2EPNS1_19ZeroCopyInputStreamEPNS1_14ErrorCollectorE
1842:__ZN6google8protobuf2io9TokenizerD2Ev
1843:__ZN6google8protobuf2io9Tokenizer8NextCharEv
1844:__ZN6google8protobuf2io9Tokenizer13ConsumeStringEc
1845:__ZN6google8protobuf2io9Tokenizer13ConsumeNumberEbb
1846:__ZN6google8protobuf2io9Tokenizer19ConsumeBlockCommentEPNSt3__212basic_stringIcNS3_11char_traitsIcEENS3_9allocatorIcEEEE
1847:__ZN6google8protobuf2io9Tokenizer22TryConsumeCommentStartEv
1848:__ZN6google8protobuf2io9Tokenizer4NextEv
1849:__ZN6google8protobuf2io9Tokenizer12ParseIntegerERKNSt3__212basic_stringIcNS3_11char_traitsIcEENS3_9allocatorIcEEEEyPy
1850:__ZN6google8protobuf2io9Tokenizer10ParseFloatERKNSt3__212basic_stringIcNS3_11char_traitsIcEENS3_9allocatorIcEEEE
1851:__ZN6google8protobuf2io9Tokenizer17ParseStringAppendERKNSt3__212basic_stringIcNS3_11char_traitsIcEENS3_9allocatorIcEEEEPS9_
1852:__ZN6google8protobuf2io9Tokenizer12IsIdentifierERKNSt3__212basic_stringIcNS3_11char_traitsIcEENS3_9allocatorIcEEEE
1853:__GLOBAL__sub_I_parser_cc
1854:__ZNSt3__213unordered_mapINS_12basic_stringIcNS_11char_traitsIcEENS_9allocatorIcEEEEN6google8protobuf25FieldDescriptorProto_TypeENS8_4hashIS6_EENS_8equal_toIS6_EENS4_INS_4pairIKS6_S9_EEEEEixERSF_
1855:__ZNSt3__212__hash_tableINS_17__hash_value_typeINS_12basic_stringIcNS_11char_traitsIcEENS_9allocatorIcEEEEN6google8protobuf25FieldDescriptorProto_TypeEEENS_22__unordered_map_hasherIS7_SB_NS9_4hashIS7_EELb1EEENS_21__unordered_map_equalIS7_SB_NS_8equal_toIS7_EELb1EEENS5_ISB_EEE4findIS7_EENS_15__hash_iteratorIPNS_11__hash_nodeISB_PvEEEERKT_
1856:__ZNSt3__212__hash_tableINS_17__hash_value_typeINS_12basic_stringIcNS_11char_traitsIcEENS_9allocatorIcEEEEN6google8protobuf25FieldDescriptorProto_TypeEEENS_22__unordered_map_hasherIS7_SB_NS9_4hashIS7_EELb1EEENS_21__unordered_map_equalIS7_SB_NS_8equal_toIS7_EELb1EEENS5_ISB_EEE20__node_insert_uniqueEPNS_11__hash_nodeISB_PvEE
1857:__ZNSt3__212__hash_tableINS_17__hash_value_typeINS_12basic_stringIcNS_11char_traitsIcEENS_9allocatorIcEEEEN6google8protobuf25FieldDescriptorProto_TypeEEENS_22__unordered_map_hasherIS7_SB_NS9_4hashIS7_EELb1EEENS_21__unordered_map_equalIS7_SB_NS_8equal_toIS7_EELb1EEENS5_ISB_EEE6rehashEj
1858:__ZNSt3__212__hash_tableINS_17__hash_value_typeINS_12basic_stringIcNS_11char_traitsIcEENS_9allocatorIcEEEEN6google8protobuf25FieldDescriptorProto_TypeEEENS_22__unordered_map_hasherIS7_SB_NS9_4hashIS7_EELb1EEENS_21__unordered_map_equalIS7_SB_NS_8equal_toIS7_EELb1EEENS5_ISB_EEE8__rehashEj
1859:__ZN14chrome_lang_id35LanguageIdEmbeddingFeatureExtractorD2Ev
1860:__ZN14chrome_lang_id35LanguageIdEmbeddingFeatureExtractorD0Ev
1861:__ZNK14chrome_lang_id35LanguageIdEmbeddingFeatureExtractor9ArgPrefixEv
1862:__ZN14chrome_lang_id25EmbeddingFeatureExtractorINS_16FeatureExtractorINS_8SentenceEJEEES2_JEE5SetupEPNS_11TaskContextE
1863:__ZN14chrome_lang_id25EmbeddingFeatureExtractorINS_16FeatureExtractorINS_8SentenceEJEEES2_JEE4InitEPNS_11TaskContextE
1864:__ZN14chrome_lang_id25EmbeddingFeatureExtractorINS_16FeatureExtractorINS_8SentenceEJEEES2_JEE17RequestWorkspacesEPNS_17WorkspaceRegistryE
1865:__ZNK14chrome_lang_id25EmbeddingFeatureExtractorINS_16FeatureExtractorINS_8SentenceEJEEES2_JEE25generic_feature_extractorEi
1866:__ZNKSt3__26vectorIN14chrome_lang_id16FeatureExtractorINS1_8SentenceEJEEENS_9allocatorIS4_EEE2atEj
1867:__ZN14chrome_lang_id16FeatureExtractorINS_8SentenceEJEE17RequestWorkspacesEPNS_17WorkspaceRegistryE
1868:__ZN14chrome_lang_id16FeatureExtractorINS_8SentenceEJEE4InitEPNS_11TaskContextE
1869:__ZNSt3__26vectorIN14chrome_lang_id16FeatureExtractorINS1_8SentenceEJEEENS_9allocatorIS4_EEE6resizeEj
1870:__ZN14chrome_lang_id16FeatureExtractorINS_8SentenceEJEE5SetupEPNS_11TaskContextE
1871:__ZNSt3__26vectorIN14chrome_lang_id16FeatureExtractorINS1_8SentenceEJEEENS_9allocatorIS4_EEE8__appendEj
1872:__ZNSt3__26vectorIN14chrome_lang_id16FeatureExtractorINS1_8SentenceEJEEENS_9allocatorIS4_EEE18__construct_at_endEj
1873:__ZNSt3__214__split_bufferIN14chrome_lang_id16FeatureExtractorINS1_8SentenceEJEEERNS_9allocatorIS4_EEEC2EjjS7_
1874:__ZNSt3__214__split_bufferIN14chrome_lang_id16FeatureExtractorINS1_8SentenceEJEEERNS_9allocatorIS4_EEE18__construct_at_endEj
1875:__ZNSt3__26vectorIN14chrome_lang_id16FeatureExtractorINS1_8SentenceEJEEENS_9allocatorIS4_EEE26__swap_out_circular_bufferERNS_14__split_bufferIS4_RS6_EE
1876:__ZNSt3__214__split_bufferIN14chrome_lang_id16FeatureExtractorINS1_8SentenceEJEEERNS_9allocatorIS4_EEED2Ev
1877:__ZNSt3__26vectorIPN14chrome_lang_id15FeatureFunctionINS1_8SentenceEJEEENS_9allocatorIS5_EEEC2ERKS8_
1878:__ZNSt3__26vectorIPN14chrome_lang_id15FeatureFunctionINS1_8SentenceEJEEENS_9allocatorIS5_EEE8allocateEj
1879:__ZNSt3__26vectorIPN14chrome_lang_id15FeatureFunctionINS1_8SentenceEJEEENS_9allocatorIS5_EEE18__construct_at_endIPS5_EENS_9enable_ifIXsr21__is_forward_iteratorIT_EE5valueEvE4typeESC_SC_j
1880:__ZNSt3__213__vector_baseIPN14chrome_lang_id15FeatureFunctionINS1_8SentenceEJEEENS_9allocatorIS5_EEED2Ev
1881:__ZNKSt3__26vectorIPN14chrome_lang_id15FeatureFunctionINS1_8SentenceEJEEENS_9allocatorIS5_EEE8max_sizeEv
1882:__ZN14chrome_lang_id16FeatureExtractorINS_8SentenceEJEED2Ev
1883:__ZN14chrome_lang_id16FeatureExtractorINS_8SentenceEJEED0Ev
1884:__ZN14chrome_lang_id16FeatureExtractorINS_8SentenceEJEE26InitializeFeatureFunctionsEv
1885:__ZNK14chrome_lang_id16FeatureExtractorINS_8SentenceEJEE15GetFeatureTypesEPNSt3__26vectorIPNS_11FeatureTypeENS3_9allocatorIS6_EEEE
1886:__ZNK14chrome_lang_id23GenericFeatureExtractor10descriptorEv
1887:__ZNK14chrome_lang_id26FeatureExtractorDescriptor12feature_sizeEv
1888:__ZN14chrome_lang_id26FeatureExtractorDescriptor15mutable_featureEi
1889:__ZNSt3__211char_traitsIcE6lengthEPKc
1890:__ZNSt3__211char_traitsIcE4copyEPcPKcj
1891:__ZNSt3__211char_traitsIcE6assignERcRKc
1892:__ZNSt3__26vectorIPN14chrome_lang_id15FeatureFunctionINS1_8SentenceEJEEENS_9allocatorIS5_EEE21__push_back_slow_pathIRKS5_EEvOT_
1893:__ZNSt3__214__split_bufferIPN14chrome_lang_id15FeatureFunctionINS1_8SentenceEJEEERNS_9allocatorIS5_EEEC2EjjS8_
1894:__ZNSt3__26vectorIPN14chrome_lang_id15FeatureFunctionINS1_8SentenceEJEEENS_9allocatorIS5_EEE26__swap_out_circular_bufferERNS_14__split_bufferIS5_RS7_EE
1895:__ZNSt3__214__split_bufferIPN14chrome_lang_id15FeatureFunctionINS1_8SentenceEJEEERNS_9allocatorIS5_EEED2Ev
1896:__ZNK14chrome_lang_id25FeatureFunctionDescriptor4typeEv
1897:__ZN14chrome_lang_id17RegisterableClassINS_15FeatureFunctionINS_8SentenceEJEEEE8registryEv
1898:__ZNK14chrome_lang_id17ComponentRegistryIFPNS_15FeatureFunctionINS_8SentenceEJEEEvEE12GetComponentEPKc
1899:__ZNK14chrome_lang_id17ComponentRegistryIFPNS_15FeatureFunctionINS_8SentenceEJEEEvEE9Registrar6objectEv
1900:__ZNK14chrome_lang_id17ComponentRegistryIFPNS_15FeatureFunctionINS_8SentenceEJEEEvEE9Registrar4typeEv
1901:__ZN6google8protobuf8internal27GetEmptyStringAlreadyInitedEv
1902:__ZN6google8protobuf8internal20RepeatedPtrFieldBase7MutableINS0_16RepeatedPtrFieldIN14chrome_lang_id25FeatureFunctionDescriptorEE11TypeHandlerEEEPNT_4TypeEi
1903:__ZNK6google8protobuf16RepeatedPtrFieldIN14chrome_lang_id25FeatureFunctionDescriptorEE4sizeEv
1904:__ZN14chrome_lang_id5utils17STLDeleteElementsINSt3__26vectorIPNS_15FeatureFunctionINS_8SentenceEJEEENS2_9allocatorIS7_EEEEEEvPT_
1905:__ZNSt3__26vectorIPN14chrome_lang_id15FeatureFunctionINS1_8SentenceEJEEENS_9allocatorIS5_EEED2Ev
1906:__ZN14chrome_lang_id16FeatureExtractorINS_8SentenceEJEEC2Ev
1907:__ZN14chrome_lang_id25EmbeddingFeatureExtractorINS_16FeatureExtractorINS_8SentenceEJEEES2_JEED2Ev
1908:__ZNSt3__213__vector_baseIN14chrome_lang_id16FeatureExtractorINS1_8SentenceEJEEENS_9allocatorIS4_EEED2Ev
1909:__ZN14chrome_lang_id25EmbeddingFeatureExtractorINS_16FeatureExtractorINS_8SentenceEJEEES2_JEED0Ev
1910:__GLOBAL__sub_I_nnet_language_identifier_cc
1911:__ZN33EmscriptenBindingInitializer_cld3C2Ev
1912:__ZN10emscripten12value_objectIN14chrome_lang_id22NNetLanguageIdentifier6ResultEE5fieldIS3_NSt3__212basic_stringIcNS6_11char_traitsIcEENS6_9allocatorIcEEEEEERS4_PKcMT_T0_
1913:__ZN10emscripten12value_objectIN14chrome_lang_id22NNetLanguageIdentifier6ResultEE5fieldIS3_fEERS4_PKcMT_T0_
1914:__ZN10emscripten12value_objectIN14chrome_lang_id22NNetLanguageIdentifier6ResultEE5fieldIS3_bEERS4_PKcMT_T0_
1915:__ZN10emscripten15register_vectorIN14chrome_lang_id22NNetLanguageIdentifier6ResultEEENS_6class_INSt3__26vectorIT_NS5_9allocatorIS7_EEEENS_8internal11NoBaseClassEEEPKc
1916:__ZN10emscripten8internal13getActualTypeIN14chrome_lang_id22NNetLanguageIdentifierEEEPKvPT_
1917:__ZN10emscripten8internal14raw_destructorIN14chrome_lang_id22NNetLanguageIdentifierEEEvPT_
1918:__ZN10emscripten8internal12operator_newIN14chrome_lang_id22NNetLanguageIdentifierEJiiEEEPT_DpOT0_
1919:__ZN10emscripten8internal7InvokerIPN14chrome_lang_id22NNetLanguageIdentifierEJOiS5_EE6invokeEPFS4_S5_S5_Eii
1920:__ZN10emscripten8internal12GlobalAccessIfE3getEPf
1921:__ZN14chrome_lang_id22NNetLanguageIdentifier12FindLanguageERKNSt3__212basic_stringIcNS1_11char_traitsIcEENS1_9allocatorIcEEEE
1922:__ZN10emscripten8internal13MethodInvokerIMN14chrome_lang_id22NNetLanguageIdentifierEFNS3_6ResultERKNSt3__212basic_stringIcNS5_11char_traitsIcEENS5_9allocatorIcEEEEES4_PS3_JSD_EE6invokeERKSF_SG_PNS0_11BindingTypeISB_EUt_E
1923:__ZN10emscripten8internal10getContextIMN14chrome_lang_id22NNetLanguageIdentifierEFNS3_6ResultERKNSt3__212basic_stringIcNS5_11char_traitsIcEENS5_9allocatorIcEEEEEEEPT_RKSG_
1924:__ZN14chrome_lang_id22NNetLanguageIdentifier21FindTopNMostFreqLangsERKNSt3__212basic_stringIcNS1_11char_traitsIcEENS1_9allocatorIcEEEEi
1925:__ZN10emscripten8internal13MethodInvokerIMN14chrome_lang_id22NNetLanguageIdentifierEFNSt3__26vectorINS3_6ResultENS4_9allocatorIS6_EEEERKNS4_12basic_stringIcNS4_11char_traitsIcEENS7_IcEEEEiES9_PS3_JSG_iEE6invokeERKSI_SJ_PNS0_11BindingTypeISE_EUt_Ei
1926:__ZN10emscripten8internal11BindingTypeINSt3__212basic_stringIcNS2_11char_traitsIcEENS2_9allocatorIcEEEEE12fromWireTypeEPNS9_Ut_E
1927:__ZN10emscripten8internal18GenericBindingTypeINSt3__26vectorIN14chrome_lang_id22NNetLanguageIdentifier6ResultENS2_9allocatorIS6_EEEEE10toWireTypeEOS9_
1928:__ZNSt3__26vectorIN14chrome_lang_id22NNetLanguageIdentifier6ResultENS_9allocatorIS3_EEED2Ev
1929:__ZNSt3__213__vector_baseIN14chrome_lang_id22NNetLanguageIdentifier6ResultENS_9allocatorIS3_EEED2Ev
1930:__ZN14chrome_lang_id22NNetLanguageIdentifier6ResultD2Ev
1931:__ZN14chrome_lang_id12_GLOBAL__N_126FindNumValidBytesToProcessERKNSt3__212basic_stringIcNS1_11char_traitsIcEENS1_9allocatorIcEEEE
1932:__ZN14chrome_lang_id22NNetLanguageIdentifier6ResultC2Ev
1933:__ZNSt3__26vectorIN14chrome_lang_id22NNetLanguageIdentifier6ResultENS_9allocatorIS3_EEE24__emplace_back_slow_pathIJEEEvDpOT_
1934:__ZN14chrome_lang_id4CLD28LangSpanC2Ev
1935:__ZN14chrome_lang_id22NNetLanguageIdentifier23FindLanguageOfValidUTF8ERKNSt3__212basic_stringIcNS1_11char_traitsIcEENS1_9allocatorIcEEEE
1936:__ZN14chrome_lang_id22NNetLanguageIdentifier6ResultaSEOS1_
1937:__ZNSt3__213unordered_mapINS_12basic_stringIcNS_11char_traitsIcEENS_9allocatorIcEEEEN14chrome_lang_id12_GLOBAL__N_115LangChunksStatsENS_4hashIS6_EENS_8equal_toIS6_EENS4_INS_4pairIKS6_S9_EEEEEixERSF_
1938:__ZNSt3__26vectorINS_4pairINS_12basic_stringIcNS_11char_traitsIcEENS_9allocatorIcEEEEfEENS5_IS8_EEE24__emplace_back_slow_pathIJRKS7_RKiEEEvDpOT_
1939:__ZN14chrome_lang_id12_GLOBAL__N_123OrderBySecondDescendingERKNSt3__24pairINS1_12basic_stringIcNS1_11char_traitsIcEENS1_9allocatorIcEEEEfEESB_
1940:__ZNSt3__26__sortIRPFbRKNS_4pairINS_12basic_stringIcNS_11char_traitsIcEENS_9allocatorIcEEEEfEESA_EPS8_EEvT0_SF_T_
1941:__ZNSt3__26vectorINS_4pairINS_12basic_stringIcNS_11char_traitsIcEENS_9allocatorIcEEEEfEENS5_IS8_EEE2atEj
1942:__ZNSt3__213unordered_mapINS_12basic_stringIcNS_11char_traitsIcEENS_9allocatorIcEEEEN14chrome_lang_id12_GLOBAL__N_115LangChunksStatsENS_4hashIS6_EENS_8equal_toIS6_EENS4_INS_4pairIKS6_S9_EEEEE2atERSF_
1943:__ZN14chrome_lang_id12_GLOBAL__N_116ResultIsReliableERKNSt3__212basic_stringIcNS1_11char_traitsIcEENS1_9allocatorIcEEEEf
1944:__ZN14chrome_lang_id22NNetLanguageIdentifier6ResultC2ERKS1_
1945:__ZNSt3__26vectorIN14chrome_lang_id22NNetLanguageIdentifier6ResultENS_9allocatorIS3_EEE21__push_back_slow_pathIRKS3_EEvOT_
1946:__ZNSt3__213unordered_mapINS_12basic_stringIcNS_11char_traitsIcEENS_9allocatorIcEEEEN14chrome_lang_id12_GLOBAL__N_115LangChunksStatsENS_4hashIS6_EENS_8equal_toIS6_EENS4_INS_4pairIKS6_S9_EEEEED2Ev
1947:__ZNSt3__212__hash_tableINS_17__hash_value_typeINS_12basic_stringIcNS_11char_traitsIcEENS_9allocatorIcEEEEN14chrome_lang_id12_GLOBAL__N_115LangChunksStatsEEENS_22__unordered_map_hasherIS7_SB_NS_4hashIS7_EELb1EEENS_21__unordered_map_equalIS7_SB_NS_8equal_toIS7_EELb1EEENS5_ISB_EEED2Ev
1948:__ZNSt3__212__hash_tableINS_17__hash_value_typeINS_12basic_stringIcNS_11char_traitsIcEENS_9allocatorIcEEEEN14chrome_lang_id12_GLOBAL__N_115LangChunksStatsEEENS_22__unordered_map_hasherIS7_SB_NS_4hashIS7_EELb1EEENS_21__unordered_map_equalIS7_SB_NS_8equal_toIS7_EELb1EEENS5_ISB_EEE17__deallocate_nodeEPNS_16__hash_node_baseIPNS_11__hash_nodeISB_PvEEEE
1949:__ZNSt3__213__vector_baseINS_4pairINS_12basic_stringIcNS_11char_traitsIcEENS_9allocatorIcEEEEfEENS5_IS8_EEED2Ev
1950:__ZNKSt3__26vectorIN14chrome_lang_id22NNetLanguageIdentifier6ResultENS_9allocatorIS3_EEE8max_sizeEv
1951:__ZNSt3__214__split_bufferIN14chrome_lang_id22NNetLanguageIdentifier6ResultERNS_9allocatorIS3_EEEC2EjjS6_
1952:__ZNSt3__26vectorIN14chrome_lang_id22NNetLanguageIdentifier6ResultENS_9allocatorIS3_EEE26__swap_out_circular_bufferERNS_14__split_bufferIS3_RS5_EE
1953:__ZNSt3__214__split_bufferIN14chrome_lang_id22NNetLanguageIdentifier6ResultERNS_9allocatorIS3_EEED2Ev
1954:__ZN14chrome_lang_id22NNetLanguageIdentifier6ResultC2EOS1_
1955:__ZNSt3__212__hash_tableINS_17__hash_value_typeINS_12basic_stringIcNS_11char_traitsIcEENS_9allocatorIcEEEEN14chrome_lang_id12_GLOBAL__N_115LangChunksStatsEEENS_22__unordered_map_hasherIS7_SB_NS_4hashIS7_EELb1EEENS_21__unordered_map_equalIS7_SB_NS_8equal_toIS7_EELb1EEENS5_ISB_EEE4findIS7_EENS_15__hash_iteratorIPNS_11__hash_nodeISB_PvEEEERKT_
1956:__ZNKSt3__24hashINS_12basic_stringIcNS_11char_traitsIcEENS_9allocatorIcEEEEEclERKS6_
1957:__ZNSt3__211char_traitsIcE7compareEPKcS3_j
1958:__ZNSt3__221__murmur2_or_cityhashIjLj32EEclEPKvj
1959:__ZNSt3__27__sort3IRPFbRKNS_4pairINS_12basic_stringIcNS_11char_traitsIcEENS_9allocatorIcEEEEfEESA_EPS8_EEjT0_SF_SF_T_
1960:__ZNSt3__27__sort4IRPFbRKNS_4pairINS_12basic_stringIcNS_11char_traitsIcEENS_9allocatorIcEEEEfEESA_EPS8_EEjT0_SF_SF_SF_T_
1961:__ZNSt3__27__sort5IRPFbRKNS_4pairINS_12basic_stringIcNS_11char_traitsIcEENS_9allocatorIcEEEEfEESA_EPS8_EEjT0_SF_SF_SF_SF_T_
1962:__ZNSt3__218__insertion_sort_3IRPFbRKNS_4pairINS_12basic_stringIcNS_11char_traitsIcEENS_9allocatorIcEEEEfEESA_EPS8_EEvT0_SF_T_
1963:__ZNSt3__227__insertion_sort_incompleteIRPFbRKNS_4pairINS_12basic_stringIcNS_11char_traitsIcEENS_9allocatorIcEEEEfEESA_EPS8_EEbT0_SF_T_
1964:__ZNSt3__24pairINS_12basic_stringIcNS_11char_traitsIcEENS_9allocatorIcEEEEfEC2EOS7_
1965:__ZNKSt3__26vectorINS_4pairINS_12basic_stringIcNS_11char_traitsIcEENS_9allocatorIcEEEEfEENS5_IS8_EEE8max_sizeEv
1966:__ZNSt3__214__split_bufferINS_4pairINS_12basic_stringIcNS_11char_traitsIcEENS_9allocatorIcEEEEfEERNS5_IS8_EEEC2EjjSA_
1967:__ZNSt3__26vectorINS_4pairINS_12basic_stringIcNS_11char_traitsIcEENS_9allocatorIcEEEEfEENS5_IS8_EEE26__swap_out_circular_bufferERNS_14__split_bufferIS8_RS9_EE
1968:__ZNSt3__214__split_bufferINS_4pairINS_12basic_stringIcNS_11char_traitsIcEENS_9allocatorIcEEEEfEERNS5_IS8_EEED2Ev
1969:__ZNSt3__212__hash_tableINS_17__hash_value_typeINS_12basic_stringIcNS_11char_traitsIcEENS_9allocatorIcEEEEN14chrome_lang_id12_GLOBAL__N_115LangChunksStatsEEENS_22__unordered_map_hasherIS7_SB_NS_4hashIS7_EELb1EEENS_21__unordered_map_equalIS7_SB_NS_8equal_toIS7_EELb1EEENS5_ISB_EEE21__construct_node_hashIRKNS_21piecewise_construct_tEJNS_5tupleIJRKS7_EEENSQ_IJEEEEEENS_10unique_ptrINS_11__hash_nodeISB_PvEENS_22__hash_node_destructorINS5_ISY_EEEEEEjOT_DpOT0_
1970:__ZNSt3__212__hash_tableINS_17__hash_value_typeINS_12basic_stringIcNS_11char_traitsIcEENS_9allocatorIcEEEEN14chrome_lang_id12_GLOBAL__N_115LangChunksStatsEEENS_22__unordered_map_hasherIS7_SB_NS_4hashIS7_EELb1EEENS_21__unordered_map_equalIS7_SB_NS_8equal_toIS7_EELb1EEENS5_ISB_EEE6rehashEj
1971:__ZNSt3__212__hash_tableINS_17__hash_value_typeINS_12basic_stringIcNS_11char_traitsIcEENS_9allocatorIcEEEEN14chrome_lang_id12_GLOBAL__N_115LangChunksStatsEEENS_22__unordered_map_hasherIS7_SB_NS_4hashIS7_EELb1EEENS_21__unordered_map_equalIS7_SB_NS_8equal_toIS7_EELb1EEENS5_ISB_EEE8__rehashEj
1972:__ZNK14chrome_lang_id32GenericEmbeddingFeatureExtractor13NumEmbeddingsEv
1973:__ZNSt3__26vectorIN14chrome_lang_id13FeatureVectorENS_9allocatorIS2_EEEC2Ej
1974:__ZNK14chrome_lang_id22NNetLanguageIdentifier11GetFeaturesEPNS_8SentenceEPNSt3__26vectorINS_13FeatureVectorENS3_9allocatorIS5_EEEE
1975:__ZNK14chrome_lang_id22NNetLanguageIdentifier15GetLanguageNameEi
1976:__ZNSt3__213__vector_baseIN14chrome_lang_id13FeatureVectorENS_9allocatorIS2_EEED2Ev
1977:__ZN14chrome_lang_id12WorkspaceSet5ResetERKNS_17WorkspaceRegistryE
1978:__ZNK14chrome_lang_id25EmbeddingFeatureExtractorINS_16FeatureExtractorINS_8SentenceEJEEES2_JEE10PreprocessEPNS_12WorkspaceSetEPS2_
1979:__ZNK14chrome_lang_id25EmbeddingFeatureExtractorINS_16FeatureExtractorINS_8SentenceEJEEES2_JEE15ExtractFeaturesERKNS_12WorkspaceSetERKS2_PNSt3__26vectorINS_13FeatureVectorENSA_9allocatorISC_EEEE
1980:__ZNSt3__26vectorIN14chrome_lang_id13FeatureVectorENS_9allocatorIS2_EEE2atEj
1981:__ZN14chrome_lang_id13FeatureVector5clearEv
1982:__ZNK14chrome_lang_id16FeatureExtractorINS_8SentenceEJEE15ExtractFeaturesERKNS_12WorkspaceSetERKS1_PNS_13FeatureVectorE
1983:__ZNSt3__26vectorIN14chrome_lang_id13FeatureVector7ElementENS_9allocatorIS3_EEE7reserveEj
1984:__ZNSt3__26vectorIN14chrome_lang_id13FeatureVector7ElementENS_9allocatorIS3_EEE26__swap_out_circular_bufferERNS_14__split_bufferIS3_RS5_EE
1985:__ZNSt3__214__split_bufferIN14chrome_lang_id13FeatureVector7ElementERNS_9allocatorIS3_EEED2Ev
1986:__ZNK14chrome_lang_id16FeatureExtractorINS_8SentenceEJEE10PreprocessEPNS_12WorkspaceSetEPS1_
1987:__ZNSt3__212__hash_tableINS_17__hash_value_typeINS_10type_indexENS_6vectorIPN14chrome_lang_id9WorkspaceENS_9allocatorIS6_EEEEEENS_22__unordered_map_hasherIS2_SA_NS_4hashIS2_EELb1EEENS_21__unordered_map_equalIS2_SA_NS_8equal_toIS2_EELb1EEENS7_ISA_EEE5clearEv
1988:__ZNK14chrome_lang_id17WorkspaceRegistry14WorkspaceNamesEv
1989:__ZNSt3__213unordered_mapINS_10type_indexENS_6vectorIPN14chrome_lang_id9WorkspaceENS_9allocatorIS5_EEEENS_4hashIS1_EENS_8equal_toIS1_EENS6_INS_4pairIKS1_S8_EEEEEixERSE_
1990:__ZNSt3__26vectorIPN14chrome_lang_id9WorkspaceENS_9allocatorIS3_EEE6resizeEj
1991:__ZNSt3__26vectorIPN14chrome_lang_id9WorkspaceENS_9allocatorIS3_EEE8__appendEj
1992:__ZNSt3__26vectorIPN14chrome_lang_id9WorkspaceENS_9allocatorIS3_EEE18__construct_at_endEj
1993:__ZNSt3__214__split_bufferIPN14chrome_lang_id9WorkspaceERNS_9allocatorIS3_EEE18__construct_at_endEj
1994:__ZNSt3__212__hash_tableINS_17__hash_value_typeINS_10type_indexENS_6vectorIPN14chrome_lang_id9WorkspaceENS_9allocatorIS6_EEEEEENS_22__unordered_map_hasherIS2_SA_NS_4hashIS2_EELb1EEENS_21__unordered_map_equalIS2_SA_NS_8equal_toIS2_EELb1EEENS7_ISA_EEE21__construct_node_hashIRKNS_21piecewise_construct_tEJNS_5tupleIJRKS2_EEENSP_IJEEEEEENS_10unique_ptrINS_11__hash_nodeISA_PvEENS_22__hash_node_destructorINS7_ISX_EEEEEEjOT_DpOT0_
1995:__ZNSt3__212__hash_tableINS_17__hash_value_typeINS_10type_indexENS_6vectorIPN14chrome_lang_id9WorkspaceENS_9allocatorIS6_EEEEEENS_22__unordered_map_hasherIS2_SA_NS_4hashIS2_EELb1EEENS_21__unordered_map_equalIS2_SA_NS_8equal_toIS2_EELb1EEENS7_ISA_EEE6rehashEj
1996:__ZNSt3__212__hash_tableINS_17__hash_value_typeINS_10type_indexENS_6vectorIPN14chrome_lang_id9WorkspaceENS_9allocatorIS6_EEEEEENS_22__unordered_map_hasherIS2_SA_NS_4hashIS2_EELb1EEENS_21__unordered_map_equalIS2_SA_NS_8equal_toIS2_EELb1EEENS7_ISA_EEE8__rehashEj
1997:__ZNSt3__212__hash_tableINS_17__hash_value_typeINS_10type_indexENS_6vectorIPN14chrome_lang_id9WorkspaceENS_9allocatorIS6_EEEEEENS_22__unordered_map_hasherIS2_SA_NS_4hashIS2_EELb1EEENS_21__unordered_map_equalIS2_SA_NS_8equal_toIS2_EELb1EEENS7_ISA_EEE17__deallocate_nodeEPNS_16__hash_node_baseIPNS_11__hash_nodeISA_PvEEEE
1998:__ZNSt3__26vectorIN14chrome_lang_id13FeatureVectorENS_9allocatorIS2_EEE8allocateEj
1999:__ZNSt3__26vectorIN14chrome_lang_id13FeatureVectorENS_9allocatorIS2_EEE18__construct_at_endEj
2000:__ZNKSt3__26vectorIN14chrome_lang_id13FeatureVectorENS_9allocatorIS2_EEE8max_sizeEv
2001:__ZN14chrome_lang_id8Sentence12set_has_textEv
2002:__ZN6google8protobuf8internal14ArenaStringPtr10SetNoArenaEPKNSt3__212basic_stringIcNS3_11char_traitsIcEENS3_9allocatorIcEEEERSA_
2003:__ZN14chrome_lang_id22NNetLanguageIdentifier27SelectTextGivenBeginAndSizeEPKci
2004:__ZNSt3__26vectorIcNS_9allocatorIcEEE21__push_back_slow_pathIRKcEEvOT_
2005:__ZNSt3__213__vector_baseIcNS_9allocatorIcEEED2Ev
2006:__ZNSt3__214__split_bufferIcRNS_9allocatorIcEEEC2EjjS3_
2007:__ZNSt3__26vectorIcNS_9allocatorIcEEE26__swap_out_circular_bufferERNS_14__split_bufferIcRS2_EE
2008:__ZNSt3__214__split_bufferIcRNS_9allocatorIcEEED2Ev
2009:__ZN10emscripten8internal11BindingTypeIfE10toWireTypeERKf
2010:__ZN10emscripten8internal11BindingTypeIOiE12fromWireTypeEi
2011:__ZN14chrome_lang_id22NNetLanguageIdentifierC2Eii
2012:__ZN14chrome_lang_id14LangIdNNParamsC2Ev
2013:__ZN14chrome_lang_id29ContinuousBagOfNgramsFunctionC2Ev
2014:__ZN14chrome_lang_id17RegisterableClassINS_15FeatureFunctionINS_8SentenceEJEEEE14CreateRegistryEPKcS6_S6_i
2015:__ZN14chrome_lang_idL12cbog_factoryEv
2016:__ZN14chrome_lang_id17ComponentRegistryIFPNS_15FeatureFunctionINS_8SentenceEJEEEvEE9RegistrarC2EPS6_PKcSA_SA_iPS5_
2017:__ZN14chrome_lang_idL11rsf_factoryEv
2018:__ZN14chrome_lang_idL10sf_factoryEv
2019:__ZN14chrome_lang_id29ContinuousBagOfNgramsFunctionD2Ev
2020:__ZN14chrome_lang_id16EmbeddingNetworkD2Ev
2021:__ZNSt3__26vectorIN14chrome_lang_id16EmbeddingNetwork13VectorWrapperENS_9allocatorIS3_EEED2Ev
2022:__ZNSt3__213__vector_baseIN14chrome_lang_id16EmbeddingNetwork15EmbeddingMatrixENS_9allocatorIS3_EEED2Ev
2023:__ZNSt3__213__vector_baseINS_6vectorIN14chrome_lang_id16EmbeddingNetwork13VectorWrapperENS_9allocatorIS4_EEEENS5_IS7_EEED2Ev
2024:__ZNSt3__213__vector_baseIN14chrome_lang_id16EmbeddingNetwork13VectorWrapperENS_9allocatorIS3_EEED2Ev
2025:__ZN14chrome_lang_id16EmbeddingNetworkD0Ev
2026:__ZN14chrome_lang_id15FeatureFunctionINS_8SentenceEJEED2Ev
2027:__ZN14chrome_lang_id15FeatureFunctionINS_8SentenceEJEEC2Ev
2028:__ZN14chrome_lang_id15FeatureFunctionINS_8SentenceEJEED0Ev
2029:__ZNK14chrome_lang_id15FeatureFunctionINS_8SentenceEJEE12RegistryNameEv
2030:__ZNK14chrome_lang_id15FeatureFunctionINS_8SentenceEJEE8EvaluateERKNS_12WorkspaceSetERKS1_PNS_13FeatureVectorE
2031:__ZNK14chrome_lang_id15FeatureFunctionINS_8SentenceEJEE7ComputeERKNS_12WorkspaceSetERKS1_PKNS_13FeatureVectorE
2032:__ZN14chrome_lang_id13FeatureVector3addEPNS_11FeatureTypeEx
2033:__ZN14chrome_lang_id13FeatureVector7ElementC2EPNS_11FeatureTypeEx
2034:__ZNSt3__26vectorIN14chrome_lang_id13FeatureVector7ElementENS_9allocatorIS3_EEE24__emplace_back_slow_pathIJRPNS1_11FeatureTypeERxEEEvDpOT_
2035:__ZN14chrome_lang_id17ComponentMetadataC2EPKcS2_S2_i
2036:__ZNK14chrome_lang_id14LangIdNNParams15embeddings_sizeEv
2037:__ZNK14chrome_lang_id14LangIdNNParams19embeddings_num_rowsEi
2038:__ZNK14chrome_lang_id14LangIdNNParams19embeddings_num_colsEi
2039:__ZNK14chrome_lang_id14LangIdNNParams18embeddings_weightsEi
2040:__ZNK14chrome_lang_id14LangIdNNParams21embeddings_quant_typeEi
2041:__ZNK14chrome_lang_id14LangIdNNParams23embeddings_quant_scalesEi
2042:__ZNK14chrome_lang_id14LangIdNNParams15hidden_num_rowsEi
2043:__ZNK14chrome_lang_id14LangIdNNParams15hidden_num_colsEi
2044:__ZNK14chrome_lang_id14LangIdNNParams14hidden_weightsEi
2045:__ZNK14chrome_lang_id14LangIdNNParams19hidden_bias_weightsEi
2046:__ZNK14chrome_lang_id14LangIdNNParams16softmax_num_colsEi
2047:__ZNK14chrome_lang_id14LangIdNNParams15softmax_weightsEi
2048:__ZNK14chrome_lang_id14LangIdNNParams20softmax_bias_weightsEi
2049:__ZNK14chrome_lang_id14LangIdNNParams22embedding_num_featuresEi
2050:__ZNK14chrome_lang_id14LangIdNNParams13concat_offsetEi
2051:__ZNK14chrome_lang_id14LangIdNNParams17concat_layer_sizeEv
2052:__ZN14chrome_lang_id25EmbeddingFeatureExtractorINS_16FeatureExtractorINS_8SentenceEJEEES2_JEEC2Ev
2053:__ZN14chrome_lang_id22NNetLanguageIdentifierD2Ev
2054:__ZNSt3__26vectorIN14chrome_lang_id22NNetLanguageIdentifier6ResultENS_9allocatorIS3_EEE9push_backERKS3_
2055:__ZNSt3__26vectorIN14chrome_lang_id22NNetLanguageIdentifier6ResultENS_9allocatorIS3_EEE6resizeEjRKS3_
2056:__ZN10emscripten8internal13getActualTypeINSt3__26vectorIN14chrome_lang_id22NNetLanguageIdentifier6ResultENS2_9allocatorIS6_EEEEEEPKvPT_
2057:__ZN10emscripten8internal14raw_destructorINSt3__26vectorIN14chrome_lang_id22NNetLanguageIdentifier6ResultENS2_9allocatorIS6_EEEEEEvPT_
2058:__ZN10emscripten8internal12operator_newINSt3__26vectorIN14chrome_lang_id22NNetLanguageIdentifier6ResultENS2_9allocatorIS6_EEEEJEEEPT_DpOT0_
2059:__ZN10emscripten8internal7InvokerIPNSt3__26vectorIN14chrome_lang_id22NNetLanguageIdentifier6ResultENS2_9allocatorIS6_EEEEJEE6invokeEPFSA_vE
2060:__ZN10emscripten8internal13MethodInvokerIMNSt3__26vectorIN14chrome_lang_id22NNetLanguageIdentifier6ResultENS2_9allocatorIS6_EEEEFvRKS6_EvPS9_JSB_EE6invokeERKSD_SE_PS6_
2061:__ZN10emscripten8internal13MethodInvokerIMNSt3__26vectorIN14chrome_lang_id22NNetLanguageIdentifier6ResultENS2_9allocatorIS6_EEEEFvjRKS6_EvPS9_JjSB_EE6invokeERKSD_SE_jPS6_
2062:__ZNKSt3__26vectorIN14chrome_lang_id22NNetLanguageIdentifier6ResultENS_9allocatorIS3_EEE4sizeEv
2063:__ZN10emscripten8internal13MethodInvokerIMNSt3__26vectorIN14chrome_lang_id22NNetLanguageIdentifier6ResultENS2_9allocatorIS6_EEEEKFjvEjPKS9_JEE6invokeERKSB_SD_
2064:__ZN10emscripten8internal12VectorAccessINSt3__26vectorIN14chrome_lang_id22NNetLanguageIdentifier6ResultENS2_9allocatorIS6_EEEEE3getERKS9_j
2065:__ZN10emscripten8internal15FunctionInvokerIPFNS_3valERKNSt3__26vectorIN14chrome_lang_id22NNetLanguageIdentifier6ResultENS3_9allocatorIS7_EEEEjES2_SC_JjEE6invokeEPSE_PSA_j
2066:__ZN10emscripten8internal10getContextIPFNS_3valERKNSt3__26vectorIN14chrome_lang_id22NNetLanguageIdentifier6ResultENS3_9allocatorIS7_EEEEjEEEPT_RKSF_
2067:__ZN10emscripten8internal12VectorAccessINSt3__26vectorIN14chrome_lang_id22NNetLanguageIdentifier6ResultENS2_9allocatorIS6_EEEEE3setERS9_jRKS6_
2068:__ZN10emscripten8internal15FunctionInvokerIPFbRNSt3__26vectorIN14chrome_lang_id22NNetLanguageIdentifier6ResultENS2_9allocatorIS6_EEEEjRKS6_EbSA_JjSC_EE6invokeEPSE_PS9_jPS6_
2069:__ZN14chrome_lang_id22NNetLanguageIdentifier6ResultaSERKS1_
2070:__ZN10emscripten3valC2IRKN14chrome_lang_id22NNetLanguageIdentifier6ResultEEEOT_
2071:__ZN10emscripten8internal12WireTypePackIJRKN14chrome_lang_id22NNetLanguageIdentifier6ResultEEEC2ES6_
2072:__ZNSt3__26vectorIN14chrome_lang_id22NNetLanguageIdentifier6ResultENS_9allocatorIS3_EEE8__appendEjRKS3_
2073:__ZNSt3__214__split_bufferIN14chrome_lang_id22NNetLanguageIdentifier6ResultERNS_9allocatorIS3_EEE18__construct_at_endEjRKS3_
2074:__ZN10emscripten8internal12MemberAccessIN14chrome_lang_id22NNetLanguageIdentifier6ResultEbE7getWireIS4_EEbRKMS4_bRKT_
2075:__ZN10emscripten8internal12MemberAccessIN14chrome_lang_id22NNetLanguageIdentifier6ResultEbE7setWireIS4_EEvRKMS4_bRT_b
2076:__ZN10emscripten8internal12MemberAccessIN14chrome_lang_id22NNetLanguageIdentifier6ResultEfE7getWireIS4_EEfRKMS4_fRKT_
2077:__ZN10emscripten8internal12MemberAccessIN14chrome_lang_id22NNetLanguageIdentifier6ResultEfE7setWireIS4_EEvRKMS4_fRT_f
2078:__ZN10emscripten8internal12MemberAccessIN14chrome_lang_id22NNetLanguageIdentifier6ResultENSt3__212basic_stringIcNS5_11char_traitsIcEENS5_9allocatorIcEEEEE7getWireIS4_EEPNS0_11BindingTypeISB_EUt_ERKMS4_SB_RKT_
2079:__ZN10emscripten8internal12MemberAccessIN14chrome_lang_id22NNetLanguageIdentifier6ResultENSt3__212basic_stringIcNS5_11char_traitsIcEENS5_9allocatorIcEEEEE7setWireIS4_EEvRKMS4_SB_RT_PNS0_11BindingTypeISB_EUt_E
2080:__ZN10emscripten8internal11BindingTypeINSt3__212basic_stringIcNS2_11char_traitsIcEENS2_9allocatorIcEEEEE10toWireTypeERKS8_
2081:__ZN10emscripten8internal15raw_constructorIN14chrome_lang_id22NNetLanguageIdentifier6ResultEJEEEPT_DpNS0_11BindingTypeIT0_E8WireTypeE
2082:__ZN10emscripten8internal14raw_destructorIN14chrome_lang_id22NNetLanguageIdentifier6ResultEEEvPT_
2083:_dummy
2084:__ZN14chrome_lang_id21RelevantScriptFeatureD0Ev
2085:__ZN14chrome_lang_id21RelevantScriptFeature4InitEPNS_11TaskContextE
2086:__ZNK14chrome_lang_id21RelevantScriptFeature8EvaluateERKNS_12WorkspaceSetERKNS_8SentenceEPNS_13FeatureVectorE
2087:__ZNK14chrome_lang_id8Sentence4textEv
2088:__ZN14chrome_lang_id17FloatFeatureValueC2Ejf
2089:__ZN14chrome_lang_id9GetScriptEPKhi
2090:__ZNK14chrome_lang_id22GenericFeatureFunction4nameEv
2091:__ZN14chrome_lang_id22GenericFeatureFunction16set_feature_typeEPNS_11FeatureTypeE
2092:__ZN14chrome_lang_id11StringPieceC2ERKNSt3__212basic_stringIcNS1_11char_traitsIcEENS1_9allocatorIcEEEE
2093:__ZN14chrome_lang_id5utils10ParseInt32EPKcPi
2094:__ZN14chrome_lang_id5utils5SplitERKNSt3__212basic_stringIcNS1_11char_traitsIcEENS1_9allocatorIcEEEEc
2095:__ZNSt3__26vectorINS_12basic_stringIcNS_11char_traitsIcEENS_9allocatorIcEEEENS4_IS6_EEE21__push_back_slow_pathIS6_EEvOT_
2096:__ZNSt3__26vectorINS_12basic_stringIcNS_11char_traitsIcEENS_9allocatorIcEEEENS4_IS6_EEED2Ev
2097:__ZNSt3__213__vector_baseINS_12basic_stringIcNS_11char_traitsIcEENS_9allocatorIcEEEENS4_IS6_EEED2Ev
2098:__ZNSt3__214__split_bufferINS_12basic_stringIcNS_11char_traitsIcEENS_9allocatorIcEEEERNS4_IS6_EEEC2EjjS8_
2099:__ZNSt3__26vectorINS_12basic_stringIcNS_11char_traitsIcEENS_9allocatorIcEEEENS4_IS6_EEE26__swap_out_circular_bufferERNS_14__split_bufferIS6_RS7_EE
2100:__ZNSt3__214__split_bufferINS_12basic_stringIcNS_11char_traitsIcEENS_9allocatorIcEEEERNS4_IS6_EEED2Ev
2101:__ZN14chrome_lang_id5utils23RemoveLeadingWhitespaceEPNS_11StringPieceE
2102:__ZN14chrome_lang_id11StringPiece13remove_prefixEi
2103:__ZN14chrome_lang_id5utils24RemoveTrailingWhitespaceEPNS_11StringPieceE
2104:__ZN14chrome_lang_id5utils6Hash32EPKcjj
2105:__ZN14chrome_lang_id5utils12_GLOBAL__N_113DecodeFixed32EPKc
2106:__ZN14chrome_lang_id5utils12_GLOBAL__N_1L8ByteAs32Ec
2107:__ZN14chrome_lang_id5utils21Hash32WithDefaultSeedERKNSt3__212basic_stringIcNS1_11char_traitsIcEENS1_9allocatorIcEEEE
2108:__ZN14chrome_lang_id5utils12GetUTF8CharsERKNSt3__212basic_stringIcNS1_11char_traitsIcEENS1_9allocatorIcEEEEPNS1_6vectorIS7_NS5_IS7_EEEE
2109:__ZNSt3__26vectorINS_12basic_stringIcNS_11char_traitsIcEENS_9allocatorIcEEEENS4_IS6_EEE24__emplace_back_slow_pathIJRPKcRiEEEvDpOT_
2110:__ZN14chrome_lang_id5utils10OneCharLenEPKc
2111:__ZN14chrome_lang_id12WorkspaceSetD2Ev
2112:__ZNSt3__212__hash_tableINS_17__hash_value_typeINS_10type_indexENS_6vectorIPN14chrome_lang_id9WorkspaceENS_9allocatorIS6_EEEEEENS_22__unordered_map_hasherIS2_SA_NS_4hashIS2_EELb1EEENS_21__unordered_map_equalIS2_SA_NS_8equal_toIS2_EELb1EEENS7_ISA_EEED2Ev
2113:__ZN14chrome_lang_id17WorkspaceRegistryD2Ev
2114:__ZNSt3__212__hash_tableINS_17__hash_value_typeINS_10type_indexENS_12basic_stringIcNS_11char_traitsIcEENS_9allocatorIcEEEEEENS_22__unordered_map_hasherIS2_S9_NS_4hashIS2_EELb1EEENS_21__unordered_map_equalIS2_S9_NS_8equal_toIS2_EELb1EEENS6_IS9_EEED2Ev
2115:__ZNSt3__212__hash_tableINS_17__hash_value_typeINS_10type_indexENS_12basic_stringIcNS_11char_traitsIcEENS_9allocatorIcEEEEEENS_22__unordered_map_hasherIS2_S9_NS_4hashIS2_EELb1EEENS_21__unordered_map_equalIS2_S9_NS_8equal_toIS2_EELb1EEENS6_IS9_EEE17__deallocate_nodeEPNS_16__hash_node_baseIPNS_11__hash_nodeIS9_PvEEEE
2116:__ZNSt3__212__hash_tableINS_17__hash_value_typeINS_10type_indexENS_6vectorINS_12basic_stringIcNS_11char_traitsIcEENS_9allocatorIcEEEENS7_IS9_EEEEEENS_22__unordered_map_hasherIS2_SC_NS_4hashIS2_EELb1EEENS_21__unordered_map_equalIS2_SC_NS_8equal_toIS2_EELb1EEENS7_ISC_EEED2Ev
2117:__ZNSt3__212__hash_tableINS_17__hash_value_typeINS_10type_indexENS_6vectorINS_12basic_stringIcNS_11char_traitsIcEENS_9allocatorIcEEEENS7_IS9_EEEEEENS_22__unordered_map_hasherIS2_SC_NS_4hashIS2_EELb1EEENS_21__unordered_map_equalIS2_SC_NS_8equal_toIS2_EELb1EEENS7_ISC_EEE17__deallocate_nodeEPNS_16__hash_node_baseIPNS_11__hash_nodeISC_PvEEEE
2118:__ZN14chrome_lang_id17WorkspaceRegistryC2Ev
2119:__ZN14chrome_lang_id11TaskContextC2Ev
2120:__ZNK14chrome_lang_id8TaskSpec10input_sizeEv
2121:__ZNK14chrome_lang_id8TaskSpec5inputEi
2122:__ZNK14chrome_lang_id9TaskInput4nameEv
2123:__ZN14chrome_lang_id9TaskInput12set_has_nameEv
2124:__ZN6google8protobuf8internal20RepeatedPtrFieldBase3AddINS0_16RepeatedPtrFieldIN14chrome_lang_id9TaskInputEE11TypeHandlerEEEPNT_4TypeESB_
2125:__ZN6google8protobuf8internal18GenericTypeHandlerIN14chrome_lang_id9TaskInputEE16NewFromPrototypeEPKS4_PNS0_5ArenaE
2126:__ZN6google8protobuf5Arena18CreateMaybeMessageIN14chrome_lang_id9TaskInputEEEPT_PS1_z
2127:__ZNK6google8protobuf16RepeatedPtrFieldIN14chrome_lang_id9TaskInputEE3GetEi
2128:__ZNK6google8protobuf8internal20RepeatedPtrFieldBase3GetINS0_16RepeatedPtrFieldIN14chrome_lang_id9TaskInputEE11TypeHandlerEEERKNT_4TypeEi
2129:__ZNK14chrome_lang_id9TaskInput11file_formatEi
2130:__ZN14chrome_lang_id11TaskContext12SetParameterERKNSt3__212basic_stringIcNS1_11char_traitsIcEENS1_9allocatorIcEEEES9_
2131:__ZNK14chrome_lang_id18TaskSpec_Parameter4nameEv
2132:__ZN14chrome_lang_id18TaskSpec_Parameter9set_valueERKNSt3__212basic_stringIcNS1_11char_traitsIcEENS1_9allocatorIcEEEE
2133:__ZN14chrome_lang_id8TaskSpec13add_parameterEv
2134:__ZN14chrome_lang_id18TaskSpec_Parameter8set_nameERKNSt3__212basic_stringIcNS1_11char_traitsIcEENS1_9allocatorIcEEEE
2135:__ZN6google8protobuf8internal20RepeatedPtrFieldBase3AddINS0_16RepeatedPtrFieldIN14chrome_lang_id18TaskSpec_ParameterEE11TypeHandlerEEEPNT_4TypeESB_
2136:__ZN6google8protobuf8internal18GenericTypeHandlerIN14chrome_lang_id18TaskSpec_ParameterEE16NewFromPrototypeEPKS4_PNS0_5ArenaE
2137:__ZN6google8protobuf5Arena18CreateMaybeMessageIN14chrome_lang_id18TaskSpec_ParameterEEEPT_PS1_z
2138:__ZN14chrome_lang_id18TaskSpec_Parameter13set_has_valueEv
2139:__ZNK14chrome_lang_id18TaskSpec_Parameter5valueEv
2140:__ZNSt3__28functionIFbPKcPiEEC2IPS4_vEET_
2141:__ZNSt3__28functionIFbPKcPiEED2Ev
2142:__ZN14chrome_lang_id5utils10ParseUsingIiEET_RKNSt3__212basic_stringIcNS3_11char_traitsIcEENS3_9allocatorIcEEEENS3_8functionIFbPKcPS2_EEE
2143:__ZNKSt3__28functionIFbPKcPiEEclES2_S3_
2144:__ZNKSt3__210__function6__funcIPFbPKcPiENS_9allocatorIS6_EES5_E7__cloneEv
2145:__ZNKSt3__210__function6__funcIPFbPKcPiENS_9allocatorIS6_EES5_E7__cloneEPNS0_6__baseIS5_EE
2146:__ZNSt3__210__function6__funcIPFbPKcPiENS_9allocatorIS6_EES5_EclEOS3_OS4_
2147:__ZNKSt3__210__function6__funcIPFbPKcPiENS_9allocatorIS6_EES5_E6targetERKSt9type_info
2148:__ZNKSt3__210__function6__funcIPFbPKcPiENS_9allocatorIS6_EES5_E11target_typeEv
2149:__ZNSt3__228__invoke_void_return_wrapperIbE6__callIJRPFbPKcPiES4_S5_EEEbDpOT_
2150:__ZNK14chrome_lang_id11TaskContext3GetERKNSt3__212basic_stringIcNS1_11char_traitsIcEENS1_9allocatorIcEEEEPKc
2151:__ZNK14chrome_lang_id11TaskContext3GetERKNSt3__212basic_stringIcNS1_11char_traitsIcEENS1_9allocatorIcEEEEb
2152:__ZNK14chrome_lang_id9TaskInput9part_sizeEv
2153:__ZNK14chrome_lang_id9TaskInput4partEi
2154:__ZN14chrome_lang_id17TaskContextParams13ToTaskContextEPNS_11TaskContextE
2155:__ZN14chrome_lang_id4CLD210runetocharEPcPKi
2156:__ZN14chrome_lang_id4CLD212LookupEntityEPKci
2157:__ZN14chrome_lang_id4CLD212BinarySearchEPKciiPKNS0_11CharIntPairE
2158:__ZN14chrome_lang_id4CLD213ascii_isdigitEc
2159:__ZN14chrome_lang_id4CLD214ascii_isxdigitEc
2160:__ZN14chrome_lang_id4CLD213ascii_isalnumEc
2161:__ZN14chrome_lang_id4CLD216hex_digit_to_intEc
2162:__ZN14chrome_lang_id4CLD210ReadEntityEPKciPi
2163:__ZN14chrome_lang_id4CLD2L14strto32_base16EPKcS2_PS2_
2164:__ZN14chrome_lang_id4CLD2L14strto32_base10EPKcS2_PS2_
2165:__ZN14chrome_lang_id4CLD214EntityToBufferEPKciPcPiS4_
2166:__ZN14chrome_lang_id4CLD221ScanToLetterOrSpecialEPKci
2167:__ZN14chrome_lang_id4CLD220ScanToPossibleLetterEPKcii
2168:__ZN14chrome_lang_id4CLD220SpanInterchangeValidEPKci
2169:__ZN14chrome_lang_id4CLD213ScriptScannerC2EPKcib
2170:__ZN14chrome_lang_id4CLD213ScriptScannerD2Ev
2171:__ZN14chrome_lang_id4CLD213ScriptScanner17SkipToFrontOfSpanEPKciPi
2172:__ZN14chrome_lang_id4CLD29IsSpecialEc
2173:__ZN14chrome_lang_id4CLD222GetUTF8LetterScriptNumEPKc
2174:__ZN14chrome_lang_id4CLD214UTF8OneCharLenEPKc
2175:__ZN14chrome_lang_id4CLD213ScriptScanner14GetOneTextSpanEPNS0_8LangSpanE
2176:__ZN14chrome_lang_id4CLD26EqCaseEcc
2177:__ZN14chrome_lang_id4CLD29NeqLetterEc
2178:__ZN14chrome_lang_id4CLD22WSEc
2179:__ZN14chrome_lang_id4CLD213ScriptScanner16GetOneScriptSpanEPNS0_8LangSpanE
2180:__ZN14chrome_lang_id4CLD216UNALIGNED_LOAD32EPKv
2181:__ZN14chrome_lang_id4CLD213ScriptScanner15LowerScriptSpanEPNS0_8LangSpanE
2182:__ZN14chrome_lang_id4CLD213ScriptScanner21GetOneScriptSpanLowerEPNS0_8LangSpanE
2183:__ZN14chrome_lang_id4CLD29OffsetMapC2Ev
2184:__ZN14chrome_lang_id4CLD29OffsetMap5ClearEv
2185:__ZN14chrome_lang_id4CLD29OffsetMap5ResetEv
2186:__ZN14chrome_lang_id4CLD29OffsetMap13MaybeFlushAllEv
2187:__ZN14chrome_lang_id4CLD29OffsetMap4CopyEi
2188:__ZN14chrome_lang_id4CLD29OffsetMap5FlushEv
2189:__ZN14chrome_lang_id4CLD29OffsetMap4EmitENS1_5MapOpEi
2190:__ZN14chrome_lang_id4CLD29OffsetMap6InsertEi
2191:__ZN14chrome_lang_id4CLD29OffsetMap6DeleteEi
2192:__ZN14chrome_lang_id4CLD219CheapSqueezeInplaceEPcii
2193:__ZN14chrome_lang_id4CLD212_GLOBAL__N_16minintEii
2194:__ZN14chrome_lang_id4CLD212_GLOBAL__N_112CountSpaces4EPKci
2195:__ZN14chrome_lang_id4CLD212_GLOBAL__N_119CountPredictedBytesEPKciPiS4_
2196:__ZN14chrome_lang_id4CLD212_GLOBAL__N_115BackscanToSpaceEPKci
2197:__ZN14chrome_lang_id4CLD212_GLOBAL__N_118ForwardscanToSpaceEPKci
2198:__ZN14chrome_lang_id4CLD226UTF8GenericPropertyTwoByteEPKNS0_21UTF8StateMachineObj_2EPPKhPi
2199:__ZN14chrome_lang_id4CLD215UTF8GenericScanEPKNS0_19UTF8StateMachineObjERKNS_11StringPieceEPi
2200:__ZN14chrome_lang_id4CLD2L11InStateZeroEPKNS0_19UTF8StateMachineObjEPKh
2201:__ZN14chrome_lang_id4CLD218UTF8GenericReplaceEPKNS0_19UTF8StateMachineObjERKNS_11StringPieceERS4_bPiS8_S8_PNS0_9OffsetMapE
2202:__ZN14chrome_lang_id4CLD2L26UTF8GenericReplaceInternalEPKNS0_19UTF8StateMachineObjERKNS_11StringPieceERS4_bPiS8_S8_PNS0_9OffsetMapE
2203:__ZN14chrome_lang_id8SentenceD0Ev
2204:__ZNK14chrome_lang_id8Sentence11GetTypeNameEv
2205:__ZNK14chrome_lang_id8Sentence3NewEPN6google8protobuf5ArenaE
2206:__ZN14chrome_lang_id8Sentence5ClearEv
2207:__ZNK14chrome_lang_id8Sentence13IsInitializedEv
2208:__ZN14chrome_lang_id8Sentence21CheckTypeAndMergeFromERKN6google8protobuf11MessageLiteE
2209:__ZN14chrome_lang_id8Sentence27MergePartialFromCodedStreamEPN6google8protobuf2io16CodedInputStreamE
2210:__ZNK14chrome_lang_id8Sentence12ByteSizeLongEv
2211:__ZNK14chrome_lang_id8Sentence24SerializeWithCachedSizesEPN6google8protobuf2io17CodedOutputStreamE
2212:__ZNK14chrome_lang_id8Sentence6has_idEv
2213:__ZNK14chrome_lang_id8Sentence8has_textEv
2214:__ZN6google8protobuf8internal14WireFormatLite10StringSizeERKNSt3__212basic_stringIcNS3_11char_traitsIcEENS3_9allocatorIcEEEE
2215:__ZNK14chrome_lang_id5Token12ByteSizeLongEv
2216:__ZN6google8protobuf8internal14WireFormatLite19LengthDelimitedSizeEj
2217:__ZN6google8protobuf2io17CodedOutputStream12VarintSize32Ej
2218:__ZNK14chrome_lang_id5Token4wordEv
2219:__ZN6google8protobuf8internal14WireFormatLite9Int32SizeEi
2220:__ZNK14chrome_lang_id5Token30RequiredFieldsByteSizeFallbackEv
2221:__ZNK14chrome_lang_id5Token8has_headEv
2222:__ZNK14chrome_lang_id5Token7has_tagEv
2223:__ZNK14chrome_lang_id5Token3tagEv
2224:__ZNK14chrome_lang_id5Token12has_categoryEv
2225:__ZNK14chrome_lang_id5Token8categoryEv
2226:__ZNK14chrome_lang_id5Token9has_labelEv
2227:__ZNK14chrome_lang_id5Token5labelEv
2228:__ZNK14chrome_lang_id5Token15has_break_levelEv
2229:__ZNK14chrome_lang_id5Token7has_endEv
2230:__ZN14chrome_lang_idL31MutableUnknownFieldsForSentenceEPNS_8SentenceE
2231:__ZN6google8protobuf2io16CodedInputStream7AdvanceEi
2232:__ZN6google8protobuf8internal14WireFormatLite17GetTagFieldNumberEj
2233:__ZN6google8protobuf8internal14WireFormatLite10ReadStringEPNS0_2io16CodedInputStreamEPNSt3__212basic_stringIcNS6_11char_traitsIcEENS6_9allocatorIcEEEE
2234:__ZN6google8protobuf2io16CodedInputStream23IncrementRecursionDepthEv
2235:__ZN6google8protobuf2io16CodedInputStream29UnsafeDecrementRecursionDepthEv
2236:__ZN6google8protobuf2io16CodedInputStream11ExpectAtEndEv
2237:__ZN6google8protobuf8internal14WireFormatLite14GetTagWireTypeEj
2238:__ZN14chrome_lang_id8Sentence25internal_default_instanceEv
2239:__ZN14chrome_lang_id5Token27MergePartialFromCodedStreamEPN6google8protobuf2io16CodedInputStreamE
2240:__ZN6google8protobuf2io16CodedInputStream12ReadVarint32EPj
2241:__ZN14chrome_lang_id5Token11set_has_endEv
2242:__ZN14chrome_lang_id5Token12set_has_headEv
2243:__ZN14chrome_lang_id24Token_BreakLevel_IsValidEi
2244:__ZN14chrome_lang_id5Token15set_break_levelENS_16Token_BreakLevelE
2245:__ZN6google8protobuf2io17CodedOutputStream13WriteVarint32Ej
2246:__ZN14chrome_lang_id5Token25internal_default_instanceEv
2247:__ZN6google8protobuf2io17CodedOutputStream20WriteVarint32ToArrayEjPh
2248:__ZN6google8protobuf2io17CodedOutputStream7AdvanceEi
2249:__ZN14chrome_lang_id5Token13set_has_labelEv
2250:__ZN6google8protobuf8internal14ArenaStringPtr14MutableNoArenaEPKNSt3__212basic_stringIcNS3_11char_traitsIcEENS3_9allocatorIcEEEE
2251:__ZN14chrome_lang_id5Token16set_has_categoryEv
2252:__ZN14chrome_lang_id5Token11set_has_tagEv
2253:__ZN14chrome_lang_id5Token12set_has_wordEv
2254:__ZN6google8protobuf8internal26FunctionResultCallback_1_0IPNSt3__212basic_stringIcNS3_11char_traitsIcEENS3_9allocatorIcEEEEPN14chrome_lang_id5TokenEEC2EPFSA_SD_EbSD_
2255:__ZN6google8protobuf14ResultCallbackIPNSt3__212basic_stringIcNS2_11char_traitsIcEENS2_9allocatorIcEEEEEC2Ev
2256:__ZN6google8protobuf8internal26FunctionResultCallback_1_0IPNSt3__212basic_stringIcNS3_11char_traitsIcEENS3_9allocatorIcEEEEPN14chrome_lang_id5TokenEE3RunEv
2257:__ZN14chrome_lang_id5Token22mutable_unknown_fieldsEv
2258:__ZN6google8protobuf8internal20RepeatedPtrFieldBase3AddINS0_16RepeatedPtrFieldIN14chrome_lang_id5TokenEE11TypeHandlerEEEPNT_4TypeESB_
2259:__ZN6google8protobuf8internal18GenericTypeHandlerIN14chrome_lang_id5TokenEE16NewFromPrototypeEPKS4_PNS0_5ArenaE
2260:__ZN6google8protobuf5Arena18CreateMaybeMessageIN14chrome_lang_id5TokenEEEPT_PS1_z
2261:__ZN14chrome_lang_id5TokenC2Ev
2262:__ZN6google8protobuf11MessageLiteC2Ev
2263:__ZN14chrome_lang_id38protobuf_InitDefaults_sentence_2eprotoEv
2264:__ZN14chrome_lang_id5Token10SharedCtorEv
2265:__ZN6google8protobuf8internal14ArenaStringPtr16UnsafeSetDefaultEPKNSt3__212basic_stringIcNS3_11char_traitsIcEENS3_9allocatorIcEEEE
2266:__ZN14chrome_lang_id43protobuf_InitDefaults_sentence_2eproto_implEv
2267:__ZN6google8protobuf14GoogleOnceInitEPiPFvvE
2268:__ZN6google8protobuf8internal16FunctionClosure0C2EPFvvEb
2269:__ZN6google8protobuf8internal14GetEmptyStringEv
2270:__ZN14chrome_lang_id8SentenceC2Ev
2271:__ZN6google8protobuf16RepeatedPtrFieldIN14chrome_lang_id5TokenEEC2Ev
2272:__ZN6google8protobuf16RepeatedPtrFieldIN14chrome_lang_id5TokenEED2Ev
2273:__ZN14chrome_lang_id8Sentence10SharedCtorEv
2274:__ZN6google8protobuf8internal20RepeatedPtrFieldBase7DestroyINS0_16RepeatedPtrFieldIN14chrome_lang_id5TokenEE11TypeHandlerEEEvv
2275:__ZN14chrome_lang_id5TokenD0Ev
2276:__ZNK14chrome_lang_id5Token11GetTypeNameEv
2277:__ZNK14chrome_lang_id5Token3NewEPN6google8protobuf5ArenaE
2278:__ZN14chrome_lang_id5Token5ClearEv
2279:__ZNK14chrome_lang_id5Token13IsInitializedEv
2280:__ZN14chrome_lang_id5Token21CheckTypeAndMergeFromERKN6google8protobuf11MessageLiteE
2281:__ZNK14chrome_lang_id5Token24SerializeWithCachedSizesEPN6google8protobuf2io17CodedOutputStreamE
2282:__ZN6google8protobuf8internal9down_castIPKN14chrome_lang_id5TokenEKNS0_11MessageLiteEEET_PT0_
2283:__ZN14chrome_lang_id5Token9MergeFromERKS0_
2284:__ZN14chrome_lang_id5Token15UnsafeMergeFromERKS0_
2285:__ZN14chrome_lang_id12_GLOBAL__N_1L13MergeFromFailEi
2286:__ZN6google8protobuf8internal14ArenaStringPtr19ClearToEmptyNoArenaEPKNSt3__212basic_stringIcNS3_11char_traitsIcEENS3_9allocatorIcEEEE
2287:__ZN14chrome_lang_id5TokenD2Ev
2288:__ZN14chrome_lang_id5Token10SharedDtorEv
2289:__ZN6google8protobuf8internal14ArenaStringPtr14DestroyNoArenaEPKNSt3__212basic_stringIcNS3_11char_traitsIcEENS3_9allocatorIcEEEE
2290:__ZN6google8protobuf8internal26FunctionResultCallback_1_0IPNSt3__212basic_stringIcNS3_11char_traitsIcEENS3_9allocatorIcEEEEPN14chrome_lang_id8SentenceEEC2EPFSA_SD_EbSD_
2291:__ZN6google8protobuf8internal9down_castIPKN14chrome_lang_id8SentenceEKNS0_11MessageLiteEEET_PT0_
2292:__ZN14chrome_lang_id8Sentence15UnsafeMergeFromERKS0_
2293:__ZN6google8protobuf8internal20RepeatedPtrFieldBase9MergeFromINS0_16RepeatedPtrFieldIN14chrome_lang_id5TokenEE11TypeHandlerEEEvRKS2_
2294:__ZN6google8protobuf8internal20RepeatedPtrFieldBase18MergeFromInnerLoopINS0_16RepeatedPtrFieldIN14chrome_lang_id5TokenEE11TypeHandlerEEEvPPvSA_ii
2295:__ZN6google8protobuf8internal20RepeatedPtrFieldBase17MergeFromInternalERKS2_MS2_FvPPvS6_iiE
2296:__ZN6google8protobuf8internal18GenericTypeHandlerIN14chrome_lang_id5TokenEE5MergeERKS4_PS4_
2297:__ZNK14chrome_lang_id8Sentence5tokenEv
2298:__ZN6google8protobuf8internal17AllAreInitializedINS0_16RepeatedPtrFieldIN14chrome_lang_id5TokenEEEEEbRKT_
2299:__ZN6google8protobuf16RepeatedPtrFieldIN14chrome_lang_id5TokenEE5ClearEv
2300:__ZN6google8protobuf8internal20RepeatedPtrFieldBase5ClearINS0_16RepeatedPtrFieldIN14chrome_lang_id5TokenEE11TypeHandlerEEEvv
2301:__ZN14chrome_lang_id8SentenceD2Ev
2302:__ZN14chrome_lang_id8Sentence10SharedDtorEv
2303:__ZN14chrome_lang_id14TaskInput_PartD0Ev
2304:__ZNK14chrome_lang_id14TaskInput_Part11GetTypeNameEv
2305:__ZNK14chrome_lang_id14TaskInput_Part3NewEPN6google8protobuf5ArenaE
2306:__ZN14chrome_lang_id14TaskInput_Part5ClearEv
2307:__ZN14chrome_lang_id14TaskInput_Part21CheckTypeAndMergeFromERKN6google8protobuf11MessageLiteE
2308:__ZN14chrome_lang_id14TaskInput_Part27MergePartialFromCodedStreamEPN6google8protobuf2io16CodedInputStreamE
2309:__ZNK14chrome_lang_id14TaskInput_Part12ByteSizeLongEv
2310:__ZNK14chrome_lang_id14TaskInput_Part24SerializeWithCachedSizesEPN6google8protobuf2io17CodedOutputStreamE
2311:__ZNK14chrome_lang_id14TaskInput_Part13record_formatEv
2312:__ZN14chrome_lang_idL37MutableUnknownFieldsForTaskInput_PartEPNS_14TaskInput_PartE
2313:__ZN14chrome_lang_id14TaskInput_Part20mutable_file_patternEv
2314:__ZN14chrome_lang_id14TaskInput_Part19mutable_file_formatEv
2315:__ZN14chrome_lang_id14TaskInput_Part21mutable_record_formatEv
2316:__ZN14chrome_lang_id14TaskInput_Part21set_has_record_formatEv
2317:__ZN6google8protobuf8internal26FunctionResultCallback_1_0IPNSt3__212basic_stringIcNS3_11char_traitsIcEENS3_9allocatorIcEEEEPN14chrome_lang_id14TaskInput_PartEEC2EPFSA_SD_EbSD_
2318:__ZN14chrome_lang_id14TaskInput_Part22mutable_unknown_fieldsEv
2319:__ZN6google8protobuf8internal9down_castIPKN14chrome_lang_id14TaskInput_PartEKNS0_11MessageLiteEEET_PT0_
2320:__ZN14chrome_lang_id14TaskInput_Part9MergeFromERKS0_
2321:__ZN14chrome_lang_id14TaskInput_Part15UnsafeMergeFromERKS0_
2322:__ZN14chrome_lang_id12_GLOBAL__N_1L13MergeFromFailEi_505
2323:__ZN14chrome_lang_id14TaskInput_PartC2Ev
2324:__ZN14chrome_lang_id41protobuf_InitDefaults_task_5fspec_2eprotoEv
2325:__ZN14chrome_lang_id14TaskInput_Part10SharedCtorEv
2326:__ZN14chrome_lang_id46protobuf_InitDefaults_task_5fspec_2eproto_implEv
2327:__ZN14chrome_lang_id18TaskSpec_ParameterC2Ev
2328:__ZN14chrome_lang_id18TaskSpec_Parameter10SharedCtorEv
2329:__ZN14chrome_lang_id18TaskSpec_ParameterD0Ev
2330:__ZNK14chrome_lang_id18TaskSpec_Parameter11GetTypeNameEv
2331:__ZNK14chrome_lang_id18TaskSpec_Parameter3NewEPN6google8protobuf5ArenaE
2332:__ZN14chrome_lang_id18TaskSpec_Parameter5ClearEv
2333:__ZNK14chrome_lang_id18TaskSpec_Parameter13IsInitializedEv
2334:__ZN14chrome_lang_id18TaskSpec_Parameter21CheckTypeAndMergeFromERKN6google8protobuf11MessageLiteE
2335:__ZN14chrome_lang_id18TaskSpec_Parameter27MergePartialFromCodedStreamEPN6google8protobuf2io16CodedInputStreamE
2336:__ZNK14chrome_lang_id18TaskSpec_Parameter12ByteSizeLongEv
2337:__ZNK14chrome_lang_id18TaskSpec_Parameter24SerializeWithCachedSizesEPN6google8protobuf2io17CodedOutputStreamE
2338:__ZN6google8protobuf8internal26FunctionResultCallback_1_0IPNSt3__212basic_stringIcNS3_11char_traitsIcEENS3_9allocatorIcEEEEPN14chrome_lang_id18TaskSpec_ParameterEEC2EPFSA_SD_EbSD_
2339:__ZN6google8protobuf8internal9down_castIPKN14chrome_lang_id18TaskSpec_ParameterEKNS0_11MessageLiteEEET_PT0_
2340:__ZN14chrome_lang_id18TaskSpec_Parameter9MergeFromERKS0_
2341:__ZN14chrome_lang_id18TaskSpec_Parameter15UnsafeMergeFromERKS0_
2342:__ZN14chrome_lang_id18TaskSpec_ParameterD2Ev
2343:__ZN14chrome_lang_id18TaskSpec_Parameter10SharedDtorEv
2344:__ZN14chrome_lang_id8TaskSpecC2Ev
2345:__ZN14chrome_lang_id8TaskSpec10SharedCtorEv
2346:__ZN14chrome_lang_id8TaskSpecD0Ev
2347:__ZNK14chrome_lang_id8TaskSpec11GetTypeNameEv
2348:__ZNK14chrome_lang_id8TaskSpec3NewEPN6google8protobuf5ArenaE
2349:__ZN14chrome_lang_id8TaskSpec5ClearEv
2350:__ZNK14chrome_lang_id8TaskSpec13IsInitializedEv
2351:__ZN14chrome_lang_id8TaskSpec21CheckTypeAndMergeFromERKN6google8protobuf11MessageLiteE
2352:__ZN14chrome_lang_id8TaskSpec27MergePartialFromCodedStreamEPN6google8protobuf2io16CodedInputStreamE
2353:__ZNK14chrome_lang_id8TaskSpec12ByteSizeLongEv
2354:__ZNK14chrome_lang_id8TaskSpec24SerializeWithCachedSizesEPN6google8protobuf2io17CodedOutputStreamE
2355:__ZNK14chrome_lang_id8TaskSpec9task_typeEv
2356:__ZNK14chrome_lang_id10TaskOutput12ByteSizeLongEv
2357:__ZNK14chrome_lang_id10TaskOutput9file_baseEv
2358:__ZNK14chrome_lang_id9TaskInput12ByteSizeLongEv
2359:__ZN14chrome_lang_id8TaskSpec17mutable_task_nameEv
2360:__ZN14chrome_lang_id8TaskSpec17mutable_task_typeEv
2361:__ZN6google8protobuf8internal14WireFormatLite34ReadGroupNoVirtualNoRecursionDepthIN14chrome_lang_id18TaskSpec_ParameterEEEbiPNS0_2io16CodedInputStreamEPT_
2362:__ZN14chrome_lang_id10TaskOutput27MergePartialFromCodedStreamEPN6google8protobuf2io16CodedInputStreamE
2363:__ZN14chrome_lang_id10TaskOutput14set_has_shardsEv
2364:__ZN14chrome_lang_id10TaskOutput22set_has_file_extensionEv
2365:__ZN14chrome_lang_id10TaskOutput17set_has_file_baseEv
2366:__ZN6google8protobuf8internal26FunctionResultCallback_1_0IPNSt3__212basic_stringIcNS3_11char_traitsIcEENS3_9allocatorIcEEEEPN14chrome_lang_id10TaskOutputEEC2EPFSA_SD_EbSD_
2367:__ZN6google8protobuf8internal20RepeatedPtrFieldBase3AddINS0_16RepeatedPtrFieldIN14chrome_lang_id10TaskOutputEE11TypeHandlerEEEPNT_4TypeESB_
2368:__ZN6google8protobuf8internal18GenericTypeHandlerIN14chrome_lang_id10TaskOutputEE16NewFromPrototypeEPKS4_PNS0_5ArenaE
2369:__ZN6google8protobuf5Arena18CreateMaybeMessageIN14chrome_lang_id10TaskOutputEEEPT_PS1_z
2370:__ZN14chrome_lang_id10TaskOutputC2Ev
2371:__ZN14chrome_lang_id10TaskOutput10SharedCtorEv
2372:__ZN14chrome_lang_id10TaskOutputD0Ev
2373:__ZNK14chrome_lang_id10TaskOutput11GetTypeNameEv
2374:__ZNK14chrome_lang_id10TaskOutput3NewEPN6google8protobuf5ArenaE
2375:__ZN14chrome_lang_id10TaskOutput5ClearEv
2376:__ZN14chrome_lang_id10TaskOutput21CheckTypeAndMergeFromERKN6google8protobuf11MessageLiteE
2377:__ZNK14chrome_lang_id10TaskOutput24SerializeWithCachedSizesEPN6google8protobuf2io17CodedOutputStreamE
2378:__ZN6google8protobuf8internal9down_castIPKN14chrome_lang_id10TaskOutputEKNS0_11MessageLiteEEET_PT0_
2379:__ZN14chrome_lang_id10TaskOutput9MergeFromERKS0_
2380:__ZN14chrome_lang_id10TaskOutput15UnsafeMergeFromERKS0_
2381:__ZN14chrome_lang_id10TaskOutputD2Ev
2382:__ZN14chrome_lang_id10TaskOutput10SharedDtorEv
2383:__ZN14chrome_lang_id9TaskInput27MergePartialFromCodedStreamEPN6google8protobuf2io16CodedInputStreamE
2384:__ZN6google8protobuf2io16CodedInputStream12ReadVarint64EPy
2385:__ZN6google8protobuf8internal14WireFormatLite34ReadGroupNoVirtualNoRecursionDepthIN14chrome_lang_id14TaskInput_PartEEEbiPNS0_2io16CodedInputStreamEPT_
2386:__ZN6google8protobuf8internal14WireFormatLite7MakeTagEiNS2_8WireTypeE
2387:__ZN6google8protobuf2io16CodedInputStream10LastTagWasEj
2388:__ZN6google8protobuf8internal20RepeatedPtrFieldBase3AddINS0_16RepeatedPtrFieldIN14chrome_lang_id14TaskInput_PartEE11TypeHandlerEEEPNT_4TypeESB_
2389:__ZN6google8protobuf8internal18GenericTypeHandlerIN14chrome_lang_id14TaskInput_PartEE16NewFromPrototypeEPKS4_PNS0_5ArenaE
2390:__ZN6google8protobuf5Arena18CreateMaybeMessageIN14chrome_lang_id14TaskInput_PartEEEPT_PS1_z
2391:__ZN6google8protobuf8internal26FunctionResultCallback_1_0IPNSt3__212basic_stringIcNS3_11char_traitsIcEENS3_9allocatorIcEEEEPN14chrome_lang_id9TaskInputEEC2EPFSA_SD_EbSD_
2392:__ZN6google8protobuf8internal26FunctionResultCallback_1_0IPNSt3__212basic_stringIcNS3_11char_traitsIcEENS3_9allocatorIcEEEEPN14chrome_lang_id8TaskSpecEEC2EPFSA_SD_EbSD_
2393:__ZN6google8protobuf8internal9down_castIPKN14chrome_lang_id8TaskSpecEKNS0_11MessageLiteEEET_PT0_
2394:__ZN14chrome_lang_id8TaskSpec15UnsafeMergeFromERKS0_
2395:__ZN6google8protobuf8internal20RepeatedPtrFieldBase9MergeFromINS0_16RepeatedPtrFieldIN14chrome_lang_id10TaskOutputEE11TypeHandlerEEEvRKS2_
2396:__ZN6google8protobuf8internal20RepeatedPtrFieldBase18MergeFromInnerLoopINS0_16RepeatedPtrFieldIN14chrome_lang_id10TaskOutputEE11TypeHandlerEEEvPPvSA_ii
2397:__ZN6google8protobuf8internal18GenericTypeHandlerIN14chrome_lang_id10TaskOutputEE5MergeERKS4_PS4_
2398:__ZN6google8protobuf8internal20RepeatedPtrFieldBase9MergeFromINS0_16RepeatedPtrFieldIN14chrome_lang_id9TaskInputEE11TypeHandlerEEEvRKS2_
2399:__ZN6google8protobuf8internal20RepeatedPtrFieldBase18MergeFromInnerLoopINS0_16RepeatedPtrFieldIN14chrome_lang_id9TaskInputEE11TypeHandlerEEEvPPvSA_ii
2400:__ZN6google8protobuf8internal18GenericTypeHandlerIN14chrome_lang_id9TaskInputEE5MergeERKS4_PS4_
2401:__ZN14chrome_lang_id9TaskInput9MergeFromERKS0_
2402:__ZN14chrome_lang_id9TaskInput15UnsafeMergeFromERKS0_
2403:__ZN6google8protobuf16RepeatedPtrFieldINSt3__212basic_stringIcNS2_11char_traitsIcEENS2_9allocatorIcEEEEE15UnsafeMergeFromERKS9_
2404:__ZN6google8protobuf8internal20RepeatedPtrFieldBase9MergeFromINS0_16RepeatedPtrFieldIN14chrome_lang_id14TaskInput_PartEE11TypeHandlerEEEvRKS2_
2405:__ZN6google8protobuf8internal20RepeatedPtrFieldBase18MergeFromInnerLoopINS0_16RepeatedPtrFieldIN14chrome_lang_id14TaskInput_PartEE11TypeHandlerEEEvPPvSA_ii
2406:__ZN6google8protobuf8internal18GenericTypeHandlerIN14chrome_lang_id14TaskInput_PartEE5MergeERKS4_PS4_
2407:__ZN6google8protobuf8internal20RepeatedPtrFieldBase9MergeFromINS0_16RepeatedPtrFieldIN14chrome_lang_id18TaskSpec_ParameterEE11TypeHandlerEEEvRKS2_
2408:__ZN6google8protobuf8internal20RepeatedPtrFieldBase18MergeFromInnerLoopINS0_16RepeatedPtrFieldIN14chrome_lang_id18TaskSpec_ParameterEE11TypeHandlerEEEvPPvSA_ii
2409:__ZN6google8protobuf8internal18GenericTypeHandlerIN14chrome_lang_id18TaskSpec_ParameterEE5MergeERKS4_PS4_
2410:__ZN14chrome_lang_id8TaskSpecD2Ev
2411:__ZN14chrome_lang_id8TaskSpec10SharedDtorEv
2412:__ZN14chrome_lang_id9TaskInputC2Ev
2413:__ZN14chrome_lang_id9TaskInput10SharedCtorEv
2414:__ZN6google8protobuf16RepeatedPtrFieldINSt3__212basic_stringIcNS2_11char_traitsIcEENS2_9allocatorIcEEEEED2Ev
2415:__ZN6google8protobuf8internal20RepeatedPtrFieldBase7DestroyINS0_16RepeatedPtrFieldINSt3__212basic_stringIcNS5_11char_traitsIcEENS5_9allocatorIcEEEEE11TypeHandlerEEEvv
2416:__ZN14chrome_lang_id9TaskInputD0Ev
2417:__ZNK14chrome_lang_id9TaskInput11GetTypeNameEv
2418:__ZNK14chrome_lang_id9TaskInput3NewEPN6google8protobuf5ArenaE
2419:__ZN14chrome_lang_id9TaskInput5ClearEv
2420:__ZN14chrome_lang_id9TaskInput21CheckTypeAndMergeFromERKN6google8protobuf11MessageLiteE
2421:__ZNK14chrome_lang_id9TaskInput24SerializeWithCachedSizesEPN6google8protobuf2io17CodedOutputStreamE
2422:__ZN6google8protobuf8internal9down_castIPKN14chrome_lang_id9TaskInputEKNS0_11MessageLiteEEET_PT0_
2423:__ZN6google8protobuf16RepeatedPtrFieldINSt3__212basic_stringIcNS2_11char_traitsIcEENS2_9allocatorIcEEEEE5ClearEv
2424:__ZN6google8protobuf8internal20RepeatedPtrFieldBase5ClearINS0_16RepeatedPtrFieldINSt3__212basic_stringIcNS5_11char_traitsIcEENS5_9allocatorIcEEEEE11TypeHandlerEEEvv
2425:__ZN6google8protobuf8internal21StringTypeHandlerBase5ClearEPNSt3__212basic_stringIcNS3_11char_traitsIcEENS3_9allocatorIcEEEE
2426:__ZN14chrome_lang_id9TaskInputD2Ev
2427:__ZN14chrome_lang_id14TaskInput_PartD2Ev
2428:__ZN14chrome_lang_id14TaskInput_Part10SharedDtorEv
2429:__ZN14chrome_lang_id32GenericEmbeddingFeatureExtractorD0Ev
2430:__ZN14chrome_lang_id32GenericEmbeddingFeatureExtractor5SetupEPNS_11TaskContextE
2431:__ZNK14chrome_lang_id32GenericEmbeddingFeatureExtractor12GetParamNameERKNSt3__212basic_stringIcNS1_11char_traitsIcEENS1_9allocatorIcEEEE
2432:__ZNSt3__26vectorINS_12basic_stringIcNS_11char_traitsIcEENS_9allocatorIcEEEENS4_IS6_EEE13__move_assignERS8_NS_17integral_constantIbLb1EEE
2433:__ZNSt3__26vectorINS_12basic_stringIcNS_11char_traitsIcEENS_9allocatorIcEEEENS4_IS6_EEE10deallocateEv
2434:__ZN14chrome_lang_id32GenericEmbeddingFeatureExtractorD2Ev
2435:__ZN14chrome_lang_id32GenericEmbeddingFeatureExtractorC2Ev
2436:__ZNK14chrome_lang_id16EmbeddingNetwork16ConcatEmbeddingsERKNSt3__26vectorINS_13FeatureVectorENS1_9allocatorIS3_EEEEPNS2_IfNS4_IfEEEE
2437:__ZNSt3__26vectorIfNS_9allocatorIfEEE6resizeEj
2438:__ZNK14chrome_lang_id16EmbeddingNetwork15EmbeddingMatrix13get_embeddingEiPPKvPf
2439:__ZN14chrome_lang_idL11Float16To32Et
2440:__ZNSt3__26vectorIfNS_9allocatorIfEEE8__appendEj
2441:__ZNSt3__26vectorIfNS_9allocatorIfEEE18__construct_at_endEj
2442:__ZNSt3__214__split_bufferIfRNS_9allocatorIfEEE18__construct_at_endEj
2443:__ZNK14chrome_lang_id16EmbeddingNetwork18ComputeFinalScoresERKNSt3__26vectorINS_13FeatureVectorENS1_9allocatorIS3_EEEEPNS2_IfNS4_IfEEEE
2444:__ZNK14chrome_lang_id16EmbeddingNetwork24FinishComputeFinalScoresINS_11SimpleAdderEEEvRKNSt3__26vectorIfNS3_9allocatorIfEEEEPS7_
2445:__ZNSt3__26vectorIfNS_9allocatorIfEEEC2Ej
2446:__ZN14chrome_lang_id12_GLOBAL__N_125SparseReluProductPlusBiasINS_11SimpleAdderEEEvbRKNSt3__26vectorINS_16EmbeddingNetwork13VectorWrapperENS3_9allocatorIS6_EEEERKS6_RKNS4_IfNS7_IfEEEEPSF_
2447:__ZNSt3__26vectorIfNS_9allocatorIfEEE6assignIPKfEENS_9enable_ifIXaasr21__is_forward_iteratorIT_EE5valuesr16is_constructibleIfNS_15iterator_traitsIS8_E9referenceEEE5valueEvE4typeES8_S8_
2448:__ZNSt3__26vectorIfNS_9allocatorIfEEE18__construct_at_endIPKfEENS_9enable_ifIXsr21__is_forward_iteratorIT_EE5valueEvE4typeES8_S8_j
2449:__ZNSt3__26vectorIfNS_9allocatorIfEEE10deallocateEv
2450:__ZN14chrome_lang_id16EmbeddingNetworkC2EPKNS_22EmbeddingNetworkParamsE
2451:__ZN14chrome_lang_id16EmbeddingNetwork13VectorWrapperC2Ev
2452:__ZNK14chrome_lang_id22EmbeddingNetworkParams18GetEmbeddingMatrixEi
2453:__ZN14chrome_lang_id16EmbeddingNetwork15EmbeddingMatrixC2ENS_22EmbeddingNetworkParams6MatrixE
2454:__ZNSt3__26vectorIN14chrome_lang_id16EmbeddingNetwork15EmbeddingMatrixENS_9allocatorIS3_EEE24__emplace_back_slow_pathIJNS1_22EmbeddingNetworkParams6MatrixEEEEvDpOT_
2455:__ZNSt3__26vectorINS0_IN14chrome_lang_id16EmbeddingNetwork13VectorWrapperENS_9allocatorIS3_EEEENS4_IS6_EEE6resizeEj
2456:__ZNSt3__26vectorIN14chrome_lang_id16EmbeddingNetwork13VectorWrapperENS_9allocatorIS3_EEE6resizeEj
2457:__ZNK14chrome_lang_id22EmbeddingNetworkParams20GetHiddenLayerMatrixEi
2458:__ZN14chrome_lang_id12_GLOBAL__N_116FillMatrixParamsENS_22EmbeddingNetworkParams6MatrixEPNSt3__26vectorINS_16EmbeddingNetwork13VectorWrapperENS3_9allocatorIS6_EEEE
2459:__ZNK14chrome_lang_id22EmbeddingNetworkParams18GetHiddenLayerBiasEi
2460:__ZN14chrome_lang_id12_GLOBAL__N_119CheckNoQuantizationENS_22EmbeddingNetworkParams6MatrixE
2461:__ZNK14chrome_lang_id22EmbeddingNetworkParams10HasSoftmaxEv
2462:__ZNK14chrome_lang_id22EmbeddingNetworkParams16GetSoftmaxMatrixEv
2463:__ZNK14chrome_lang_id22EmbeddingNetworkParams14GetSoftmaxBiasEv
2464:__ZNK14chrome_lang_id22EmbeddingNetworkParams16CheckMatrixRangeEiiRKNSt3__212basic_stringIcNS1_11char_traitsIcEENS1_9allocatorIcEEEE
2465:__ZNSt3__26vectorIN14chrome_lang_id16EmbeddingNetwork13VectorWrapperENS_9allocatorIS3_EEE8__appendEj
2466:__ZNSt3__26vectorIN14chrome_lang_id16EmbeddingNetwork13VectorWrapperENS_9allocatorIS3_EEE18__construct_at_endEj
2467:__ZNSt3__214__split_bufferIN14chrome_lang_id16EmbeddingNetwork13VectorWrapperERNS_9allocatorIS3_EEEC2EjjS6_
2468:__ZNSt3__214__split_bufferIN14chrome_lang_id16EmbeddingNetwork13VectorWrapperERNS_9allocatorIS3_EEE18__construct_at_endEj
2469:__ZNSt3__26vectorIN14chrome_lang_id16EmbeddingNetwork13VectorWrapperENS_9allocatorIS3_EEE26__swap_out_circular_bufferERNS_14__split_bufferIS3_RS5_EE
2470:__ZNSt3__214__split_bufferIN14chrome_lang_id16EmbeddingNetwork13VectorWrapperERNS_9allocatorIS3_EEED2Ev
2471:__ZNSt3__26vectorINS0_IN14chrome_lang_id16EmbeddingNetwork13VectorWrapperENS_9allocatorIS3_EEEENS4_IS6_EEE8__appendEj
2472:__ZNSt3__26vectorINS0_IN14chrome_lang_id16EmbeddingNetwork13VectorWrapperENS_9allocatorIS3_EEEENS4_IS6_EEE18__construct_at_endEj
2473:__ZNSt3__214__split_bufferINS_6vectorIN14chrome_lang_id16EmbeddingNetwork13VectorWrapperENS_9allocatorIS4_EEEERNS5_IS7_EEE18__construct_at_endEj
2474:__ZNSt3__26vectorINS0_IN14chrome_lang_id16EmbeddingNetwork13VectorWrapperENS_9allocatorIS3_EEEENS4_IS6_EEE26__swap_out_circular_bufferERNS_14__split_bufferIS6_RS7_EE
2475:__ZNSt3__214__split_bufferINS_6vectorIN14chrome_lang_id16EmbeddingNetwork13VectorWrapperENS_9allocatorIS4_EEEERNS5_IS7_EEED2Ev
2476:__ZNSt3__26vectorIN14chrome_lang_id16EmbeddingNetwork15EmbeddingMatrixENS_9allocatorIS3_EEE26__swap_out_circular_bufferERNS_14__split_bufferIS3_RS5_EE
2477:__ZNSt3__214__split_bufferIN14chrome_lang_id16EmbeddingNetwork15EmbeddingMatrixERNS_9allocatorIS3_EEED2Ev
2478:__ZN14chrome_lang_id16EmbeddingNetwork15EmbeddingMatrix17GetRowSizeInBytesEiNS_16QuantizationTypeE
2479:__ZN14chrome_lang_id23GenericFeatureExtractorD0Ev
2480:__ZN14chrome_lang_id23GenericFeatureExtractorD2Ev
2481:__ZN14chrome_lang_id22GenericFeatureFunctionD0Ev
2482:__ZNK14chrome_lang_id22GenericFeatureFunction15GetFeatureTypesEPNSt3__26vectorIPNS_11FeatureTypeENS1_9allocatorIS4_EEEE
2483:__ZNK14chrome_lang_id22GenericFeatureFunction14GetFeatureTypeEv
2484:__ZN14chrome_lang_id22GenericFeatureFunctionD2Ev
2485:__ZNSt3__213__vector_baseIN14chrome_lang_id13FeatureVector7ElementENS_9allocatorIS3_EEED2Ev
2486:__ZN14chrome_lang_id23GenericFeatureExtractorC2Ev
2487:__ZN14chrome_lang_id23GenericFeatureExtractorC2ERKS0_
2488:__ZN14chrome_lang_id23GenericFeatureExtractor5ParseERKNSt3__212basic_stringIcNS1_11char_traitsIcEENS1_9allocatorIcEEEE
2489:__ZN14chrome_lang_id23GenericFeatureExtractor22InitializeFeatureTypesEv
2490:__ZNK14chrome_lang_id23GenericFeatureExtractor19GetFeatureTypeNamesEPNSt3__26vectorINS1_12basic_stringIcNS1_11char_traitsIcEENS1_9allocatorIcEEEENS6_IS8_EEEE
2491:__ZNSt3__26vectorINS_12basic_stringIcNS_11char_traitsIcEENS_9allocatorIcEEEENS4_IS6_EEE21__push_back_slow_pathIRKS6_EEvOT_
2492:__ZNK14chrome_lang_id22GenericFeatureFunction12GetParameterERKNSt3__212basic_stringIcNS1_11char_traitsIcEENS1_9allocatorIcEEEE
2493:__ZN14chrome_lang_id22GenericFeatureFunctionC2Ev
2494:__ZNK14chrome_lang_id22GenericFeatureFunction15GetIntParameterERKNSt3__212basic_stringIcNS1_11char_traitsIcEENS1_9allocatorIcEEEEi
2495:__ZNK14chrome_lang_id22GenericFeatureFunction16GetBoolParameterERKNSt3__212basic_stringIcNS1_11char_traitsIcEENS1_9allocatorIcEEEEb
2496:__ZN14chrome_lang_id9FMLParserC2Ev
2497:__ZN14chrome_lang_id9FMLParser10InitializeERKNSt3__212basic_stringIcNS1_11char_traitsIcEENS1_9allocatorIcEEEE
2498:__ZN14chrome_lang_id9FMLParser8NextItemEv
2499:__ZNK14chrome_lang_id9FMLParser3eosEv
2500:__ZNK14chrome_lang_id9FMLParser11CurrentCharEv
2501:__ZN14chrome_lang_id9FMLParser4NextEv
2502:__ZN14chrome_lang_id12_GLOBAL__N_126IsValidCharAtStartOfNumberEc
2503:__ZNSt3__212basic_stringIcNS_11char_traitsIcEENS_9allocatorIcEEE6assignINS_11__wrap_iterIPcEEEENS_9enable_ifIXaasr21__is_forward_iteratorIT_EE5valuesr38__libcpp_string_gets_noexcept_iteratorISB_EE5valueERS5_E4typeESB_SB_
2504:__ZN14chrome_lang_id12_GLOBAL__N_130IsValidCharAtStartOfIdentifierEc
2505:__ZN14chrome_lang_id12_GLOBAL__N_127IsValidCharInsideIdentifierEc
2506:__ZN14chrome_lang_id9FMLParser5ParseERKNSt3__212basic_stringIcNS1_11char_traitsIcEENS1_9allocatorIcEEEEPNS_26FeatureExtractorDescriptorE
2507:__ZN14chrome_lang_id26FeatureExtractorDescriptor11add_featureEv
2508:__ZN14chrome_lang_id25FeatureFunctionDescriptor8set_typeERKNSt3__212basic_stringIcNS1_11char_traitsIcEENS1_9allocatorIcEEEE
2509:__ZN14chrome_lang_id9FMLParser12ParseFeatureEPNS_25FeatureFunctionDescriptorE
2510:__ZN14chrome_lang_id9FMLParser14ParseParameterEPNS_25FeatureFunctionDescriptorE
2511:__ZN14chrome_lang_id25FeatureFunctionDescriptor11add_featureEv
2512:__ZN6google8protobuf16RepeatedPtrFieldIN14chrome_lang_id25FeatureFunctionDescriptorEE3AddEv
2513:__ZN6google8protobuf8internal20RepeatedPtrFieldBase3AddINS0_16RepeatedPtrFieldIN14chrome_lang_id25FeatureFunctionDescriptorEE11TypeHandlerEEEPNT_4TypeESB_
2514:__ZN6google8protobuf8internal18GenericTypeHandlerIN14chrome_lang_id25FeatureFunctionDescriptorEE16NewFromPrototypeEPKS4_PNS0_5ArenaE
2515:__ZN6google8protobuf5Arena18CreateMaybeMessageIN14chrome_lang_id25FeatureFunctionDescriptorEEEPT_PS1_z
2516:__ZN14chrome_lang_id25FeatureFunctionDescriptor12set_argumentEi
2517:__ZN14chrome_lang_id25FeatureFunctionDescriptor13add_parameterEv
2518:__ZN6google8protobuf8internal20RepeatedPtrFieldBase3AddINS0_16RepeatedPtrFieldIN14chrome_lang_id9ParameterEE11TypeHandlerEEEPNT_4TypeESB_
2519:__ZN6google8protobuf8internal18GenericTypeHandlerIN14chrome_lang_id9ParameterEE16NewFromPrototypeEPKS4_PNS0_5ArenaE
2520:__ZN6google8protobuf5Arena18CreateMaybeMessageIN14chrome_lang_id9ParameterEEEPT_PS1_z
2521:__ZN14chrome_lang_id13ToFMLFunctionERKNS_25FeatureFunctionDescriptorEPNSt3__212basic_stringIcNS3_11char_traitsIcEENS3_9allocatorIcEEEE
2522:__ZN14chrome_lang_id5ToFMLERKNS_25FeatureFunctionDescriptorEPNSt3__212basic_stringIcNS3_11char_traitsIcEENS3_9allocatorIcEEEE
2523:__ZN14chrome_lang_id18NumericFeatureTypeD2Ev
2524:__ZN14chrome_lang_id18NumericFeatureTypeD0Ev
2525:__ZNK14chrome_lang_id18NumericFeatureType19GetFeatureValueNameEx
2526:__ZNK14chrome_lang_id18NumericFeatureType13GetDomainSizeEv
2527:__ZN14chrome_lang_id29ContinuousBagOfNgramsFunction5SetupEPNS_11TaskContextE
2528:__ZN14chrome_lang_id29ContinuousBagOfNgramsFunction4InitEPNS_11TaskContextE
2529:__ZNK14chrome_lang_id29ContinuousBagOfNgramsFunction8EvaluateERKNS_12WorkspaceSetERKNS_8SentenceEPNS_13FeatureVectorE
2530:__ZNSt3__26vectorINS_12basic_stringIcNS_11char_traitsIcEENS_9allocatorIcEEEENS4_IS6_EEE18__construct_at_endIPKS6_EENS_9enable_ifIXsr21__is_forward_iteratorIT_EE5valueEvE4typeESD_SD_j
2531:__ZNSt3__26vectorINS_12basic_stringIcNS_11char_traitsIcEENS_9allocatorIcEEEENS4_IS6_EEE4swapERS8_
2532:__ZNSt3__213unordered_mapINS_12basic_stringIcNS_11char_traitsIcEENS_9allocatorIcEEEEiNS_4hashIS6_EENS_8equal_toIS6_EENS4_INS_4pairIKS6_iEEEEEixERSC_
2533:__ZNSt3__212__hash_tableINS_17__hash_value_typeINS_12basic_stringIcNS_11char_traitsIcEENS_9allocatorIcEEEEiEENS_22__unordered_map_hasherIS7_S8_NS_4hashIS7_EELb1EEENS_21__unordered_map_equalIS7_S8_NS_8equal_toIS7_EELb1EEENS5_IS8_EEE21__construct_node_hashIRKNS_21piecewise_construct_tEJNS_5tupleIJRKS7_EEENSN_IJEEEEEENS_10unique_ptrINS_11__hash_nodeIS8_PvEENS_22__hash_node_destructorINS5_ISV_EEEEEEjOT_DpOT0_
2534:__ZN14chrome_lang_id18NumericFeatureTypeC2ERKNSt3__212basic_stringIcNS1_11char_traitsIcEENS1_9allocatorIcEEEEx
2535:__ZN14chrome_lang_id13ScriptFeature4InitEPNS_11TaskContextE
2536:__ZNK14chrome_lang_id13ScriptFeature7ComputeERKNS_12WorkspaceSetERKNS_8SentenceEPKNS_13FeatureVectorE
2537:__ZN14chrome_lang_id11UnicodeText4Repr7PointToEPKci
2538:__ZN14chrome_lang_id11UnicodeText4ReprC2Ev
2539:__ZN14chrome_lang_id11UnicodeText4ReprD2Ev
2540:__ZNK14chrome_lang_id11UnicodeText14const_iteratordeEv
2541:__ZN14chrome_lang_id4CLD215FixUnicodeValueEi
2542:__ZN14chrome_lang_id9ParameterD0Ev
2543:__ZNK14chrome_lang_id9Parameter11GetTypeNameEv
2544:__ZNK14chrome_lang_id9Parameter3NewEPN6google8protobuf5ArenaE
2545:__ZN14chrome_lang_id9Parameter21CheckTypeAndMergeFromERKN6google8protobuf11MessageLiteE
2546:__ZN14chrome_lang_id9Parameter27MergePartialFromCodedStreamEPN6google8protobuf2io16CodedInputStreamE
2547:__ZNK14chrome_lang_id9Parameter12ByteSizeLongEv
2548:__ZNK14chrome_lang_id9Parameter24SerializeWithCachedSizesEPN6google8protobuf2io17CodedOutputStreamE
2549:__ZN6google8protobuf8internal26FunctionResultCallback_1_0IPNSt3__212basic_stringIcNS3_11char_traitsIcEENS3_9allocatorIcEEEEPN14chrome_lang_id9ParameterEEC2EPFSA_SD_EbSD_
2550:__ZN6google8protobuf8internal9down_castIPKN14chrome_lang_id9ParameterEKNS0_11MessageLiteEEET_PT0_
2551:__ZN14chrome_lang_id9Parameter9MergeFromERKS0_
2552:__ZN14chrome_lang_id9Parameter15UnsafeMergeFromERKS0_
2553:__ZN14chrome_lang_id12_GLOBAL__N_1L13MergeFromFailEi_972
2554:__ZN14chrome_lang_id9ParameterC2Ev
2555:__ZN14chrome_lang_id49protobuf_InitDefaults_feature_5fextractor_2eprotoEv
2556:__ZN14chrome_lang_id54protobuf_InitDefaults_feature_5fextractor_2eproto_implEv
2557:__ZN14chrome_lang_id26FeatureExtractorDescriptorC2Ev
2558:__ZN14chrome_lang_id26FeatureExtractorDescriptor10SharedCtorEv
2559:__ZN14chrome_lang_id26FeatureExtractorDescriptorD0Ev
2560:__ZNK14chrome_lang_id26FeatureExtractorDescriptor11GetTypeNameEv
2561:__ZNK14chrome_lang_id26FeatureExtractorDescriptor3NewEPN6google8protobuf5ArenaE
2562:__ZN14chrome_lang_id26FeatureExtractorDescriptor5ClearEv
2563:__ZNK14chrome_lang_id26FeatureExtractorDescriptor13IsInitializedEv
2564:__ZN14chrome_lang_id26FeatureExtractorDescriptor21CheckTypeAndMergeFromERKN6google8protobuf11MessageLiteE
2565:__ZN14chrome_lang_id26FeatureExtractorDescriptor27MergePartialFromCodedStreamEPN6google8protobuf2io16CodedInputStreamE
2566:__ZNK14chrome_lang_id26FeatureExtractorDescriptor12ByteSizeLongEv
2567:__ZNK14chrome_lang_id26FeatureExtractorDescriptor24SerializeWithCachedSizesEPN6google8protobuf2io17CodedOutputStreamE
2568:__ZN6google8protobuf8internal14WireFormatLite20MessageSizeNoVirtualIN14chrome_lang_id25FeatureFunctionDescriptorEEEjRKT_
2569:__ZNK14chrome_lang_id25FeatureFunctionDescriptor12ByteSizeLongEv
2570:__ZN6google8protobuf8internal14WireFormatLite36ReadMessageNoVirtualNoRecursionDepthIN14chrome_lang_id25FeatureFunctionDescriptorEEEbPNS0_2io16CodedInputStreamEPT_
2571:__ZN14chrome_lang_id25FeatureFunctionDescriptor27MergePartialFromCodedStreamEPN6google8protobuf2io16CodedInputStreamE
2572:__ZN6google8protobuf8internal26FunctionResultCallback_1_0IPNSt3__212basic_stringIcNS3_11char_traitsIcEENS3_9allocatorIcEEEEPN14chrome_lang_id25FeatureFunctionDescriptorEEC2EPFSA_SD_EbSD_
2573:__ZN6google8protobuf8internal26FunctionResultCallback_1_0IPNSt3__212basic_stringIcNS3_11char_traitsIcEENS3_9allocatorIcEEEEPN14chrome_lang_id26FeatureExtractorDescriptorEEC2EPFSA_SD_EbSD_
2574:__ZN6google8protobuf8internal9down_castIPKN14chrome_lang_id26FeatureExtractorDescriptorEKNS0_11MessageLiteEEET_PT0_
2575:__ZN14chrome_lang_id26FeatureExtractorDescriptor15UnsafeMergeFromERKS0_
2576:__ZN6google8protobuf16RepeatedPtrFieldIN14chrome_lang_id25FeatureFunctionDescriptorEE9MergeFromERKS4_
2577:__ZN6google8protobuf8internal20RepeatedPtrFieldBase9MergeFromINS0_16RepeatedPtrFieldIN14chrome_lang_id25FeatureFunctionDescriptorEE11TypeHandlerEEEvRKS2_
2578:__ZN6google8protobuf8internal20RepeatedPtrFieldBase18MergeFromInnerLoopINS0_16RepeatedPtrFieldIN14chrome_lang_id25FeatureFunctionDescriptorEE11TypeHandlerEEEvPPvSA_ii
2579:__ZN6google8protobuf8internal18GenericTypeHandlerIN14chrome_lang_id25FeatureFunctionDescriptorEE5MergeERKS4_PS4_
2580:__ZN14chrome_lang_id25FeatureFunctionDescriptor9MergeFromERKS0_
2581:__ZN14chrome_lang_id25FeatureFunctionDescriptor15UnsafeMergeFromERKS0_
2582:__ZN6google8protobuf8internal20RepeatedPtrFieldBase9MergeFromINS0_16RepeatedPtrFieldIN14chrome_lang_id9ParameterEE11TypeHandlerEEEvRKS2_
2583:__ZN6google8protobuf8internal20RepeatedPtrFieldBase18MergeFromInnerLoopINS0_16RepeatedPtrFieldIN14chrome_lang_id9ParameterEE11TypeHandlerEEEvPPvSA_ii
2584:__ZN6google8protobuf8internal18GenericTypeHandlerIN14chrome_lang_id9ParameterEE5MergeERKS4_PS4_
2585:__ZN14chrome_lang_id26FeatureExtractorDescriptorD2Ev
2586:__ZN14chrome_lang_id25FeatureFunctionDescriptorC2Ev
2587:__ZN14chrome_lang_id25FeatureFunctionDescriptor10SharedCtorEv
2588:__ZN14chrome_lang_id25FeatureFunctionDescriptorD0Ev
2589:__ZNK14chrome_lang_id25FeatureFunctionDescriptor11GetTypeNameEv
2590:__ZNK14chrome_lang_id25FeatureFunctionDescriptor3NewEPN6google8protobuf5ArenaE
2591:__ZN14chrome_lang_id25FeatureFunctionDescriptor5ClearEv
2592:__ZNK14chrome_lang_id25FeatureFunctionDescriptor13IsInitializedEv
2593:__ZN14chrome_lang_id25FeatureFunctionDescriptor21CheckTypeAndMergeFromERKN6google8protobuf11MessageLiteE
2594:__ZNK14chrome_lang_id25FeatureFunctionDescriptor24SerializeWithCachedSizesEPN6google8protobuf2io17CodedOutputStreamE
2595:__ZN6google8protobuf8internal9down_castIPKN14chrome_lang_id25FeatureFunctionDescriptorEKNS0_11MessageLiteEEET_PT0_
2596:__ZN14chrome_lang_id25FeatureFunctionDescriptorD2Ev
2597:__ZN14chrome_lang_id25FeatureFunctionDescriptor10SharedDtorEv
2598:__ZN14chrome_lang_id9ParameterD2Ev
2599:__ZN14chrome_lang_id26FeatureExtractorDescriptorC2ERKS0_
2600:__ZN14chrome_lang_id13Int64ToStringEx
2601:__ZN14chrome_lang_id11FeatureTypeD0Ev
2602:__ZN14chrome_lang_id11FeatureTypeD2Ev
2603:__ZN14chrome_lang_id11FeatureTypeC2ERKNSt3__212basic_stringIcNS1_11char_traitsIcEENS1_9allocatorIcEEEE
2604:__ZNSt3__218__search_substringIcNS_11char_traitsIcEEEEPKT_S5_S5_S5_S5_
2605:__ZNSt3__211char_traitsIcE4findEPKcjRS2_
2606:__GLOBAL__sub_I_bind_cpp
2607:__ZN53EmscriptenBindingInitializer_native_and_builtin_typesC2Ev
2608:__ZN12_GLOBAL__N_1L20register_memory_viewIaEEvPKc
2609:__ZN12_GLOBAL__N_1L20register_memory_viewIhEEvPKc
2610:__ZN12_GLOBAL__N_1L20register_memory_viewIsEEvPKc
2611:__ZN12_GLOBAL__N_1L20register_memory_viewItEEvPKc
2612:__ZN12_GLOBAL__N_1L20register_memory_viewIiEEvPKc
2613:__ZN12_GLOBAL__N_1L20register_memory_viewIjEEvPKc
2614:___getTypeName
2615:_malloc
2616:_free
2617:_emscripten_get_global_libc
2618:___stdio_close
2619:___stdio_seek
2620:___syscall_ret
2621:___errno_location
2622:___stdio_write
2623:___shlim
2624:___intscan
2625:___shgetc
2626:_isspace
2627:___uflow
2628:___toread
2629:___floatscan
2630:_hexfloat
2631:_decfloat
2632:_scanexp
2633:_scalbn
2634:_copysignl
2635:_fmodl
2636:_scalbnl
2637:_fmod
2638:___DOUBLE_BITS_131
2639:_strtox
2640:_strtod
2641:_sprintf
2642:___strchrnul
2643:_strlen
2644:_vsnprintf
2645:_vfprintf
2646:_printf_core
2647:_out
2648:_getint
2649:_pop_arg
2650:_fmt_x
2651:_fmt_o
2652:_fmt_u
2653:_memchr
2654:_pad_714
2655:_wctomb
2656:_fmt_fp
2657:_frexp
2658:_wcrtomb
2659:___strerror_l
2660:___mo_lookup
2661:_swapc
2662:_strcmp
2663:___fwritex
2664:___towrite
2665:_sn_write
2666:_strtox_11
2667:_strtol
2668:_scalbnf
2669:_memcmp
2670:_strchr
2671:___strdup
2672:_isalpha
2673:_isdigit
2674:_snprintf
2675:_fprintf
2676:___overflow
2677:___fflush_unlocked
2678:_fputc
2679:_expf
2680:_logf
2681:__ZNSt3__212__next_primeEj
2682:__ZNSt3__213__lower_boundIRNS_6__lessIjjEEPKjjEET0_S6_S6_RKT1_T_
2683:__ZNKSt3__220__vector_base_commonILb1EE20__throw_length_errorEv
2684:__Znwj
2685:__ZnwjRKSt9nothrow_t
2686:__ZdlPv
2687:__ZNSt3__218__libcpp_refstringC2EPKc
2688:__ZNSt11logic_errorC2EPKc
2689:__ZNSt3__212basic_stringIcNS_11char_traitsIcEENS_9allocatorIcEEEC2ERKS5_
2690:__ZNSt3__212basic_stringIcNS_11char_traitsIcEENS_9allocatorIcEEEC2ERKS5_jjRKS4_
2691:__ZNSt3__212basic_stringIcNS_11char_traitsIcEENS_9allocatorIcEEED2Ev
2692:__ZNSt3__212basic_stringIcNS_11char_traitsIcEENS_9allocatorIcEEEaSERKS5_
2693:__ZNSt3__212basic_stringIcNS_11char_traitsIcEENS_9allocatorIcEEE6assignEPKcj
2694:__ZNSt3__211char_traitsIcE4moveEPcPKcj
2695:__ZNSt3__212basic_stringIcNS_11char_traitsIcEENS_9allocatorIcEEE21__grow_by_and_replaceEjjjjjjPKc
2696:__ZNSt3__212basic_stringIcNS_11char_traitsIcEENS_9allocatorIcEEE7reserveEj
2697:__ZNSt3__212basic_stringIcNS_11char_traitsIcEENS_9allocatorIcEEE6assignEPKc
2698:__ZNSt3__212basic_stringIcNS_11char_traitsIcEENS_9allocatorIcEEE6resizeEjc
2699:__ZNSt3__212basic_stringIcNS_11char_traitsIcEENS_9allocatorIcEEE6appendEjc
2700:__ZNSt3__212basic_stringIcNS_11char_traitsIcEENS_9allocatorIcEEE9__grow_byEjjjjjj
2701:__ZNKSt3__212basic_stringIcNS_11char_traitsIcEENS_9allocatorIcEEE2atEj
2702:__ZNSt3__212basic_stringIcNS_11char_traitsIcEENS_9allocatorIcEEE2atEj
2703:__ZNSt3__212basic_stringIcNS_11char_traitsIcEENS_9allocatorIcEEE6appendEPKcj
2704:__ZNSt3__212basic_stringIcNS_11char_traitsIcEENS_9allocatorIcEEE6appendEPKc
2705:__ZNSt3__212basic_stringIcNS_11char_traitsIcEENS_9allocatorIcEEE9push_backEc
2706:__ZNSt3__212basic_stringIcNS_11char_traitsIcEENS_9allocatorIcEEE6appendERKS5_jj
2707:__ZNSt3__212basic_stringIcNS_11char_traitsIcEENS_9allocatorIcEEE5eraseEjj
2708:__ZNSt3__212basic_stringIcNS_11char_traitsIcEENS_9allocatorIcEEE7replaceEjjPKcj
2709:__ZNSt3__212basic_stringIcNS_11char_traitsIcEENS_9allocatorIcEEE7replaceEjjPKc
2710:__ZNKSt3__212basic_stringIcNS_11char_traitsIcEENS_9allocatorIcEEE4findEcj
2711:__ZNKSt3__212basic_stringIcNS_11char_traitsIcEENS_9allocatorIcEEE5rfindEcj
2712:__ZNKSt3__212basic_stringIcNS_11char_traitsIcEENS_9allocatorIcEEE7compareEjjPKcj
2713:__ZNSt3__29to_stringEx
2714:__ZNKSt3__212_GLOBAL__N_114initial_stringINS_12basic_stringIcNS_11char_traitsIcEENS_9allocatorIcEEEExLb0EEclEv
2715:__ZNSt3__212_GLOBAL__N_19as_stringINS_12basic_stringIcNS_11char_traitsIcEENS_9allocatorIcEEEEPFiPcjPKczExEET_T0_SD_PKNSD_10value_typeET1_
2716:__ZL25default_terminate_handlerv
2717:___cxa_get_globals_fast
2718:_abort_message
2719:__ZNK10__cxxabiv117__class_type_info9can_catchEPKNS_16__shim_type_infoERPv
2720:__ZNK10__cxxabiv117__class_type_info16search_above_dstEPNS_19__dynamic_cast_infoEPKvS4_ib
2721:__ZNK10__cxxabiv117__class_type_info16search_below_dstEPNS_19__dynamic_cast_infoEPKvib
2722:__ZNK10__cxxabiv117__class_type_info27has_unambiguous_public_baseEPNS_19__dynamic_cast_infoEPvi
2723:__ZNK10__cxxabiv117__class_type_info24process_found_base_classEPNS_19__dynamic_cast_infoEPvi
2724:__ZNK10__cxxabiv117__class_type_info29process_static_type_below_dstEPNS_19__dynamic_cast_infoEPKvi
2725:__ZNK10__cxxabiv117__class_type_info29process_static_type_above_dstEPNS_19__dynamic_cast_infoEPKvS4_i
2726:___dynamic_cast
2727:__ZNK10__cxxabiv120__si_class_type_info16search_above_dstEPNS_19__dynamic_cast_infoEPKvS4_ib
2728:__ZNK10__cxxabiv120__si_class_type_info16search_below_dstEPNS_19__dynamic_cast_infoEPKvib
2729:__ZNK10__cxxabiv120__si_class_type_info27has_unambiguous_public_baseEPNS_19__dynamic_cast_infoEPvi
2730:__ZN10__cxxabiv112_GLOBAL__N_110construct_Ev
2731:__ZN10__cxxabiv112_GLOBAL__N_19destruct_EPv
2732:__ZNKSt9exception4whatEv
2733:__ZNSt11logic_errorD2Ev
2734:__ZNSt11logic_errorD0Ev
2735:__ZNSt3__218__libcpp_refstringD2Ev
2736:__ZNK10__cxxabiv123__fundamental_type_info9can_catchEPKNS_16__shim_type_infoERPv
2737:__ZNK10__cxxabiv119__pointer_type_info9can_catchEPKNS_16__shim_type_infoERPv
2738:__ZNK10__cxxabiv121__vmi_class_type_info16search_above_dstEPNS_19__dynamic_cast_infoEPKvS4_ib
2739:__ZNK10__cxxabiv121__vmi_class_type_info16search_below_dstEPNS_19__dynamic_cast_infoEPKvib
2740:__ZNK10__cxxabiv121__vmi_class_type_info27has_unambiguous_public_baseEPNS_19__dynamic_cast_infoEPvi
2741:__ZNK10__cxxabiv122__base_class_type_info27has_unambiguous_public_baseEPNS_19__dynamic_cast_infoEPvi
2742:__ZNK10__cxxabiv122__base_class_type_info16search_above_dstEPNS_19__dynamic_cast_infoEPKvS4_ib
2743:__ZNK10__cxxabiv122__base_class_type_info16search_below_dstEPNS_19__dynamic_cast_infoEPKvib
2744:___cxa_guard_acquire
2745:___cxa_can_catch
2746:___cxa_is_pointer_type
2747:runPostSets
2748:_memset
2749:_memcpy
2750:_sbrk
2751:_memmove
2752:_llvm_bswap_i32
2753:_llvm_ctlz_i64
2754:dynCall_viiiii
2755:dynCall_viiiij
2756:dynCall_vi
2757:dynCall_vii
2758:dynCall_iiiiiii
2759:dynCall_viiiif
2760:dynCall_ii
2761:dynCall_viiif
2762:dynCall_iiiiii
2763:dynCall_jii
2764:dynCall_iiii
2765:dynCall_fii
2766:dynCall_diiii
2767:dynCall_fiii
2768:dynCall_viiiid
2769:dynCall_viji
2770:dynCall_ji
2771:dynCall_fi
2772:dynCall_diii
2773:dynCall_viiiiii
2774:dynCall_dii
2775:dynCall_i
2776:dynCall_jiii
2777:dynCall_jiiii
2778:dynCall_fiiii
2779:dynCall_iiiii
2780:dynCall_viiid
2781:dynCall_viii
2782:dynCall_viij
2783:dynCall_v
2784:dynCall_viid
2785:dynCall_viif
2786:dynCall_viiij
2787:dynCall_viiii
2788:b0
2789:b1
2790:b2
2791:b3
2792:b4
2793:b5
2794:b6
2795:b7
2796:b8
2797:b9
2798:b10
2799:b11
2800:b12
2801:b13
2802:b14
2803:b15
2804:b16
2805:b17
2806:b18
2807:b19
2808:b20
2809:b21
2810:b22
2811:b23
2812:b24
2813:b25
2814:b26
2815:b27
2816:b28
2817:b29
2818:b30
2819:b31
2820:b32
2821:b33
2822:b34
2823:legalstub$dynCall_jiii
2824:legalstub$dynCall_viif
2825:legalstub$dynCall_fiiii
2826:legalstub$dynCall_ji
2827:legalstub$dynCall_jiiii
2828:legalstub$dynCall_viji
2829:legalstub$dynCall_fi
2830:legalstub$dynCall_jii
2831:legalstub$dynCall_fii
2832:legalstub$dynCall_viiij
2833:legalstub$dynCall_viij
2834:legalstub$dynCall_viiiij
2835:legalstub$dynCall_viiiif
2836:legalstub$dynCall_fiii
2837:legalstub$dynCall_viiif
