Er:__ZNK6google8protobuf8internal26GeneratedMessageReflection8SetInt64EPNS0_7MessageEPKNS0_15FieldDescriptorEx
EB:__ZNSt3__26vectorIiNS_9allocatorIiEEE26__swap_out_circular_bufferERNS_14__split_bufferIiRS2_EE
pna:__ZNSt3__217bad_function_callD2Ev
L:Math_exp
ona:__ZN6google8protobuf5Empty5ClearEv
Kl:__ZN6google8protobuf9BoolValue27MergePartialFromCodedStreamEPNS0_2io16CodedInputStreamE
rd:__ZNK6google8protobuf6Struct39InternalSerializeWithCachedSizesToArrayEbPh
bL:__ZNSt3__214__split_bufferIN14chrome_lang_id22NNetLanguageIdentifier6ResultERNS_9allocatorIS3_EEED2Ev
zn:__ZN6google8protobuf5Value4SwapEPS1_
J9:__ZNK6google8protobuf17FileDescriptorSet3NewEv
e1:__ZN6google8protobuf8internal19arena_delete_objectIN14chrome_lang_id8SentenceEEEvPv
I4:__ZNSt3__26vectorIPN14chrome_lang_id11FeatureTypeENS_9allocatorIS3_EEED2Ev
ld:__ZN6google8protobuf17DescriptorBuilder24CheckEnumValueUniquenessERKNS0_19EnumDescriptorProtoEPKNS0_14EnumDescriptorE
r1:__ZNK6google8protobuf8internal16MapFieldAccessor7IsEmptyEPKv
pU:__ZN6google8protobuf29DescriptorProto_ReservedRange8CopyFromERKNS0_7MessageE
AK:__ZN6google8protobuf5Arena18CreateMaybeMessageINS0_20OneofDescriptorProtoEEEPT_PS1_z
pw:__ZN6google8protobuf8internal15ParseAnyTypeUrlERKNSt3__212basic_stringIcNS2_11char_traitsIcEENS2_9allocatorIcEEEEPS8_
xa:ClassHandle
r:undef
qZ:__ZNK6google8protobuf3Any3NewEPNS0_5ArenaE
E:Math_cos
$5:__ZN14chrome_lang_idL37MutableUnknownFieldsForTaskInput_PartEPNS_14TaskInput_PartE
wZ:__ZNK6google8protobuf11UInt32Value8GetArenaEv
L3:__ZN6google8protobuf8internal26FunctionResultCallback_1_0IPNSt3__212basic_stringIcNS3_11char_traitsIcEENS3_9allocatorIcEEEEPN14chrome_lang_id8TaskSpecEED0Ev
t7:__ZN6google8protobuf8internal20RepeatedPtrFieldBase4castINS0_16RepeatedPtrFieldIN14chrome_lang_id5TokenEE11TypeHandlerEEEPNT_4TypeEPv
n9:__ZNK6google8protobuf20OneofDescriptorProto3NewEv
Rk:__ZN6google8protobuf8internal12ExtensionSet7SetBoolEihbPKNS0_15FieldDescriptorE
gha:__ZNK14chrome_lang_id14LangIdNNParams20hidden_bias_num_colsEi
aja:_strtoull
gG:__ZN14chrome_lang_id18TaskSpec_Parameter10SharedCtorEv
G7:__ZN14chrome_lang_id22GenericFeatureFunction14set_descriptorEPNS_25FeatureFunctionDescriptorE
tl:__ZN6google8protobuf8internal20RepeatedPtrFieldBase24AddAllocatedSlowWithCopyINS0_16RepeatedPtrFieldINS1_8MapEntryINSt3__212basic_stringIcNS6_11char_traitsIcEENS6_9allocatorIcEEEENS0_5ValueELNS1_14WireFormatLite9FieldTypeE9ELSF_11ELi0EEEE11TypeHandlerEEEvPNT_4TypeEPNS0_5ArenaESN_
Fq:__ZNK6google8protobuf8internal26GeneratedMessageReflection17SetRepeatedUInt32EPNS0_7MessageEPKNS0_15FieldDescriptorEij
Zga:__ZN12_GLOBAL__N_1L20register_memory_viewIcEEvPKc
kU:__ZN6google8protobuf30DescriptorProto_ExtensionRange8CopyFromERKNS0_7MessageE
Tma:__ZNK6google8protobuf3Api13IsInitializedEv
lS:__ZN14chrome_lang_id8TaskSpec17mutable_task_nameEv
Kh:__ZNK6google8protobuf11FileOptions12ByteSizeLongEv
jg:___udivmoddi4
cf:__ZNK6google8protobuf8internal26GeneratedMessageReflection4SwapEPNS0_7MessageES4_
Or:__ZNK6google8protobuf8internal26GeneratedMessageReflection9SetUInt64EPNS0_7MessageEPKNS0_15FieldDescriptorEy
F1:__ZN6google8protobuf5Arena3OwnIN14chrome_lang_id9TaskInputEEEvPT_
Wka:__ZNK14chrome_lang_id14LangIdNNParams17softmax_bias_sizeEv
JY:__ZN6google8protobuf8internal14WireFormatLite20MessageSizeNoVirtualIN14chrome_lang_id9ParameterEEEjRKT_
gZ:__ZN6google8protobuf8internal18GenericTypeHandlerIN14chrome_lang_id25FeatureFunctionDescriptorEE6DeleteEPS4_PNS0_5ArenaE
WM:__ZN14chrome_lang_id25EmbeddingFeatureExtractorINS_16FeatureExtractorINS_8SentenceEJEEES2_JEE17RequestWorkspacesEPNS_17WorkspaceRegistryE
N0:__ZN6google8protobuf8internal18GenericTypeHandlerIN14chrome_lang_id9ParameterEE3NewEPNS0_5ArenaE
hea:__ZNK6google8protobuf12FieldOptions13SetCachedSizeEi
Gg:__ZN6google8protobuf19FileDescriptorProto5ClearEv
eN:__ZN14chrome_lang_id17RegisterableClassINS_15FeatureFunctionINS_8SentenceEJEEEE14CreateRegistryEPKcS6_S6_i
Op:__ZNK6google8protobuf7Message25InitializationErrorStringEv
Ria:__ZNK6google8protobuf9Timestamp13GetCachedSizeEv
yna:__ZdlPv
cD:__ZNK6google8protobuf2io18StringOutputStream9ByteCountEv
Vt:__ZNSt3__26vectorIN6google8protobuf10TextFormat13ParseLocationENS_9allocatorIS4_EEE21__push_back_slow_pathIKS4_EEvRT_
PP:__ZN14chrome_lang_id4CLD214EntityToBufferEPKciPcPiS4_
kZ:__ZN6google8protobuf8internal18GenericTypeHandlerIN14chrome_lang_id10TaskOutputEE16NewFromPrototypeEPKS4_PNS0_5ArenaE
ena:__ZN14chrome_lang_id14LangIdNNParamsD2Ev
dfa:_dummy
Eha:__ZNK6google8protobuf8internal21ExplicitlyConstructedIN14chrome_lang_id8SentenceEE3getEv
pT:__ZN14chrome_lang_id26FeatureExtractorDescriptor10SharedCtorEv
sM:__ZN6google8protobuf8internal12MapFieldLiteINSt3__212basic_stringIcNS3_11char_traitsIcEENS3_9allocatorIcEEEENS0_5ValueELNS1_14WireFormatLite9FieldTypeE9ELSC_11ELi0EED0Ev
qy:__ZN6google8protobuf10TextFormat7Printer13TextGenerator7OutdentEv
as:__ZN14chrome_lang_id9TaskInput5ClearEv
vg:__ZN6google8protobuf17DescriptorBuilder19AllocateOptionsImplINS0_14EnumDescriptorEEEvRKNSt3__212basic_stringIcNS4_11char_traitsIcEENS4_9allocatorIcEEEESC_RKNT_11OptionsTypeEPSD_
LE:__ZNK6google8protobuf8internal12MapFieldBase28SpaceUsedExcludingSelfNoLockEv
hR:__ZN6google8protobuf13MethodOptions16default_instanceEv
c1:__ZN6google8protobuf8internal26FunctionResultCallback_1_0IPNSt3__212basic_stringIcNS3_11char_traitsIcEENS3_9allocatorIcEEEEPN14chrome_lang_id25FeatureFunctionDescriptorEED0Ev
EU:__ZNK6google8protobuf21MethodDescriptorProto3NewEPNS0_5ArenaE
tD:__ZN6google8protobuf15UnknownFieldSet20ParseFromCodedStreamEPNS0_2io16CodedInputStreamE
No:__ZNK6google8protobuf14EnumDescriptor17FindValueByNumberEi
mN:__ZNK6google8protobuf10BytesValue3NewEPNS0_5ArenaE
mx:__ZN6google8protobuf8internal20RepeatedPtrFieldBase18MergeFromInnerLoopINS0_16RepeatedPtrFieldIN14chrome_lang_id18TaskSpec_ParameterEE11TypeHandlerEEEvPPvSA_ii
FF:__ZNK6google8protobuf19EnumDescriptorProto13IsInitializedEv
iE:__ZN6google8protobuf17GeneratedCodeInfo9MergeFromERKNS0_7MessageE
Uha:__ZNK6google8protobuf14DynamicMessage13GetCachedSizeEv
Bia:__ZNK6google8protobuf5Empty20GetMaybeArenaPointerEv
fp:__ZN6google8protobuf63protobuf_InitDefaults_google_2fprotobuf_2fwrappers_2eproto_implEv
x$:__ZN6google8protobuf2io17CodedOutputStream24VarintSize32SignExtendedEi
R:Math_clz32
Oga:__ZN6google8protobuf8internal30RepeatedFieldPrimitiveAccessorIxED0Ev
YL:__ZNSt3__213__vector_baseIN14chrome_lang_id22NNetLanguageIdentifier6ResultENS_9allocatorIS3_EEED2Ev
hP:__ZThn28_N6google8protobuf8internal8MapFieldINSt3__212basic_stringIcNS3_11char_traitsIcEENS3_9allocatorIcEEEENS0_5ValueELNS1_14WireFormatLite9FieldTypeE9ELSC_11ELi0EE10MutableMapEv
CP:__ZN6google8protobuf15UnknownFieldSet22MergeToInternalMetdataERKS1_PNS0_8internal25InternalMetadataWithArenaE
US:__ZNK6google8protobuf8internal23TypeDefinedMapFieldBaseINSt3__212basic_stringIcNS3_11char_traitsIcEENS3_9allocatorIcEEEENS0_5ValueEE18InitializeIteratorEPNS0_11MapIteratorE
Ii:__ZNSt3__212__hash_tableINS_17__hash_value_typeINS_12basic_stringIcNS_11char_traitsIcEENS_9allocatorIcEEEEiEENS_22__unordered_map_hasherIS7_S8_NS_4hashIS7_EELb1EEENS_21__unordered_map_equalIS7_S8_NS_8equal_toIS7_EELb1EEENS5_IS8_EEE8__rehashEj
WL:___towrite
rS:__ZN14chrome_lang_id26FeatureExtractorDescriptor21CheckTypeAndMergeFromERKN6google8protobuf11MessageLiteE
$g:__ZN6google8protobuf3MapINS0_6MapKeyENS0_11MapValueRefEE8InnerMap5eraseENS5_13iterator_baseINS4_12KeyValuePairEEE
WZ:__ZNK6google8protobuf8Duration8GetArenaEv
Sea:__ZNKSt3__26vectorIN14chrome_lang_id16EmbeddingNetwork13VectorWrapperENS_9allocatorIS3_EEE8max_sizeEv
Zf:__ZN6google8protobuf8internal12ExtensionSet19SetAllocatedMessageEihPKNS0_15FieldDescriptorEPNS0_11MessageLiteE
Ce:__ZN14chrome_lang_id25FeatureFunctionDescriptor27MergePartialFromCodedStreamEPN6google8protobuf2io16CodedInputStreamE
_ba:__ZNK6google8protobuf24EnumValueDescriptorProto13SetCachedSizeEi
uu:__ZN14chrome_lang_id26FeatureExtractorDescriptor15UnsafeMergeFromERKS0_
ZL:__ZNK6google8protobuf29DescriptorProto_ReservedRange11GetMetadataEv
qJ:__ZN6google8protobuf5Arena18CreateMaybeMessageINS0_30DescriptorProto_ExtensionRangeEEEPT_PS1_z
Tba:__ZN14chrome_lang_id12_GLOBAL__N_1L13MergeFromFailEi_972
dv:__ZNK6google8protobuf8internal12ExtensionSet16GetRepeatedInt32Eii
$R:__ZN6google8protobuf58protobuf_ShutdownFile_google_2fprotobuf_2fduration_2eprotoEv
Pka:__ZN6google8protobuf8internal26GeneratedMessageReflectionD2Ev
K5:__ZN6google8protobuf8internal21arena_destruct_objectINS0_29DescriptorProto_ReservedRangeEEEvPv
QF:__ZNK6google8protobuf13SourceContext12ByteSizeLongEv
LJ:__ZNSt3__26__treeIPKN6google8protobuf14FileDescriptorENS_4lessIS5_EENS_9allocatorIS5_EEE7destroyEPNS_11__tree_nodeIS5_PvEE
v2:__ZN14chrome_lang_id8TaskSpec17mutable_parameterEi
tM:__ZN6google8protobuf11FileOptions9MergeFromERKNS0_7MessageE
$a:_pthread_once
Ry:__ZN6google8protobuf8internal26GeneratedMessageReflectionC2EPKNS0_10DescriptorEPKNS0_7MessageEPKiiiiPKviPKNS0_14DescriptorPoolEPNS0_14MessageFactoryEii
R7:__ZN6google8protobuf16RepeatedPtrFieldIN14chrome_lang_id10TaskOutputEEC2Ev
gd:__ZNSt3__26__sortIRN6google8protobuf8internal19CompareByDerefFirstIPKNS2_7MapPairINS_12basic_stringIcNS_11char_traitsIcEENS_9allocatorIcEEEENS2_5ValueEEEEEPSF_EEvT0_SJ_T_
mb:init_embind
LW:__ZN6google8protobuf9EnumValue8CopyFromERKNS0_7MessageE
i2:__ZN6google8protobuf5Arena3OwnINS0_17FileDescriptorSetEEEvPT_
lx:__ZN6google8protobuf8internal12ExtensionSet10ParseFieldEjPNS0_2io16CodedInputStreamEPKNS0_11MessageLiteEPNS3_17CodedOutputStreamE
dp:__ZN6google8protobuf13RepeatedFieldIdE4SwapEPS2_
Qaa:__ZNK14chrome_lang_id14LangIdNNParams20softmax_bias_weightsEi
zW:__ZN6google8protobuf10Int64Value8CopyFromERKNS0_7MessageE
laa:__ZN6google8protobuf23SourceCodeInfo_LocationD0Ev
lC:__ZNK6google8protobuf10Descriptor17GetSourceLocationEPNS0_14SourceLocationE
bz:__ZN6google8protobuf14MessageOptionsD2Ev
aj:__ZN6google8protobuf2io16CodedInputStream7RefreshEv
Nga:__ZN6google8protobuf8internal30RepeatedFieldPrimitiveAccessorIyED0Ev
uQ:__ZN6google8protobuf49protobuf_AddDesc_google_2fprotobuf_2ftype_2eprotoEv
GA:__ZN6google8protobuf13RepeatedFieldIjE9MergeFromERKS2_
tA:__ZNSt3__26vectorIPN14chrome_lang_id15FeatureFunctionINS1_8SentenceEJEEENS_9allocatorIS5_EEE26__swap_out_circular_bufferERNS_14__split_bufferIS5_RS7_EE
Do:__ZN6google8protobuf22ServiceDescriptorProto5ClearEv
yo:__ZNK6google8protobuf19EnumDescriptorProto39InternalSerializeWithCachedSizesToArrayEbPh
$k:__ZNK14chrome_lang_id9TaskInput12ByteSizeLongEv
Oia:__ZN6google8protobuf8internal14WireFormatLite14GetTagWireTypeEj
AR:__ZN10emscripten8internal10getContextIMN14chrome_lang_id22NNetLanguageIdentifierEFNSt3__26vectorINS3_6ResultENS4_9allocatorIS6_EEEERKNS4_12basic_stringIcNS4_11char_traitsIcEENS7_IcEEEEiEEEPT_RKSJ_
_B:__ZNK6google8protobuf14EnumDescriptor17GetSourceLocationEPNS0_14SourceLocationE
Fi:__ZN6google8protobuf17DescriptorBuilder19ValidateProto3FieldEPNS0_15FieldDescriptorERKNS0_20FieldDescriptorProtoE
Q6:__ZN6google8protobuf8internal21arena_destruct_objectIN14chrome_lang_id9ParameterEEEvPv
RQ:__ZNK6google8protobuf8internal23TypeDefinedMapFieldBaseINS0_6MapKeyENS0_11MapValueRefEE6MapEndEPNS0_11MapIteratorE
pb:RegisteredPointer_deleteObject
WF:__ZN6google8protobuf8internal17AllAreInitializedINS0_16RepeatedPtrFieldIN14chrome_lang_id25FeatureFunctionDescriptorEEEEEbRKT_
Dg:__ZN6google8protobuf30DescriptorProto_ExtensionRange27MergePartialFromCodedStreamEPNS0_2io16CodedInputStreamE
uL:__ZN6google8protobuf5ValueC2Ev
hia:__ZNK6google8protobuf12FieldOptions13GetCachedSizeEv
aH:__ZN6google8protobuf17FileDescriptorSetC2Ev
ir:__ZN6google8protobuf24EnumValueDescriptorProto5ClearEv
gO:__ZN6google8protobuf14DescriptorPoolD2Ev
Hc:__ZN6google8protobuf8internal10WireFormat18ParseAndMergeFieldEjPKNS0_15FieldDescriptorEPNS0_7MessageEPNS0_2io16CodedInputStreamE
G0:__ZN6google8protobuf8internal19arena_delete_objectIN14chrome_lang_id10TaskOutputEEEvPv
oJ:__ZN10emscripten8internal12WireTypePackIJRKN14chrome_lang_id22NNetLanguageIdentifier6ResultEEEC2ES6_
RT:__ZNK6google8protobuf8internal8MapEntryINSt3__212basic_stringIcNS3_11char_traitsIcEENS3_9allocatorIcEEEENS0_5ValueELNS1_14WireFormatLite9FieldTypeE9ELSC_11ELi0EE9SpaceUsedEv
HF:__ZN6google8protobuf12OneofOptionsC2Ev
UM:__ZNK6google8protobuf17GeneratedCodeInfo11GetMetadataEv
OB:__ZN6google8protobuf8internal20RepeatedPtrFieldBase9MergeFromINS0_16RepeatedPtrFieldIN14chrome_lang_id25FeatureFunctionDescriptorEE11TypeHandlerEEEvRKS2_
Dz:__ZNSt3__212basic_stringIcNS_11char_traitsIcEENS_9allocatorIcEEE6appendEPKcj
xV:___uflow
Vh:__ZN14chrome_lang_id5Token15UnsafeMergeFromERKS0_
cfa:__ZNK6google8protobuf29DescriptorProto_ReservedRange13GetCachedSizeEv
nT:__ZNK6google8protobuf8internal12MapEntryLiteINSt3__212basic_stringIcNS3_11char_traitsIcEENS3_9allocatorIcEEEENS0_5ValueELNS1_14WireFormatLite9FieldTypeE9ELSC_11ELi0EE31SerializeWithCachedSizesToArrayEPh
kT:__ZN6google8protobuf5Empty9MergeFromERKNS0_7MessageE
wM:__ZN6google8protobuf5EmptyD2Ev
zO:__ZN6google8protobuf58protobuf_InitDefaults_google_2fprotobuf_2fany_2eproto_implEv
o3:__ZNK6google8protobuf13MethodOptions31SerializeWithCachedSizesToArrayEPh
co:__ZN6google8protobuf58protobuf_InitDefaults_google_2fprotobuf_2fapi_2eproto_implEv
Zl:__ZN6google8protobuf21MethodDescriptorProto5ClearEv
mS:__GLOBAL__sub_I_wrappers_pb_cc
YR:__ZN14chrome_lang_id22NNetLanguageIdentifier6ResultaSERKS1_
iY:__ZN14chrome_lang_id10TaskOutput9MergeFromERKS0_
An:__ZN6google8protobuf19UninterpretedOption5ClearEv
r$:__ZN6google8protobuf8internal18GenericTypeHandlerIN14chrome_lang_id5TokenEE6DeleteEPS4_PNS0_5ArenaE
up:__ZN14chrome_lang_id9FMLParser14ParseParameterEPNS_25FeatureFunctionDescriptorE
vb:_embind_repr
qe:__ZN14chrome_lang_id9TaskInput27MergePartialFromCodedStreamEPN6google8protobuf2io16CodedInputStreamE
uia:__ZNK6google8protobuf11EnumOptions13GetCachedSizeEv
Dt:__ZNSt3__212__hash_tableINS_17__hash_value_typeIPKcPKN6google8protobuf14FileDescriptorEEENS_22__unordered_map_hasherIS3_S9_NS5_4hashIS3_EELb1EEENS_21__unordered_map_equalIS3_S9_NS5_5streqELb1EEENS_9allocatorIS9_EEE6rehashEj
GF:__ZNK14chrome_lang_id5Token11GetTypeNameEv
pE:__ZNSt3__26vectorIPN14chrome_lang_id15FeatureFunctionINS1_8SentenceEJEEENS_9allocatorIS5_EEEC2ERKS8_
f8:__ZNK6google8protobuf2io17ArrayOutputStream9ByteCountEv
by:__ZN6google8protobuf19FileDescriptorProto10SharedDtorEv
NA:__ZNSt3__26vectorIPN14chrome_lang_id11FeatureTypeENS_9allocatorIS3_EEE26__swap_out_circular_bufferERNS_14__split_bufferIS3_RS5_EE
gI:__ZNK6google8protobuf16EnumValueOptions13IsInitializedEv
PN:__ZN6google8protobuf25EncodedDescriptorDatabaseC2Ev
Kba:__ZNK6google8protobuf6Method3NewEv
wH:__ZNK14chrome_lang_id17ComponentRegistryIFPNS_15FeatureFunctionINS_8SentenceEJEEEvEE12GetComponentEPKc
_n:__ZNK6google8protobuf8internal26GeneratedMessageReflection12GetEnumValueERKNS0_7MessageEPKNS0_15FieldDescriptorE
uq:__ZNK6google8protobuf8internal26GeneratedMessageReflection16SetRepeatedInt64EPNS0_7MessageEPKNS0_15FieldDescriptorEix
h1:__ZNK6google8protobuf14DynamicMessage11GetMetadataEv
XV:__ZNK14chrome_lang_id9Parameter3NewEPN6google8protobuf5ArenaE
Ms:__ZN6google8protobuf16RepeatedPtrFieldINS0_22ServiceDescriptorProtoEE9MergeFromERKS3_
dL:__ZN6google8protobuf8internal18GenericTypeHandlerINS0_5ValueEE16NewFromPrototypeEPKS3_PNS0_5ArenaE
OL:__ZN6google8protobuf20NewPermanentCallbackIPNSt3__212basic_stringIcNS2_11char_traitsIcEENS2_9allocatorIcEEEEPN14chrome_lang_id25FeatureFunctionDescriptorEEEPNS0_14ResultCallbackIT_EEPFSE_T0_ESH_
Hu:__ZN6google8protobuf8internal12ExtensionSet17SetRepeatedDoubleEiid
fj:__ZNK6google8protobuf12FieldOptions39InternalSerializeWithCachedSizesToArrayEbPh
$2:__ZN6google8protobuf8internal18GenericTypeHandlerINS0_7MessageEE5MergeERKS3_PS3_
baa:__ZNK14chrome_lang_id14TaskInput_Part3NewEv
Yo:__ZNK6google8protobuf10Descriptor17FindFieldByNumberEi
wla:__ZN6google8protobuf10TextFormat17FieldValuePrinterD2Ev
pJ:__ZN6google8protobuf8internal14ArenaStringPtr10SetNoArenaEPKNSt3__212basic_stringIcNS3_11char_traitsIcEENS3_9allocatorIcEEEERSA_
xF:__ZN6google8protobuf59protobuf_AddDesc_google_2fprotobuf_2ftimestamp_2eproto_implEv
M7:__ZN14chrome_lang_id32GenericEmbeddingFeatureExtractorD0Ev
sea:__ZNSt3__26vectorIcNS_9allocatorIcEEED2Ev
_m:__ZNK6google8protobuf9EnumValue39InternalSerializeWithCachedSizesToArrayEbPh
$1:__ZNK6google8protobuf21MethodDescriptorProto31SerializeWithCachedSizesToArrayEPh
wP:__ZN6google8protobuf2io22LazyStringOutputStream4NextEPPvPi
aG:__ZNK6google8protobuf10Descriptor15FindFieldByNameERKNSt3__212basic_stringIcNS2_11char_traitsIcEENS2_9allocatorIcEEEE
RA:__ZN6google8protobuf10SimpleFtoaEf
oja:_strtoul
nz:__ZNSt3__26vectorINS_4pairINS_12basic_stringIcNS_11char_traitsIcEENS_9allocatorIcEEEEfEENS5_IS8_EEE26__swap_out_circular_bufferERNS_14__split_bufferIS8_RS9_EE
TT:__ZN10emscripten8internal12VectorAccessINSt3__26vectorIN14chrome_lang_id22NNetLanguageIdentifier6ResultENS2_9allocatorIS6_EEEEE3setERS9_jRKS6_
fl:__ZNSt3__212__hash_tableINS_17__hash_value_typeIN6google8protobuf6MapKeyEPNS3_7MapPairIS4_NS3_11MapValueRefEEEEENS_22__unordered_map_hasherIS4_S9_NS3_4hashIS4_EELb1EEENS_21__unordered_map_equalIS4_S9_NS_8equal_toIS4_EELb1EEENS3_3MapIS4_S6_E12MapAllocatorIS9_EEE5eraseENS_21__hash_const_iteratorIPNS_11__hash_nodeIS9_PvEEEE
AW:__ZN6google8protobuf10Int32Value8CopyFromERKNS0_7MessageE
pA:__ZN6google8protobuf8internal18GenericTypeHandlerINS0_29DescriptorProto_ReservedRangeEE5MergeERKS3_PS3_
Cf:__ZN6google8protobuf10TextFormat6Parser10ParserImpl13ConsumeDoubleEPd
mL:__ZN6google8protobuf5Arena18CreateMaybeMessageINS0_15DescriptorProtoEEEPT_PS1_z
yQ:__ZNK6google8protobuf8internal16MapFieldAccessor3GetEPKviPv
$t:__ZNSt3__26vectorINS_12basic_stringIcNS_11char_traitsIcEENS_9allocatorIcEEEENS4_IS6_EEE21__push_back_slow_pathIRKS6_EEvOT_
It:__ZN6google8protobuf20FieldDescriptorProto10SharedDtorEv
rA:__ZN6google8protobuf13StringAppendVEPNSt3__212basic_stringIcNS1_11char_traitsIcEENS1_9allocatorIcEEEEPKcPi
z$:__ZNK6google8protobuf8internal12MapEntryLiteINSt3__212basic_stringIcNS3_11char_traitsIcEENS3_9allocatorIcEEEENS0_5ValueELNS1_14WireFormatLite9FieldTypeE9ELSC_11ELi0EE8GetArenaEv
wq:__ZNSt3__26vectorIPNS_12basic_stringIcNS_11char_traitsIcEENS_9allocatorIcEEEENS4_IS7_EEE8__appendEj
bE:__ZNSt3__26__treeINS_12__value_typeIiN6google8protobuf8internal12ExtensionSet9ExtensionEEENS_19__map_value_compareIiS7_NS_4lessIiEELb1EEENS_9allocatorIS7_EEE7destroyEPNS_11__tree_nodeIS7_PvEE
lh:__ZN6google8protobuf12_GLOBAL__N_117FormatLineOptionsEiRKNS0_7MessageEPNSt3__212basic_stringIcNS5_11char_traitsIcEENS5_9allocatorIcEEEE
jfa:__ZNK14chrome_lang_id13FeatureVector4typeEi
ol:__ZNK6google8protobuf24EnumValueDescriptorProto12ByteSizeLongEv
fna:__GLOBAL__sub_I_bind_cpp
VY:__ZN6google8protobuf5Arena13OwnDestructorINSt3__212basic_stringIcNS3_11char_traitsIcEENS3_9allocatorIcEEEEEEvPT_
jka:__ZNK14chrome_lang_id10TaskOutput8has_nameEv
hp:__ZN6google8protobuf2io9Tokenizer8NextCharEv
yC:__ZN6google8protobuf13MethodOptions8CopyFromERKS1_
Pba:__ZN6google8protobuf12_GLOBAL__N_1L13MergeFromFailEi_870
Dla:__ZNK14chrome_lang_id17ComponentMetadata4linkEv
ap:__ZN6google8protobuf13RepeatedFieldIjE4SwapEPS2_
Iv:__ZN6google8protobuf2io16CodedInputStream35IncrementRecursionDepthAndPushLimitEi
gaa:__ZNK6google8protobuf8internal30RepeatedFieldPrimitiveAccessorIjE10ConvertToTEPKv
dq:__ZNK14chrome_lang_id22EmbeddingNetworkParams18GetEmbeddingMatrixEi
Cw:__ZN6google8protobuf8internal20RepeatedPtrFieldBase5ClearINS0_16RepeatedPtrFieldIN14chrome_lang_id18TaskSpec_ParameterEE11TypeHandlerEEEvv
ud:__ZNK6google8protobuf10Descriptor6CopyToEPNS0_15DescriptorProtoE
rm:__ZNK14chrome_lang_id25FeatureFunctionDescriptor12ByteSizeLongEv
KX:__ZNK14chrome_lang_id22EmbeddingNetworkParams16CheckMatrixRangeEiiRKNSt3__212basic_stringIcNS1_11char_traitsIcEENS1_9allocatorIcEEEE
DN:__ZNK6google8protobuf10BytesValue11GetMetadataEv
p9:__ZNK14chrome_lang_id11UnicodeText5beginEv
Cia:__ZNK6google8protobuf10Int64Value13GetCachedSizeEv
K4:__ZNK6google8protobuf5Mixin31SerializeWithCachedSizesToArrayEPh
SC:__ZN10emscripten8internal15FunctionInvokerIPFNS_3valERKNSt3__26vectorIN14chrome_lang_id22NNetLanguageIdentifier6ResultENS3_9allocatorIS7_EEEEjES2_SC_JjEE6invokeEPSE_PSA_j
Z8:__ZN14chrome_lang_id17FloatFeatureValueC2Ex
z6:__ZN14chrome_lang_id11FeatureType8set_baseEx
o9:__ZNK6google8protobuf20FieldDescriptorProto3NewEv
uW:___uremdi3
BC:__ZN6google8protobuf8internal21arena_destruct_objectINS0_8hash_mapINSt3__212basic_stringIcNS4_11char_traitsIcEENS4_9allocatorIcEEEEPNS0_7MapPairISA_NS0_5ValueEEENS0_4hashISA_EENS4_8equal_toISA_EENS0_3MapISA_SC_E12MapAllocatorINS4_4pairIKSA_SE_EEEEEEEEvPv
ica:__ZNK6google8protobuf23SourceCodeInfo_Location13SetCachedSizeEi
Cma:__ZN6google8protobuf2io18StringOutputStreamD2Ev
oj:__ZNSt3__27__sort3IRN6google8protobuf8internal19CompareByDerefFirstIPKNS2_7MapPairINS_12basic_stringIcNS_11char_traitsIcEENS_9allocatorIcEEEENS2_5ValueEEEEEPSF_EEjT0_SJ_SJ_T_
Le:__ZN14chrome_lang_id10TaskOutput27MergePartialFromCodedStreamEPN6google8protobuf2io16CodedInputStreamE
xka:__ZN10emscripten8internal11BindingTypeIiE10toWireTypeERKi
yea:__ZNK6google8protobuf11StringValue13SetCachedSizeEi
Oe:__ZN6google8protobuf12_GLOBAL__N_123GeneratedMessageFactory12GetPrototypeEPKNS0_10DescriptorE
kh:__ZNSt3__212__hash_tableINS_17__hash_value_typeIPKcPFvRKNS_12basic_stringIcNS_11char_traitsIcEENS_9allocatorIcEEEEEEENS_22__unordered_map_hasherIS3_SE_N6google8protobuf4hashIS3_EELb1EEENS_21__unordered_map_equalIS3_SE_NSH_5streqELb1EEENS7_ISE_EEE8__rehashEj
c$:__ZN6google8protobuf8internal19arena_delete_objectIN14chrome_lang_id25FeatureFunctionDescriptorEEEvPv
jba:__ZNK6google8protobuf9BoolValue3NewEv
aL:__ZN6google8protobuf10FloatValueC2Ev
V_:__ZN6google8protobuf8internal8MapFieldINSt3__212basic_stringIcNS3_11char_traitsIcEENS3_9allocatorIcEEEENS0_5ValueELNS1_14WireFormatLite9FieldTypeE9ELSC_11ELi0EE18MutableInternalMapEv
GE:__ZNK6google8protobuf8internal12MapEntryLiteINSt3__212basic_stringIcNS3_11char_traitsIcEENS3_9allocatorIcEEEENS0_5ValueELNS1_14WireFormatLite9FieldTypeE9ELSC_11ELi0EE3NewEPNS0_5ArenaE
kea:__ZN12_GLOBAL__N_1L20register_memory_viewItEEvPKc
tZ:__ZN6google8protobuf16RepeatedPtrFieldIN14chrome_lang_id14TaskInput_PartEE5ClearEv
D1:__ZNK14chrome_lang_id15FeatureFunctionINS_8SentenceEJEE7ComputeERKNS_12WorkspaceSetERKS1_PKNS_13FeatureVectorE
rY:__ZN10emscripten8internal12MemberAccessIN14chrome_lang_id22NNetLanguageIdentifier6ResultEfE7getWireIS4_EEfRKMS4_fRKT_
Y0:__ZN6google8protobuf5Arena3OwnIN14chrome_lang_id14TaskInput_PartEEEvPT_
Saa:__ZN6google8protobuf2io16CodedInputStream7AdvanceEi
gc:___cxa_throw
K:Math_atan2
yU:__ZN6google8protobuf16RepeatedPtrFieldIN14chrome_lang_id25FeatureFunctionDescriptorEE7MutableEi
pZ:__ZNK6google8protobuf3Api3NewEPNS0_5ArenaE
hN:__ZNK6google8protobuf13MethodOptions11GetMetadataEv
uG:__ZNSt3__26__treeINS_12basic_stringIcNS_11char_traitsIcEENS_9allocatorIcEEEENS_4lessIS6_EENS4_IS6_EEE7destroyEPNS_11__tree_nodeIS6_PvEE
hna:_isdigit
HS:__ZNSt3__213__vector_baseIiNS_9allocatorIiEEED2Ev
aD:__ZNSt3__26vectorIN14chrome_lang_id13FeatureVector7ElementENS_9allocatorIS3_EEE7reserveEj
$z:__ZNK14chrome_lang_id23GenericFeatureExtractor19GetFeatureTypeNamesEPNSt3__26vectorINS1_12basic_stringIcNS1_11char_traitsIcEENS1_9allocatorIcEEEENS6_IS8_EEEE
CN:__ZNK6google8protobuf10FloatValue11GetMetadataEv
G:Math_tan
eca:__ZN14chrome_lang_id13Int64ToStringEx
b8:__ZNK6google8protobuf29DescriptorProto_ReservedRange3NewEv
I3:__ZNK6google8protobuf11EnumOptions31SerializeWithCachedSizesToArrayEPh
$o:__ZN6google8protobuf13RepeatedFieldIxE4SwapEPS2_
Hk:__ZNK6google8protobuf6MapKeyltERKS1_
pS:__ZN6google8protobuf53protobuf_ShutdownFile_google_2fprotobuf_2fany_2eprotoEv
qka:__ZN14chrome_lang_id24Token_BreakLevel_IsValidEi
_5:__ZN6google8protobuf8internal12ExtensionSetC2Ev
EX:__ZN14chrome_lang_id26FeatureExtractorDescriptorD2Ev
cga:__ZN14chrome_lang_id4CLD214UTF8OneCharLenEPKc
HO:__ZN6google8protobuf8internal26FunctionResultCallback_1_0IPNSt3__212basic_stringIcNS3_11char_traitsIcEENS3_9allocatorIcEEEEPN14chrome_lang_id9ParameterEE3RunEv
pl:__ZN6google8protobuf3MapINSt3__212basic_stringIcNS2_11char_traitsIcEENS2_9allocatorIcEEEENS0_5ValueEE12MapAllocatorINS2_3setIPS8_NSA_8InnerMap10KeyCompareENSB_ISD_EEEEE9constructEPSH_RKSH_
u9:__ZNK6google8protobuf19FileDescriptorProto3NewEv
ya:getShiftFromSize
mo:__ZN14chrome_lang_id11TaskContext12SetParameterERKNSt3__212basic_stringIcNS1_11char_traitsIcEENS1_9allocatorIcEEEES9_
kR:__ZN6google8protobuf12OneofOptions16default_instanceEv
e6:__ZN10emscripten8internal11BindingTypeIPNSt3__26vectorIN14chrome_lang_id22NNetLanguageIdentifier6ResultENS2_9allocatorIS6_EEEEE12fromWireTypeESA_
yN:__ZN6google8protobuf5Field9MergeFromERKNS0_7MessageE
Oy:__ZNK6google8protobuf8internal12MapFieldBase16InitMetadataOnceEv
jQ:__ZNSt3__213__vector_baseIPN14chrome_lang_id15FeatureFunctionINS1_8SentenceEJEEENS_9allocatorIS5_EEED2Ev
a$:__ZNK14chrome_lang_id10TaskOutput14unknown_fieldsEv
_X:__ZN10emscripten8internal12MemberAccessIN14chrome_lang_id22NNetLanguageIdentifier6ResultEbE7getWireIS4_EEbRKMS4_bRKT_
Fz:__ZNK10__cxxabiv117__class_type_info9can_catchEPKNS_16__shim_type_infoERPv
yg:__ZN6google8protobuf17DescriptorBuilder10AddPackageERKNSt3__212basic_stringIcNS2_11char_traitsIcEENS2_9allocatorIcEEEERKNS0_7MessageEPKNS0_14FileDescriptorE
f9:__ZNK6google8protobuf8internal30RepeatedFieldPrimitiveAccessorIbE12ConvertFromTERKbPv
si:__ZN14chrome_lang_id9Parameter27MergePartialFromCodedStreamEPN6google8protobuf2io16CodedInputStreamE
g2:__ZN6google8protobuf8internal19arena_delete_objectINS0_11MessageLiteEEEvPv
pi:__ZN14chrome_lang_id18TaskSpec_Parameter27MergePartialFromCodedStreamEPN6google8protobuf2io16CodedInputStreamE
DJ:__ZNK6google8protobuf8internal26GeneratedMessageReflection20MutableUnknownFieldsEPNS0_7MessageE
pI:__ZNK6google8protobuf12FieldOptions13IsInitializedEv
Ea:init_RegisteredPointer
Ck:__ZN6google8protobuf14DescriptorPool6Tables12AddExtensionEPKNS0_15FieldDescriptorE
R1:__ZNSt3__26vectorIN14chrome_lang_id13FeatureVector7ElementENS_9allocatorIS3_EEED2Ev
Bg:__ZN14chrome_lang_id14TaskInput_Part27MergePartialFromCodedStreamEPN6google8protobuf2io16CodedInputStreamE
Bu:__ZN6google8protobuf19EnumDescriptorProto15UnsafeMergeFromERKS1_
oB:__ZN6google8protobuf21MethodDescriptorProto15set_output_typeEPKc
Uq:__ZN6google8protobuf13RepeatedFieldIyE7ReserveEi
tK:__ZNK6google8protobuf8internal23RepeatedPtrFieldWrapperINS0_7MessageEE5ClearEPv
uh:__ZNK6google8protobuf5Field24SerializeWithCachedSizesEPNS0_2io17CodedOutputStreamE
e7:__ZNK14chrome_lang_id9TaskInput9part_sizeEv
fH:__ZN6google8protobuf8internal17AllAreInitializedINS0_16RepeatedPtrFieldIN14chrome_lang_id9TaskInputEEEEEbRKT_
Ie:__ZN6google8protobuf8internal10WireFormat22SerializeUnknownFieldsERKNS0_15UnknownFieldSetEPNS0_2io17CodedOutputStreamE
S2:__ZN6google8protobuf8internal26FunctionResultCallback_1_0IPNSt3__212basic_stringIcNS3_11char_traitsIcEENS3_9allocatorIcEEEEPN14chrome_lang_id26FeatureExtractorDescriptorEED2Ev
t9:__ZNK6google8protobuf19UninterpretedOption3NewEv
Qu:__ZNK6google8protobuf11MapValueRef12GetBoolValueEv
uja:__ZNK14chrome_lang_id5Token15has_break_levelEv
Hba:__ZN14chrome_lang_id21RelevantScriptFeatureD2Ev
bv:__ZNK6google8protobuf8internal12ExtensionSet16GetRepeatedFloatEii
bha:__ZNK6google8protobuf10Int32Value20GetMaybeArenaPointerEv
Qs:__ZN6google8protobuf16RepeatedPtrFieldINS0_20OneofDescriptorProtoEE9MergeFromERKS3_
us:__ZNSt3__213unordered_mapIN6google8protobuf6MapKeyEPNS2_7MapPairIS3_NS2_11MapValueRefEEENS2_4hashIS3_EENS_8equal_toIS3_EENS2_3MapIS3_S5_E12MapAllocatorINS_4pairIKS3_S7_EEEEEixERSG_
_L:__ZN6google8protobuf8internal26FunctionResultCallback_1_0IPNSt3__212basic_stringIcNS3_11char_traitsIcEENS3_9allocatorIcEEEEPN14chrome_lang_id18TaskSpec_ParameterEEC2EPFSA_SD_EbSD_
Pfa:__ZNK6google8protobuf3Api13SetCachedSizeEi
_G:__ZN6google8protobuf8internal17AllAreInitializedINS0_16RepeatedPtrFieldIN14chrome_lang_id10TaskOutputEEEEEbRKT_
lN:__ZNK6google8protobuf12FieldOptions11GetMetadataEv
u0:__ZN10emscripten8internal14raw_destructorIN14chrome_lang_id22NNetLanguageIdentifierEEEvPT_
VU:__ZN10emscripten8internal12MemberAccessIN14chrome_lang_id22NNetLanguageIdentifier6ResultEbE7setWireIS4_EEvRKMS4_bRT_b
k:ABORT
p3:__ZN6google8protobuf2io16CodedInputStream23IncrementRecursionDepthEv
Pc:__ZN6google8protobuf19FileDescriptorProto27MergePartialFromCodedStreamEPNS0_2io16CodedInputStreamE
qia:__ZNK6google8protobuf11UInt64Value13GetCachedSizeEv
Bx:__ZNK6google8protobuf6Option12ByteSizeLongEv
RN:__ZN6google8protobuf14MessageFactory17generated_factoryEv
a8:__ZNK6google8protobuf8internal20RepeatedFieldWrapperIbE10RemoveLastEPv
gN:__ZNK6google8protobuf13SourceContext11GetMetadataEv
jd:__ZN6google8protobuf12FieldOptions27MergePartialFromCodedStreamEPNS0_2io16CodedInputStreamE
m1:__ZNK6google8protobuf8internal23RepeatedPtrFieldWrapperINSt3__212basic_stringIcNS3_11char_traitsIcEENS3_9allocatorIcEEEEE7IsEmptyEPKv
GL:__ZN6google8protobuf8internal14ArenaStringPtr21CreateInstanceNoArenaEPKNSt3__212basic_stringIcNS3_11char_traitsIcEENS3_9allocatorIcEEEE
sR:__ZNSt3__26vectorINS_12basic_stringIcNS_11char_traitsIcEENS_9allocatorIcEEEENS4_IS6_EEE2atEj
cg:__ZN6google8protobuf6Struct27MergePartialFromCodedStreamEPNS0_2io16CodedInputStreamE
uca:__ZN6google8protobuf7Message5ClearEv
rp:__ZNSt3__26__treeINS_12basic_stringIcNS_11char_traitsIcEENS_9allocatorIcEEEENS_4lessIS6_EENS4_IS6_EEE4findIS6_EENS_15__tree_iteratorIS6_PNS_11__tree_nodeIS6_PvEEiEERKT_
dR:__ZN6google8protobuf14MessageOptions16default_instanceEv
oL:__ZN6google8protobuf9BoolValueC2Ev
Qg:__ZNSt3__212__hash_tableINS_17__hash_value_typeINS_12basic_stringIcNS_11char_traitsIcEENS_9allocatorIcEEEEPN6google8protobuf7MapPairIS7_NS9_5ValueEEEEENS_22__unordered_map_hasherIS7_SE_NS9_4hashIS7_EELb1EEENS_21__unordered_map_equalIS7_SE_NS_8equal_toIS7_EELb1EEENS9_3MapIS7_SB_E12MapAllocatorISE_EEE4findIS7_EENS_15__hash_iteratorIPNS_11__hash_nodeISE_PvEEEERKT_
O$:__ZN6google8protobuf16RepeatedPtrFieldIN14chrome_lang_id5TokenEED2Ev
s6:__ZN10emscripten8internal11BindingTypeIPNSt3__26vectorIN14chrome_lang_id22NNetLanguageIdentifier6ResultENS2_9allocatorIS6_EEEEE10toWireTypeESA_
u2:__ZN6google8protobuf5Arena13OwnDestructorINS0_6MapKeyEEEvPT_
ima:__ZNK14chrome_lang_id11StringPiece6lengthEv
HD:__ZN10emscripten8internal11BindingTypeINSt3__212basic_stringIcNS2_11char_traitsIcEENS2_9allocatorIcEEEEE12fromWireTypeEPNS9_Ut_E
aga:__ZNK14chrome_lang_id25FeatureFunctionDescriptor12has_argumentEv
Az:__ZNK6google8protobuf14SourceCodeInfo12ByteSizeLongEv
pO:__ZNSt3__214__split_bufferIN14chrome_lang_id16EmbeddingNetwork15EmbeddingMatrixERNS_9allocatorIS3_EEED2Ev
Ni:__ZNSt3__26__treeINS_12__value_typeINS_4pairINS_12basic_stringIcNS_11char_traitsIcEENS_9allocatorIcEEEEiEENS2_IPKviEEEENS_19__map_value_compareIS9_SD_NS_4lessIS9_EELb1EEENS6_ISD_EEE12__find_equalIS9_EERPNS_16__tree_node_baseIPvEERPNS_15__tree_end_nodeISO_EERKT_
_S:__ZN6google8protobuf11StringValue5ClearEv
VK:__ZN6google8protobuf23SourceCodeInfo_Location9MergeFromERKNS0_7MessageE
lX:__ZNK6google8protobuf13SourceContext3NewEPNS0_5ArenaE
Qda:__ZNK6google8protobuf14SourceCodeInfo13SetCachedSizeEi
Ev:__ZNK6google8protobuf22ServiceDescriptorProto24SerializeWithCachedSizesEPNS0_2io17CodedOutputStreamE
NR:__ZN14chrome_lang_id10TaskOutput19mutable_file_formatEv
T4:__ZNSt3__211char_traitsIcE7compareEPKcS3_j
Zi:__ZNK14chrome_lang_id10TaskOutput24SerializeWithCachedSizesEPN6google8protobuf2io17CodedOutputStreamE
jE:__ZN14chrome_lang_id4CLD210runetocharEPcPKi
oX:__ZN6google8protobuf3Any8CopyFromERKNS0_7MessageE
B0:__ZN6google8protobuf5Arena3OwnINS0_30DescriptorProto_ExtensionRangeEEEvPT_
Dga:__ZNK6google8protobuf8internal21ExplicitlyConstructedIN14chrome_lang_id10TaskOutputEE3getEv
bV:__ZNK6google8protobuf10Int32Value24SerializeWithCachedSizesEPNS0_2io17CodedOutputStreamE
tma:__ZNK14chrome_lang_id11StringPiece4dataEv
Cja:__ZNK6google8protobuf5Mixin13GetCachedSizeEv
m9:__ZN6google8protobuf8internal21arena_destruct_objectINS0_3AnyEEEvPv
cM:__ZN6google8protobuf10Int32ValueD2Ev
z4:__ZN14chrome_lang_id4CLD28LangSpanC2Ev
o6:__ZN6google8protobuf8internal9SingletonINS1_30RepeatedPtrFieldStringAccessorEE4InitEv
Mda:__ZN14chrome_lang_id5Token12set_has_headEv
cda:__ZNK6google8protobuf8internal26GeneratedMessageReflection17GetMessageFactoryEv
Ac:FUNCTION_TABLE_iiiiii
SV:__ZN10emscripten8internal12MemberAccessIN14chrome_lang_id22NNetLanguageIdentifier6ResultEfE7setWireIS4_EEvRKMS4_fRT_f
Of:__ZNSt3__212__hash_tableINS_17__hash_value_typeINS_12basic_stringIcNS_11char_traitsIcEENS_9allocatorIcEEEEPN6google8protobuf7MapPairIS7_NS9_5ValueEEEEENS_22__unordered_map_hasherIS7_SE_NS9_4hashIS7_EELb1EEENS_21__unordered_map_equalIS7_SE_NS_8equal_toIS7_EELb1EEENS9_3MapIS7_SB_E12MapAllocatorISE_EEE8__rehashEj
sZ:__ZN6google8protobuf8internal18GenericTypeHandlerINS0_28GeneratedCodeInfo_AnnotationEE16NewFromPrototypeEPKS3_PNS0_5ArenaE
Ds:__ZN6google8protobuf4Enum5ClearEv
vga:__ZN12_GLOBAL__N_1L16register_integerItEEvPKc
zP:__ZN6google8protobuf2io17CodedOutputStreamD2Ev
aW:__ZNK6google8protobuf8internal30RepeatedPtrFieldStringAccessor10ConvertToTEPKvPNSt3__212basic_stringIcNS5_11char_traitsIcEENS5_9allocatorIcEEEE
fu:__ZNSt3__2plIcNS_11char_traitsIcEENS_9allocatorIcEEEENS_12basic_stringIT_T0_T1_EERKS9_SB_
_A:__ZN14chrome_lang_id15FeatureFunctionINS_8SentenceEJEE11InstantiateEPNS_23GenericFeatureExtractorEPNS_25FeatureFunctionDescriptorERKNSt3__212basic_stringIcNS7_11char_traitsIcEENS7_9allocatorIcEEEE
ac:getInheritedInstanceCount
bA:__ZN6google8protobuf8internal20RepeatedPtrFieldBase7DestroyINS0_16RepeatedPtrFieldINSt3__212basic_stringIcNS5_11char_traitsIcEENS5_9allocatorIcEEEEE11TypeHandlerEEEvv
Mh:__ZN6google8protobuf3MapINSt3__212basic_stringIcNS2_11char_traitsIcEENS2_9allocatorIcEEEENS0_5ValueEE8InnerMap13iterator_baseIKNSA_12KeyValuePairEEppEv
to:__ZN6google8protobuf4Type5ClearEv
QZ:__ZThn28_N6google8protobuf8internal8MapFieldINSt3__212basic_stringIcNS3_11char_traitsIcEENS3_9allocatorIcEEEENS0_5ValueELNS1_14WireFormatLite9FieldTypeE9ELSC_11ELi0EE18MutableInternalMapEv
Tm:__ZN6google8protobuf51protobuf_AssignDesc_google_2fprotobuf_2fapi_2eprotoEv
oy:__ZNK10__cxxabiv117__class_type_info16search_below_dstEPNS_19__dynamic_cast_infoEPKvib
VF:__ZNK6google8protobuf8internal23RepeatedPtrFieldWrapperINSt3__212basic_stringIcNS3_11char_traitsIcEENS3_9allocatorIcEEEEE5ClearEPv
y6:__ZN6google8protobuf8internal21ExplicitlyConstructedIN14chrome_lang_id8SentenceEE16DefaultConstructEv
Cha:__ZNK6google8protobuf9BoolValue20GetMaybeArenaPointerEv
JN:__ZN6google8protobuf20NewPermanentCallbackIPNSt3__212basic_stringIcNS2_11char_traitsIcEENS2_9allocatorIcEEEEPN14chrome_lang_id14TaskInput_PartEEEPNS0_14ResultCallbackIT_EEPFSE_T0_ESH_
I2:__ZN6google8protobuf8internal27GetEmptyStringAlreadyInitedEv
Ela:__ZNK14chrome_lang_id14LangIdNNParams11hidden_sizeEv
TN:__ZNK6google8protobuf9Timestamp11GetMetadataEv
sk:__ZN6google8protobuf8internal12ExtensionSet9SetUInt64EihyPKNS0_15FieldDescriptorE
Pja:__ZNSt12out_of_rangeD0Ev
oV:__ZNK6google8protobuf11MessageLite14AppendToStringEPNSt3__212basic_stringIcNS2_11char_traitsIcEENS2_9allocatorIcEEEE
G$:__ZN6google8protobuf8internal21arena_destruct_objectINS0_13RepeatedFieldIbEEEEvPv
Hr:_vfprintf
rb:__embind_register_integer
nj:__ZNK6google8protobuf8internal26GeneratedMessageReflection18GetRepeatedMessageERKNS0_7MessageEPKNS0_15FieldDescriptorEi
hl:__ZNK6google8protobuf8internal26GeneratedMessageReflection8SetFieldIxEEvPNS0_7MessageEPKNS0_15FieldDescriptorERKT_
h_:__ZNK6google8protobuf4Enum8GetArenaEv
y5:__ZN6google8protobuf8internal26FunctionResultCallback_1_0IPNSt3__212basic_stringIcNS3_11char_traitsIcEENS3_9allocatorIcEEEEPN14chrome_lang_id8TaskSpecEED2Ev
Fy:__ZN6google8protobuf8internal27UnknownFieldSetFieldSkipper11SkipMessageEPNS0_2io16CodedInputStreamE
Sga:__ZN6google8protobuf8internal30RepeatedFieldPrimitiveAccessorIdED0Ev
A6:__ZN14chrome_lang_id10TaskOutput10set_shardsEi
ey:__ZNK6google8protobuf8internal26GeneratedMessageReflection7SetEnumEPNS0_7MessageEPKNS0_15FieldDescriptorEPKNS0_19EnumValueDescriptorE
_ga:__ZN12_GLOBAL__N_1L16register_integerIhEEvPKc
Rj:__ZN6google8protobuf8internal15DynamicMapField14DeleteMapValueERKNS0_6MapKeyE
KF:__ZNSt3__214__split_bufferIfRNS_9allocatorIfEEEC2EjjS3_
sia:__ZNK6google8protobuf11StringValue13GetCachedSizeEv
j1:__ZN6google8protobuf8internal21ExplicitlyConstructedIN14chrome_lang_id26FeatureExtractorDescriptorEE16DefaultConstructEv
w3:__ZN6google8protobuf8internal26FunctionResultCallback_1_0IPNSt3__212basic_stringIcNS3_11char_traitsIcEENS3_9allocatorIcEEEEPN14chrome_lang_id9ParameterEED0Ev
uka:__ZN10emscripten8internal11BindingTypeIjE12fromWireTypeEj
Vw:__ZN6google8protobuf8internal20RepeatedPtrFieldBase5ClearINS0_16RepeatedPtrFieldIN14chrome_lang_id10TaskOutputEE11TypeHandlerEEEvv
XL:__ZNSt3__214__split_bufferIN14chrome_lang_id22NNetLanguageIdentifier6ResultERNS_9allocatorIS3_EEE18__construct_at_endEjRKS3_
f1:__ZNK6google8protobuf28UninterpretedOption_NamePart31SerializeWithCachedSizesToArrayEPh
rW:__ZN6google8protobuf11DoubleValue8CopyFromERKNS0_7MessageE
K$:__ZNK6google8protobuf16RepeatedPtrFieldINSt3__212basic_stringIcNS2_11char_traitsIcEENS2_9allocatorIcEEEEE4sizeEv
_F:__ZN14chrome_lang_id14LangIdNNParamsC2Ev
BT:__ZN6google8protobuf8internal18GenericTypeHandlerINS0_20OneofDescriptorProtoEE5MergeERKS3_PS3_
Kn:__ZN53EmscriptenBindingInitializer_native_and_builtin_typesC2Ev
Wca:__ZNK6google8protobuf19FileDescriptorProto13SetCachedSizeEi
OF:__ZNK6google8protobuf11MapValueRef4typeEv
TC:___remdi3
St:__ZN6google8protobuf8internal12ExtensionSet16SetRepeatedInt64Eiix
Yda:__ZNK6google8protobuf13MethodOptions13SetCachedSizeEi
yla:b20
Wx:__ZNK6google8protobuf16EnumValueOptions24SerializeWithCachedSizesEPNS0_2io17CodedOutputStreamE
u8:__ZN14chrome_lang_id11StringPiece13remove_suffixEi
b7:__ZN6google8protobuf8internal20RepeatedPtrFieldBase4castINS0_16RepeatedPtrFieldIN14chrome_lang_id9ParameterEE11TypeHandlerEEEPNT_4TypeEPv
y_:__ZN6google8protobuf21FastInt32ToBufferLeftEiPc
DA:__ZN6google8protobuf8internal26GeneratedMessageReflectionC2EPKNS0_10DescriptorEPKNS0_7MessageEPKiiiiPKNS0_14DescriptorPoolEPNS0_14MessageFactoryEii
cv:__ZNK14chrome_lang_id22GenericFeatureFunction16GetBoolParameterERKNSt3__212basic_stringIcNS1_11char_traitsIcEENS1_9allocatorIcEEEEb
Gd:__ZN6google8protobuf14MessageOptions27MergePartialFromCodedStreamEPNS0_2io16CodedInputStreamE
$s:__ZN6google8protobuf5Arena9SlowAllocEj
W3:__ZNK6google8protobuf10FloatValue31SerializeWithCachedSizesToArrayEPh
D$:__ZN6google8protobuf8internal21arena_destruct_objectINS0_13RepeatedFieldIiEEEEvPv
sT:__ZThn28_NK6google8protobuf8internal8MapFieldINSt3__212basic_stringIcNS3_11char_traitsIcEENS3_9allocatorIcEEEENS0_5ValueELNS1_14WireFormatLite9FieldTypeE9ELSC_11ELi0EE6GetMapEv
Ib:throwBindingError
QO:__ZN14chrome_lang_id22GenericFeatureFunctionC2Ev
Ls:__ZNK6google8protobuf13MethodOptions39InternalSerializeWithCachedSizesToArrayEbPh
qi:__ZN6google8protobuf3MapINSt3__212basic_stringIcNS2_11char_traitsIcEENS2_9allocatorIcEEEENS0_5ValueEE8InnerMap5clearEv
Eg:__ZN6google8protobuf29DescriptorProto_ReservedRange27MergePartialFromCodedStreamEPNS0_2io16CodedInputStreamE
MD:__ZNSt3__214__split_bufferINS_4pairINS_12basic_stringIcNS_11char_traitsIcEENS_9allocatorIcEEEEfEERNS5_IS8_EEEC2EjjSA_
N1:__ZN6google8protobuf5Arena3OwnINS0_20OneofDescriptorProtoEEEvPT_
sh:__ZNSt3__212__hash_tableINS_17__hash_value_typeIPKN6google8protobuf10DescriptorEPKNS3_7MessageEEENS_22__unordered_map_hasherIS6_SA_NS3_4hashIS6_EELb1EEENS_21__unordered_map_equalIS6_SA_NS_8equal_toIS6_EELb1EEENS_9allocatorISA_EEE8__rehashEj
Oba:__ZN6google8protobuf19EnumDescriptorProtoD0Ev
cG:__ZNK14chrome_lang_id8TaskSpec13IsInitializedEv
Ufa:__ZNK6google8protobuf22ServiceDescriptorProto13GetCachedSizeEv
_y:__ZN6google8protobuf16EnumValueOptionsD2Ev
Cda:__ZN14chrome_lang_id8Sentence10set_has_idEv
vy:__ZN6google8protobuf10SimpleItoaEy
Bm:__ZN6google8protobuf10SimpleItoaEx
lT:__ZNK6google8protobuf10TextFormat17FieldValuePrinter9PrintBoolEb
DI:__ZN6google8protobuf8internal14WireFormatLite36ReadMessageNoVirtualNoRecursionDepthIN14chrome_lang_id9ParameterEEEbPNS0_2io16CodedInputStreamEPT_
tk:__ZN6google8protobuf8internal12ExtensionSet8SetInt64EihxPKNS0_15FieldDescriptorE
wJ:__ZN6google8protobuf3MapINSt3__212basic_stringIcNS2_11char_traitsIcEENS2_9allocatorIcEEEENS0_5ValueEE8InnerMap19EraseFromLinkedListEPNSB_4NodeESD_
Tf:__ZNSt3__212__hash_tableINS_17__hash_value_typeINS_12basic_stringIcNS_11char_traitsIcEENS_9allocatorIcEEEEN6google8protobuf25FieldDescriptorProto_TypeEEENS_22__unordered_map_hasherIS7_SB_NS9_4hashIS7_EELb1EEENS_21__unordered_map_equalIS7_SB_NS_8equal_toIS7_EELb1EEENS5_ISB_EEE8__rehashEj
Z3:dynCall_viiiii
Gr:__ZN6google8protobuf10SimpleItoaEi
N_:__ZNK6google8protobuf8internal12MapFieldLiteINSt3__212basic_stringIcNS3_11char_traitsIcEENS3_9allocatorIcEEEENS0_5ValueELNS1_14WireFormatLite9FieldTypeE9ELSC_11ELi0EE14GetInternalMapEv
Ky:__ZN6google8protobuf10SimpleItoaEj
Lr:__ZN6google8protobuf2io17CodedOutputStream21WriteVarint32SlowPathEj
ih:__ZN6google8protobuf12_GLOBAL__N_122protobuf_RegisterTypesERKNSt3__212basic_stringIcNS2_11char_traitsIcEENS2_9allocatorIcEEEE_401
I7:__ZNK14chrome_lang_id32GenericEmbeddingFeatureExtractor13NumEmbeddingsEv
AG:__ZNSt3__26vectorIPN14chrome_lang_id11FeatureTypeENS_9allocatorIS3_EEEC2ERKS6_
Kk:__ZNK14chrome_lang_id13ScriptFeature7ComputeERKNS_12WorkspaceSetERKNS_8SentenceEPKNS_13FeatureVectorE
xj:__ZNSt3__27__sort4IRN6google8protobuf12_GLOBAL__N_116FieldIndexSorterEPPKNS2_15FieldDescriptorEEEjT0_SA_SA_SA_T_
mQ:__ZN6google8protobuf54protobuf_InitDefaults_google_2fprotobuf_2ftype_2eprotoEv
Y2:__ZNK14chrome_lang_id17ComponentRegistryIFPNS_15FeatureFunctionINS_8SentenceEJEEEvEE9Registrar4typeEv
iQ:__ZN6google8protobuf8internal8MapFieldINSt3__212basic_stringIcNS3_11char_traitsIcEENS3_9allocatorIcEEEENS0_5ValueELNS1_14WireFormatLite9FieldTypeE9ELSC_11ELi0EE10MutableMapEv
Me:__ZNK6google8protobuf8internal8MapFieldINSt3__212basic_stringIcNS3_11char_traitsIcEENS3_9allocatorIcEEEENS0_5ValueELNS1_14WireFormatLite9FieldTypeE9ELSC_11ELi0EE30SyncRepeatedFieldWithMapNoLockEv
Fg:__ZNSt3__218__stable_sort_moveIRN6google8protobuf25MapEntryMessageComparatorENS_11__wrap_iterIPPKNS2_7MessageEEEEEvT0_SB_T_NS_15iterator_traitsISB_E15difference_typeEPNSE_10value_typeE
uA:__ZN6google8protobuf2io16CodedInputStream34DecrementRecursionDepthAndPopLimitEi
cI:__ZN10emscripten12value_objectIN14chrome_lang_id22NNetLanguageIdentifier6ResultEE5fieldIS3_bEERS4_PKcMT_T0_
iea:__ZNK14chrome_lang_id18TaskSpec_Parameter13IsInitializedEv
YZ:__ZNK6google8protobuf8internal23TypeDefinedMapFieldBaseINS0_6MapKeyENS0_11MapValueRefEE14DeleteIteratorEPNS0_11MapIteratorE
mI:__ZNK6google8protobuf13MethodOptions13IsInitializedEv
Eia:__ZNK6google8protobuf10FloatValue13GetCachedSizeEv
Xt:__ZN6google8protobuf8internal20RepeatedPtrFieldBase3AddINS0_16RepeatedPtrFieldIN14chrome_lang_id9ParameterEE11TypeHandlerEEEPNT_4TypeESB_
HN:__ZN6google8protobuf30DescriptorProto_ExtensionRangeD0Ev
yS:__ZN14chrome_lang_id10TaskOutput12mutable_nameEv
yga:__ZNK14chrome_lang_id18TaskSpec_Parameter13GetCachedSizeEv
Ka:__exit
t3:__ZNK6google8protobuf12OneofOptions31SerializeWithCachedSizesToArrayEPh
Xq:__ZN6google8protobuf13RepeatedFieldIiE7ReserveEi
nC:__ZN6google8protobuf8internal20RepeatedPtrFieldBase9MergeFromINS0_16RepeatedPtrFieldIN14chrome_lang_id9TaskInputEE11TypeHandlerEEEvRKS2_
nna:b3
l3:__ZN14chrome_lang_id25FeatureFunctionDescriptor25internal_default_instanceEv
kfa:__ZN6google8protobuf10BytesValueD0Ev
Y4:__ZN6google8protobuf8internal18GenericTypeHandlerIN14chrome_lang_id5TokenEE5MergeERKS4_PS4_
Qka:__ZN6google8protobuf2io18StringOutputStreamD0Ev
n0:__ZN6google8protobuf12_GLOBAL__N_126DeleteFileDescriptorTablesEv
Ij:__ZN6google8protobuf8internal8MapFieldINSt3__212basic_stringIcNS3_11char_traitsIcEENS3_9allocatorIcEEEENS0_5ValueELNS1_14WireFormatLite9FieldTypeE9ELSC_11ELi0EE14DeleteMapValueERKNS0_6MapKeyE
rna:dynCall_v
Fh:__ZN6google8protobuf8internal10WireFormat29SerializeUnknownFieldsToArrayERKNS0_15UnknownFieldSetEPh
vG:__ZN6google8protobuf21MethodDescriptorProtoC2Ev
PG:__ZN10emscripten8internal7InvokerIPN14chrome_lang_id22NNetLanguageIdentifierEJOiS5_EE6invokeEPFS4_S5_S5_Eii
eH:__ZN6google8protobuf8internal20RepeatedPtrFieldBase24AddAllocatedSlowWithCopyINS0_16RepeatedPtrFieldINSt3__212basic_stringIcNS5_11char_traitsIcEENS5_9allocatorIcEEEEE11TypeHandlerEEEvPNT_4TypeEPNS0_5ArenaESI_
WE:__ZN6google8protobuf8internal21arena_destruct_objectINS0_16RepeatedPtrFieldINS0_11MessageLiteEEEEEvPv
Yw:__ZNK6google8protobuf6MapKey13GetInt32ValueEv
tL:__ZN14chrome_lang_id9FMLParserC2Ev
GT:__ZN6google8protobuf8internal18GenericTypeHandlerINS0_19UninterpretedOptionEE5MergeERKS3_PS3_
fga:__ZN14chrome_lang_id11UnicodeTextD2Ev
Gna:___errno_location
K6:__ZN6google8protobuf8internal21arena_destruct_objectINS0_22ServiceDescriptorProtoEEEvPv
UB:__ZN6google8protobuf8internal20RepeatedPtrFieldBase7DestroyINS0_16RepeatedPtrFieldIN14chrome_lang_id9TaskInputEE11TypeHandlerEEEvv
qM:_strcmp
Ffa:__ZNK6google8protobuf5Empty13SetCachedSizeEi
JT:__ZN6google8protobuf8internal18GenericTypeHandlerINS0_19EnumDescriptorProtoEE5MergeERKS3_PS3_
jf:__ZNK6google8protobuf15OneofDescriptor11DebugStringEiPNSt3__212basic_stringIcNS2_11char_traitsIcEENS2_9allocatorIcEEEERKNS0_18DebugStringOptionsE
td:__ZN6google8protobuf19UninterpretedOption27MergePartialFromCodedStreamEPNS0_2io16CodedInputStreamE
_H:__ZN6google8protobuf12_GLOBAL__N_122protobuf_RegisterTypesERKNSt3__212basic_stringIcNS2_11char_traitsIcEENS2_9allocatorIcEEEE_531
Bca:__ZN6google8protobuf17GeneratedCodeInfoD0Ev
nu:__ZNK6google8protobuf8internal12ExtensionSet17GetRepeatedUInt64Eii
ic:requireFunction
JB:__ZN6google8protobuf14DescriptorPool24InternalAddGeneratedFileEPKvi
di:__ZN6google8protobuf9ListValue27MergePartialFromCodedStreamEPNS0_2io16CodedInputStreamE
fc:registerType
K0:__ZNK14chrome_lang_id5Token4wordEv
L2:__ZN6google8protobuf5Arena3OwnINS0_14MessageOptionsEEEvPT_
cW:__ZNK14chrome_lang_id26FeatureExtractorDescriptor13IsInitializedEv
xI:__ZN6google8protobuf13SourceContext9MergeFromERKS1_
IE:_strlen
po:__ZNKSt3__26__treeINS_12__value_typeINS_4pairINS_12basic_stringIcNS_11char_traitsIcEENS_9allocatorIcEEEEiEENS2_IPKviEEEENS_19__map_value_compareIS9_SD_NS_4lessIS9_EELb1EEENS6_ISD_EEE4findIS9_EENS_21__tree_const_iteratorISD_PNS_11__tree_nodeISD_PvEEiEERKT_
Kma:__ZN14chrome_lang_id17TaskContextParams15GetNumLanguagesEv
cB:__ZN6google8protobuf6Struct9MergeFromERKNS0_7MessageE
qz:__ZN6google8protobuf9ListValueD2Ev
Ef:__ZN6google8protobuf6Option27MergePartialFromCodedStreamEPNS0_2io16CodedInputStreamE
$ha:__ZN6google8protobuf8internal29DescriptorPoolExtensionFinderD0Ev
GR:_fmt_x
Ed:__ZN6google8protobuf23SourceCodeInfo_Location27MergePartialFromCodedStreamEPNS0_2io16CodedInputStreamE
ZJ:__ZNSt3__26vectorINS_12basic_stringIcNS_11char_traitsIcEENS_9allocatorIcEEEENS4_IS6_EEE4swapERS8_
jV:__ZN6google8protobuf19UninterpretedOption8CopyFromERKNS0_7MessageE
Lc:__ZN6google8protobuf17DescriptorBuilder13BuildFileImplERKNS0_19FileDescriptorProtoE
Jha:__ZNK14chrome_lang_id14TaskInput_Part13GetCachedSizeEv
t1:__ZN6google8protobuf8internal19arena_delete_objectIN14chrome_lang_id5TokenEEEvPv
iN:__ZN6google8protobuf8internal12MapEntryLiteINSt3__212basic_stringIcNS3_11char_traitsIcEENS3_9allocatorIcEEEENS0_5ValueELNS1_14WireFormatLite9FieldTypeE9ELSC_11ELi0EE21CheckTypeAndMergeFromERKNS0_11MessageLiteE
a1:__ZNK6google8protobuf8internal30RepeatedPtrFieldStringAccessor12ConvertFromTERKNSt3__212basic_stringIcNS3_11char_traitsIcEENS3_9allocatorIcEEEEPv
QL:__ZNK6google8protobuf6Option3NewEPNS0_5ArenaE
ng:__ZNK6google8protobuf10Reflection21RepeatedFieldAccessorEPKNS0_15FieldDescriptorE
BX:__ZNK6google8protobuf12FieldOptions3NewEPNS0_5ArenaE
l:STACKTOP
oca:__ZN14chrome_lang_id10TaskOutput14set_has_shardsEv
pea:__ZN12_GLOBAL__N_1L20register_memory_viewIaEEvPKc
C$:__ZN6google8protobuf8internal21arena_destruct_objectINS0_13RepeatedFieldIjEEEEvPv
bb:__embind_register_class
T$:__ZNK14chrome_lang_id9TaskInput13record_formatEi
u$:__ZNK14chrome_lang_id5Token13IsInitializedEv
PY:__ZN14chrome_lang_id23GenericFeatureExtractorD2Ev
Ola:__ZNK6google8protobuf10Int64Value13IsInitializedEv
hB:__ZN6google8protobuf12_GLOBAL__N_122protobuf_RegisterTypesERKNSt3__212basic_stringIcNS2_11char_traitsIcEENS2_9allocatorIcEEEE_275
S1:__ZNK6google8protobuf22ServiceDescriptorProto31SerializeWithCachedSizesToArrayEPh
DH:__ZN14chrome_lang_id5utils23RemoveLeadingWhitespaceEPNS_11StringPieceE
LH:__ZNSt3__212__hash_tableINS_17__hash_value_typeINS_10type_indexENS_12basic_stringIcNS_11char_traitsIcEENS_9allocatorIcEEEEEENS_22__unordered_map_hasherIS2_S9_NS_4hashIS2_EELb1EEENS_21__unordered_map_equalIS2_S9_NS_8equal_toIS2_EELb1EEENS6_IS9_EEE17__deallocate_nodeEPNS_16__hash_node_baseIPNS_11__hash_nodeIS9_PvEEEE
sQ:__ZN14chrome_lang_id11StringPieceC2ERKNSt3__212basic_stringIcNS1_11char_traitsIcEENS1_9allocatorIcEEEE
UN:__ZNK6google8protobuf9ListValue11GetMetadataEv
cu:__ZN14chrome_lang_id5utils6Hash32EPKcjj
w:tempBigIntS
qL:__ZN6google8protobuf20FieldDescriptorProto9MergeFromERKNS0_7MessageE
Ega:__ZNK6google8protobuf17GeneratedCodeInfo13GetCachedSizeEv
Xc:__ZN6google8protobuf17DescriptorBuilder14CrossLinkFieldEPNS0_15FieldDescriptorERKNS0_20FieldDescriptorProtoE
GV:__ZN14chrome_lang_id9TaskInput22mutable_unknown_fieldsEv
ed:__ZNK6google8protobuf10TextFormat7Printer15PrintFieldValueERKNS0_7MessageEPKNS0_10ReflectionEPKNS0_15FieldDescriptorEiRNS2_13TextGeneratorE
lc:FUNCTION_TABLE_viiiiii
n_:__ZN6google8protobuf2io17CodedOutputStream7AdvanceEi
k3:__ZN6google8protobuf5Arena3OwnINS0_11EnumOptionsEEEvPT_
oG:__ZNK6google8protobuf8internal26GeneratedMessageReflection7AddEnumEPNS0_7MessageEPKNS0_15FieldDescriptorEPKNS0_19EnumValueDescriptorE
Fla:__ZN14chrome_lang_id14LangIdNNParamsD0Ev
TE:__ZN6google8protobuf12_GLOBAL__N_123AggregateErrorCollector8AddErrorEiiRKNSt3__212basic_stringIcNS3_11char_traitsIcEENS3_9allocatorIcEEEE
AT:__ZNSt3__28functionIFbPKcPiEED2Ev
wna:__ZdaPv
vO:__ZN14chrome_lang_id9FMLParser4NextEv
ms:__ZNK6google8protobuf5Mixin24SerializeWithCachedSizesEPNS0_2io17CodedOutputStreamE
dm:__ZN6google8protobuf2io18StringOutputStream4NextEPPvPi
MM:__ZN6google8protobuf9BoolValue9MergeFromERKNS0_7MessageE
iO:__ZNK6google8protobuf6Struct11GetMetadataEv
qfa:___syscall_ret
DM:__ZN14chrome_lang_id25FeatureFunctionDescriptor8set_nameERKNSt3__212basic_stringIcNS1_11char_traitsIcEENS1_9allocatorIcEEEE
Sx:__ZN6google8protobuf8internal26GeneratedMessageReflection29NewGeneratedMessageReflectionEPKNS0_10DescriptorEPKNS0_7MessageEPKiiiiiii
NE:__ZN6google8protobuf8internal12MapEntryLiteINSt3__212basic_stringIcNS3_11char_traitsIcEENS3_9allocatorIcEEEENS0_5ValueELNS1_14WireFormatLite9FieldTypeE9ELSC_11ELi0EED2Ev
O:Math_imul
gla:dynCall_vi
rn:__ZNSt3__26__treeINS_12__value_typeINS_12basic_stringIcNS_11char_traitsIcEENS_9allocatorIcEEEEPKN6google8protobuf10DescriptorEEENS_19__map_value_compareIS7_SD_NS_4lessIS7_EELb1EEENS5_ISD_EEE12__find_equalIS7_EERPNS_16__tree_node_baseIPvEERPNS_15__tree_end_nodeISO_EERKT_
O3:__ZN6google8protobuf8internal18GenericTypeHandlerIN14chrome_lang_id9ParameterEE5MergeERKS4_PS4_
X_:__ZN6google8protobuf8internal18GenericTypeHandlerINS0_20OneofDescriptorProtoEE16NewFromPrototypeEPKS3_PNS0_5ArenaE
uba:__ZNK14chrome_lang_id8Sentence3NewEv
ks:__ZN6google8protobuf8internal20RepeatedPtrFieldBase9MergeFromINS1_18GenericTypeHandlerINS0_7MessageEEEEEvRKS2_
Wi:__ZN6google8protobuf17DescriptorBuilder15CrossLinkMethodEPNS0_16MethodDescriptorERKNS0_21MethodDescriptorProtoE
IV:__ZN14chrome_lang_id8Sentence22mutable_unknown_fieldsEv
mP:__ZNSt3__26vectorIPN14chrome_lang_id11FeatureTypeENS_9allocatorIS3_EEE18__construct_at_endIPS3_EENS_9enable_ifIXsr21__is_forward_iteratorIT_EE5valueEvE4typeESA_SA_j
VA:__ZNSt3__26__treeINS_12__value_typeINS_12basic_stringIcNS_11char_traitsIcEENS_9allocatorIcEEEENS_4pairIPKviEEEENS_19__map_value_compareIS7_SC_NS_4lessIS7_EELb1EEENS5_ISC_EEE7destroyEPNS_11__tree_nodeISC_PvEE
rJ:__ZN6google8protobuf11UInt64ValueC2Ev
jl:__ZN6google8protobuf22FastUInt32ToBufferLeftEjPc
mY:__ZNK6google8protobuf8internal12MapEntryLiteINSt3__212basic_stringIcNS3_11char_traitsIcEENS3_9allocatorIcEEEENS0_5ValueELNS1_14WireFormatLite9FieldTypeE9ELSC_11ELi0EE15MapEntryWrapperIS9_SA_LSC_9ELSC_11ELi0EE5valueEv
hM:__ZN6google8protobuf9BoolValueD2Ev
Ica:__ZN14chrome_lang_id12_GLOBAL__N_1L13MergeFromFailEi
Kd:__ZNK6google8protobuf8internal15DynamicMapField30SyncMapWithRepeatedFieldNoLockEv
qQ:__ZNSt3__213__vector_baseIN14chrome_lang_id16EmbeddingNetwork13VectorWrapperENS_9allocatorIS3_EEED2Ev
yt:__ZNSt3__212__hash_tableINS_17__hash_value_typeIPKcN6google8protobuf12_GLOBAL__N_16SymbolEEENS_22__unordered_map_hasherIS3_S8_NS5_4hashIS3_EELb1EEENS_21__unordered_map_equalIS3_S8_NS5_5streqELb1EEENS_9allocatorIS8_EEE6rehashEj
eO:__ZN14chrome_lang_id17WorkspaceRegistryD2Ev
OQ:__ZNK6google8protobuf7Message11GetTypeNameEv
gj:__ZN6google8protobuf17DescriptorBuilder13CrossLinkFileEPNS0_14FileDescriptorERKNS0_19FileDescriptorProtoE
Bla:__ZNK14chrome_lang_id8TaskSpec9parameterEv
ka:invoke_iiiii
Xn:__ZN6google8protobuf17DescriptorBuilder23AddRecursiveImportErrorERKNS0_19FileDescriptorProtoEi
vL:__ZN6google8protobuf5Arena18CreateMaybeMessageIN14chrome_lang_id10TaskOutputEEEPT_PS1_z
Kg:__ZN6google8protobuf28UninterpretedOption_NamePart27MergePartialFromCodedStreamEPNS0_2io16CodedInputStreamE
Sa:__embind_register_value_object_field
Rh:__ZNK6google8protobuf4Type12ByteSizeLongEv
MY:__ZNK6google8protobuf6Method3NewEPNS0_5ArenaE
Cu:__ZN6google8protobuf3MapINSt3__212basic_stringIcNS2_11char_traitsIcEENS2_9allocatorIcEEEENS0_5ValueEED2Ev
F5:_llvm_ctlz_i64
HI:__ZNK14chrome_lang_id11UnicodeText14const_iteratordeEv
Uo:__ZN6google8protobuf10TextFormat6Parser10ParserImpl23ConsumeMessageDelimiterEPNSt3__212basic_stringIcNS4_11char_traitsIcEENS4_9allocatorIcEEEE
Nv:__ZNK6google8protobuf11MapValueRef13GetFloatValueEv
Gn:__ZN6google8protobuf8internal14WireFormatLite27ReadPackedPrimitiveNoInlineIiLNS2_9FieldTypeE5EEEbPNS0_2io16CodedInputStreamEPNS0_13RepeatedFieldIT_EE
faa:dynCall_diii
Lea:__ZN6google8protobuf12_GLOBAL__N_1L13MergeFromFailEi_996
Dfa:__ZN6google8protobuf8internal14GetEmptyStringEv
Fu:__ZN6google8protobuf8internal12ExtensionSet17SetRepeatedUInt32Eiij
h:HEAPF64
Fna:getTempRet0
zK:__ZNK6google8protobuf8internal20RepeatedFieldWrapperIxE12SwapElementsEPvii
vU:__ZN6google8protobuf8internal13ReflectionOps4CopyERKNS0_7MessageEPS3_
wm:__ZNK6google8protobuf3MapINS0_6MapKeyENS0_11MapValueRefEE8InnerMap10FindHelperERKS2_
Vg:__ZNSt3__212__hash_tableINS_17__hash_value_typeINS_12basic_stringIcNS_11char_traitsIcEENS_9allocatorIcEEEEPKN6google8protobuf23SourceCodeInfo_LocationEEENS_22__unordered_map_hasherIS7_SD_NS9_4hashIS7_EELb1EEENS_21__unordered_map_equalIS7_SD_NS_8equal_toIS7_EELb1EEENS5_ISD_EEE4findIS7_EENS_15__hash_iteratorIPNS_11__hash_nodeISD_PvEEEERKT_
fea:__ZNK6google8protobuf8internal21ExplicitlyConstructedIN14chrome_lang_id26FeatureExtractorDescriptorEE3getEv
cL:__ZNK6google8protobuf8internal26GeneratedMessageReflection23GetOneofFieldDescriptorERKNS0_7MessageEPKNS0_15OneofDescriptorE
jna:__ZN6google8protobuf11MessageLiteD2Ev
FV:__ZN6google8protobuf15DescriptorProto8CopyFromERKNS0_7MessageE
DD:__ZN6google8protobuf6Method10SharedDtorEv
NU:__ZN6google8protobuf2io16CodedInputStream29UnsafeDecrementRecursionDepthEv
w_:__ZN6google8protobuf8internal18GenericTypeHandlerINS0_22ServiceDescriptorProtoEE16NewFromPrototypeEPKS3_PNS0_5ArenaE
C9:__ZN14chrome_lang_idL28MutableUnknownFieldsForTokenEPNS_5TokenE
w2:__ZN14chrome_lang_id5utils23UTF8FirstLetterNumBytesEPKc
Ej:__ZN6google8protobuf11MessageLite14ParseFromArrayEPKvi
mg:__ZN6google8protobuf17DescriptorBuilder19AllocateOptionsImplINS0_19EnumValueDescriptorEEEvRKNSt3__212basic_stringIcNS4_11char_traitsIcEENS4_9allocatorIcEEEESC_RKNT_11OptionsTypeEPSD_
f0:__ZN6google8protobuf12_GLOBAL__N_131ShutdownGeneratedMessageFactoryEv
p5:__ZN6google8protobuf8internal26FunctionResultCallback_1_0IPNSt3__212basic_stringIcNS3_11char_traitsIcEENS3_9allocatorIcEEEEPN14chrome_lang_id9TaskInputEED2Ev
$ma:__ZNK14chrome_lang_id5Token5startEv
CM:__ZN14chrome_lang_id25FeatureFunctionDescriptor8set_typeERKNSt3__212basic_stringIcNS1_11char_traitsIcEENS1_9allocatorIcEEEE
Di:__ZN6google8protobuf18InsertIfNotPresentINS0_8hash_mapIPKNS0_10DescriptorEPKNS0_7MessageENS0_4hashIS5_EENSt3__28equal_toIS5_EENSB_9allocatorINSB_4pairIKS5_S8_EEEEEEEEbPT_RKNSK_10value_typeE
nka:__ZN6google8protobuf8internal16MapFieldAccessorD0Ev
gq:__ZN6google8protobuf3MapINSt3__212basic_stringIcNS2_11char_traitsIcEENS2_9allocatorIcEEEENS0_5ValueEE8InnerMap11TreeConvertEj
ZB:__ZN6google8protobuf28GeneratedCodeInfo_Annotation5ClearEv
hf:__ZN6google8protobuf12_GLOBAL__N_115RetrieveOptionsEiRKNS0_7MessageEPNSt3__26vectorINS5_12basic_stringIcNS5_11char_traitsIcEENS5_9allocatorIcEEEENSA_ISC_EEEE
xM:__ZN14chrome_lang_id4CLD212_GLOBAL__N_112CountSpaces4EPKci
wv:__ZNSt3__26vectorIPN6google8protobuf7MessageENS_9allocatorIS4_EEE21__push_back_slow_pathIKS4_EEvRT_
zI:__ZN6google8protobuf28UninterpretedOption_NamePartC2Ev
iL:__ZN6google8protobuf10Int32ValueC2Ev
Av:__ZNSt3__212basic_stringIcNS_11char_traitsIcEENS_9allocatorIcEEE21__grow_by_and_replaceEjjjjjjPKc
$y:__ZN6google8protobuf8internal10WireFormat11SkipMessageEPNS0_2io16CodedInputStreamEPNS0_15UnknownFieldSetE
wG:__ZNSt3__26vectorIPN14chrome_lang_id11FeatureTypeENS_9allocatorIS3_EEE8allocateEj
Ar:__ZN6google8protobuf15safe_parse_signEPNSt3__212basic_stringIcNS1_11char_traitsIcEENS1_9allocatorIcEEEEPb
XO:__ZNSt3__24pairINS_12basic_stringIcNS_11char_traitsIcEENS_9allocatorIcEEEEfEC2EOS7_
zz:__ZN6google8protobuf10TextFormat23PrintFieldValueToStringERKNS0_7MessageEPKNS0_15FieldDescriptorEiPNSt3__212basic_stringIcNS8_11char_traitsIcEENS8_9allocatorIcEEEE
uda:__ZNK6google8protobuf8internal20RepeatedFieldWrapperIxE4SizeEPKv
J6:__ZNK6google8protobuf10TextFormat17FieldValuePrinter10PrintInt32Ei
qs:__ZN6google8protobuf8internal12_GLOBAL__N_1L30ReportReflectionUsageTypeErrorEPKNS0_10DescriptorEPKNS0_15FieldDescriptorEPKcNS6_7CppTypeE
IA:__ZN6google8protobuf13RepeatedFieldIfE9MergeFromERKS2_
ZS:__ZNK6google8protobuf30DescriptorProto_ExtensionRange3NewEPNS0_5ArenaE
qc:FUNCTION_TABLE_i
CF:__ZN6google8protobuf58protobuf_AddDesc_google_2fprotobuf_2fduration_2eproto_implEv
Uba:__ZN14chrome_lang_id12_GLOBAL__N_1L13MergeFromFailEi_505
Sp:__ZNSt3__212basic_stringIcNS_11char_traitsIcEENS_9allocatorIcEEE7reserveEj
Jga:__ZNK6google8protobuf11DoubleValue20GetMaybeArenaPointerEv
wh:_fmod
fR:__ZN14chrome_lang_id25FeatureFunctionDescriptor12mutable_nameEv
fA:__ZNSt3__26__treeINS_12__value_typeINS_12basic_stringIcNS_11char_traitsIcEENS_9allocatorIcEEEEPKN6google8protobuf10DescriptorEEENS_19__map_value_compareIS7_SD_NS_4lessIS7_EELb1EEENS5_ISD_EEE7destroyEPNS_11__tree_nodeISD_PvEE
rs:__ZN6google8protobuf7Message8CopyFromERKS1_
xc:FUNCTION_TABLE_v
_P:__ZN14chrome_lang_id5utils10ParseUsingIiEET_RKNSt3__212basic_stringIcNS3_11char_traitsIcEENS3_9allocatorIcEEEENS3_8functionIFbPKcPS2_EEE
yK:__ZNK6google8protobuf8internal20RepeatedFieldWrapperIyE12SwapElementsEPvii
kI:__ZNK6google8protobuf14ServiceOptions13IsInitializedEv
pF:__ZNK14chrome_lang_id9Parameter11GetTypeNameEv
Et:__ZNK6google8protobuf11MapValueRef13GetInt64ValueEv
W7:__ZNK6google8protobuf8internal20RepeatedFieldWrapperIyE10RemoveLastEPv
QN:__ZN6google8protobuf15UnknownFieldSet16default_instanceEv
z8:__ZN14chrome_lang_id5Token8set_headEi
qn:__ZNKSt3__212__hash_tableINS_17__hash_value_typeIPKcPKN6google8protobuf14FileDescriptorEEENS_22__unordered_map_hasherIS3_S9_NS5_4hashIS3_EELb1EEENS_21__unordered_map_equalIS3_S9_NS5_5streqELb1EEENS_9allocatorIS9_EEE4findIS3_EENS_21__hash_const_iteratorIPNS_11__hash_nodeIS9_PvEEEERKT_
nJ:__ZNK14chrome_lang_id9FMLParser11CurrentCharEv
YY:__ZNK6google8protobuf5Mixin3NewEPNS0_5ArenaE
zc:FUNCTION_TABLE_iiiii
Vj:__ZN6google8protobuf3MapINS0_6MapKeyENS0_11MapValueRefEE5eraseENS4_8iteratorE
sw:__ZN6google8protobuf2io16CodedInputStreamD2Ev
Wm:__ZN6google8protobuf3MapINS0_6MapKeyENS0_11MapValueRefEE8InnerMap14CopyListToTreeEjPNSt3__23setIPS2_NS5_10KeyCompareENS4_12MapAllocatorIS8_EEEE
K_:__ZN6google8protobuf16RepeatedPtrFieldIN14chrome_lang_id9TaskInputEED2Ev
gy:__ZN6google8protobuf19UninterpretedOptionD2Ev
Jb:getTypeName
vz:__ZNK6google8protobuf17GeneratedCodeInfo12ByteSizeLongEv
Vc:__ZN6google8protobuf11FileOptions27MergePartialFromCodedStreamEPNS0_2io16CodedInputStreamE
mw:__ZN6google8protobuf8internal20RepeatedPtrFieldBase5ClearINS0_16RepeatedPtrFieldIN14chrome_lang_id25FeatureFunctionDescriptorEE11TypeHandlerEEEvv
qV:__ZN6google8protobuf8internal21arena_destruct_objectINS0_6MapKeyEEEvPv
b0:__ZNK6google8protobuf8internal8MapEntryINSt3__212basic_stringIcNS3_11char_traitsIcEENS3_9allocatorIcEEEENS0_5ValueELNS1_14WireFormatLite9FieldTypeE9ELSC_11ELi0EE8GetArenaEv
sV:__ZN6google8protobuf17GeneratedCodeInfo8CopyFromERKNS0_7MessageE
lu:__ZN6google8protobuf19FileDescriptorProto10set_syntaxEPKc
ZM:__ZN6google8protobuf8internal26FunctionResultCallback_1_0IPNSt3__212basic_stringIcNS3_11char_traitsIcEENS3_9allocatorIcEEEEPN14chrome_lang_id5TokenEEC2EPFSA_SD_EbSD_
qO:__ZNK6google8protobuf5Value11GetMetadataEv
Jr:__ZNSt3__212__hash_tableINS_17__hash_value_typeINS_4pairIPKvPKcEEN6google8protobuf12_GLOBAL__N_16SymbolEEENS_22__unordered_map_hasherIS7_SC_NSA_21PointerStringPairHashELb1EEENS_21__unordered_map_equalIS7_SC_NSA_22PointerStringPairEqualELb1EEENS_9allocatorISC_EEE6rehashEj
Dd:__ZN6google8protobuf8internal10WireFormat21FieldDataOnlyByteSizeEPKNS0_15FieldDescriptorERKNS0_7MessageE
tE:__ZN6google8protobuf14MessageOptionsC2Ev
Um:__ZN6google8protobuf10TextFormat6Parser10ParserImpl13ReportWarningEiiRKNSt3__212basic_stringIcNS4_11char_traitsIcEENS4_9allocatorIcEEEE
sha:__ZNK6google8protobuf15DescriptorProto13GetCachedSizeEv
jma:__ZN6google8protobuf8internal15ExtensionFinderD2Ev
jX:__ZN6google8protobuf4Type8CopyFromERKNS0_7MessageE
bx:__ZN6google8protobuf8internal20RepeatedPtrFieldBase5ClearINS0_16RepeatedPtrFieldIN14chrome_lang_id9ParameterEE11TypeHandlerEEEvv
zB:__ZN6google8protobuf8internal12ExtensionSet5ClearEv
VB:__ZN6google8protobuf8internal20RepeatedPtrFieldBase7DestroyINS0_16RepeatedPtrFieldIN14chrome_lang_id9ParameterEE11TypeHandlerEEEvv
WN:__ZNK6google8protobuf9EnumValue11GetMetadataEv
hj:__ZN6google8protobuf11MessageLite15ParseFromStringERKNSt3__212basic_stringIcNS2_11char_traitsIcEENS2_9allocatorIcEEEE
om:__ZN6google8protobuf12_GLOBAL__N_122FormatBracketedOptionsEiRKNS0_7MessageEPNSt3__212basic_stringIcNS5_11char_traitsIcEENS5_9allocatorIcEEEE
Cv:__ZN6google8protobuf12_GLOBAL__N_122protobuf_RegisterTypesERKNSt3__212basic_stringIcNS2_11char_traitsIcEENS2_9allocatorIcEEEE_866
Ql:__ZN6google8protobuf19UninterpretedOption15UnsafeMergeFromERKS1_
rC:__ZNK14chrome_lang_id18NumericFeatureType19GetFeatureValueNameEx
bQ:__ZN6google8protobuf13StringAppendFEPNSt3__212basic_stringIcNS1_11char_traitsIcEENS1_9allocatorIcEEEEPKcz
saa:__ZN14chrome_lang_id10TaskOutput22set_has_file_extensionEv
Al:__ZN6google8protobuf8internal10WireFormat24SerializeWithCachedSizesERKNS0_7MessageEiPNS0_2io17CodedOutputStreamE
Bga:__ZN6google8protobuf6OptionD0Ev
uP:__ZNK6google8protobuf11MessageLite25InitializationErrorStringEv
Jh:__ZN6google8protobuf18InsertIfNotPresentINS0_8hash_mapINSt3__24pairIPKNS0_14EnumDescriptorEiEEPKNS0_19EnumValueDescriptorENS0_12_GLOBAL__N_122PointerIntegerPairHashIS8_EENS3_8equal_toIS8_EENS3_9allocatorINS4_IKS8_SB_EEEEEEEEbPT_RKNSM_10value_type10first_typeERKNSM_10value_type11second_typeE
rB:__ZN6google8protobuf54protobuf_AddDesc_google_2fprotobuf_2ftype_2eproto_implEv
kY:__ZNK6google8protobuf9FieldMask3NewEPNS0_5ArenaE
Yh:__ZN14chrome_lang_id9FMLParser8NextItemEv
NH:__ZN6google8protobuf11UInt64Value9MergeFromERKNS0_7MessageE
bC:__ZNK6google8protobuf13SourceContext24SerializeWithCachedSizesEPNS0_2io17CodedOutputStreamE
gP:__ZN6google8protobuf10FloatValueD0Ev
wE:__ZN6google8protobuf14ServiceOptionsC2Ev
Sba:__ZN6google8protobuf12_GLOBAL__N_1L13MergeFromFailEi_276
jh:__ZN6google8protobuf14SourceCodeInfo27MergePartialFromCodedStreamEPNS0_2io16CodedInputStreamE
XP:__ZN6google8protobuf8internal10LogMessagelsEi
gv:__ZNSt3__26vectorIPN6google8protobuf20FileDescriptorTablesENS_9allocatorIS4_EEE21__push_back_slow_pathIKS4_EEvRT_
Uj:__ZN6google8protobuf8internal12ExtensionSet9Extension5ClearEv
NC:__ZNSt3__212__hash_tableINS_17__hash_value_typeINS_10type_indexENS_6vectorINS_12basic_stringIcNS_11char_traitsIcEENS_9allocatorIcEEEENS7_IS9_EEEEEENS_22__unordered_map_hasherIS2_SC_NS_4hashIS2_EELb1EEENS_21__unordered_map_equalIS2_SC_NS_8equal_toIS2_EELb1EEENS7_ISC_EEED2Ev
Cq:__ZNK6google8protobuf8internal8MapFieldINSt3__212basic_stringIcNS3_11char_traitsIcEENS3_9allocatorIcEEEENS0_5ValueELNS1_14WireFormatLite9FieldTypeE9ELSC_11ELi0EE19SetMapIteratorValueEPNS0_11MapIteratorE
L4:__ZNK6google8protobuf5Field31SerializeWithCachedSizesToArrayEPh
TF:__ZNK6google8protobuf10BytesValue12ByteSizeLongEv
kt:__ZN6google8protobuf8internal14WireFormatLite11WriteUInt32EijPNS0_2io17CodedOutputStreamE
Uca:__ZNKSt3__26vectorINS_4pairINS_12basic_stringIcNS_11char_traitsIcEENS_9allocatorIcEEEEfEENS5_IS8_EEE8max_sizeEv
Sb:extendError
C0:__ZNK6google8protobuf8internal30RepeatedPtrFieldStringAccessor3NewEPKv
vv:__ZN6google8protobuf11EnumOptions9MergeFromERKNS0_7MessageE
vN:__ZNK6google8protobuf11DoubleValue11GetMetadataEv
Gp:__ZN6google8protobuf8internal29DescriptorPoolExtensionFinder4FindEiPNS1_13ExtensionInfoE
lt:__ZNSt3__23mapINS_12basic_stringIcNS_11char_traitsIcEENS_9allocatorIcEEEEPKN6google8protobuf19EnumValueDescriptorENS_4lessIS6_EENS4_INS_4pairIKS6_SB_EEEEEixERSF_
Ox:__ZN6google8protobuf8internal20RepeatedPtrFieldBase18MergeFromInnerLoopINS0_16RepeatedPtrFieldIN14chrome_lang_id9TaskInputEE11TypeHandlerEEEvPPvSA_ii
wT:__ZN14chrome_lang_id25EmbeddingFeatureExtractorINS_16FeatureExtractorINS_8SentenceEJEEES2_JEED2Ev
VW:__ZNK6google8protobuf20FieldDescriptorProto13IsInitializedEv
fg:__ZNSt3__212__hash_tableINS_17__hash_value_typeINS_4pairIPKN6google8protobuf14EnumDescriptorEiEEPKNS4_19EnumValueDescriptorEEENS_22__unordered_map_hasherIS8_SC_NS4_12_GLOBAL__N_122PointerIntegerPairHashIS8_EELb1EEENS_21__unordered_map_equalIS8_SC_NS_8equal_toIS8_EELb1EEENS_9allocatorISC_EEE8__rehashEj
tc:FUNCTION_TABLE_iiiiiii
jJ:__ZNSt3__213__vector_baseINS_6vectorIN14chrome_lang_id16EmbeddingNetwork13VectorWrapperENS_9allocatorIS4_EEEENS5_IS7_EEED2Ev
zfa:__ZNK6google8protobuf5Field13SetCachedSizeEi
Rda:__ZNK6google8protobuf14ServiceOptions13SetCachedSizeEi
Zla:__ZNKSt3__221__basic_string_commonILb1EE20__throw_out_of_rangeEv
JR:__ZNSt3__26vectorIPN14chrome_lang_id9WorkspaceENS_9allocatorIS3_EEE18__construct_at_endEj
Q7:__ZN6google8protobuf8internal14WireFormatLite9Int32SizeEi
Xz:__ZNSt3__212basic_stringIcNS_11char_traitsIcEENS_9allocatorIcEEE9__grow_byEjjjjjj
IG:__ZN6google8protobuf8internal18GenericTypeHandlerINS0_9EnumValueEE16NewFromPrototypeEPKS3_PNS0_5ArenaE
rR:__ZN14chrome_lang_id14TaskInput_Part21mutable_record_formatEv
lga:__ZNK6google8protobuf20FieldDescriptorProto13GetCachedSizeEv
Fma:__ZNK6google8protobuf5Mixin13IsInitializedEv
Rfa:__ZNK6google8protobuf23SourceCodeInfo_Location13GetCachedSizeEv
paa:__ZNK6google8protobuf12FieldOptions3NewEv
sC:__ZN6google8protobuf16EnumValueOptions8CopyFromERKS1_
AL:__ZNK10__cxxabiv122__base_class_type_info27has_unambiguous_public_baseEPNS_19__dynamic_cast_infoEPvi
_b:readLatin1String
LU:__ZNK6google8protobuf20FieldDescriptorProto3NewEPNS0_5ArenaE
kS:__ZN14chrome_lang_id8TaskSpec17mutable_task_typeEv
ns:__ZN6google8protobuf5Value10clear_kindEv
fba:__ZNK6google8protobuf9Timestamp3NewEv
Eba:__ZN6google8protobuf12_GLOBAL__N_1L13MergeFromFailEi_1010
gB:__ZNK6google8protobuf9ListValue39InternalSerializeWithCachedSizesToArrayEbPh
m5:__ZN10emscripten8internal18GenericBindingTypeINSt3__26vectorIN14chrome_lang_id22NNetLanguageIdentifier6ResultENS2_9allocatorIS6_EEEEE12fromWireTypeEPS9_
M1:__ZN6google8protobuf8internal18GenericTypeHandlerIN14chrome_lang_id14TaskInput_PartEE5MergeERKS4_PS4_
pm:__ZNK6google8protobuf8internal26GeneratedMessageReflection8SetFieldIdEEvPNS0_7MessageEPKNS0_15FieldDescriptorERKT_
cc:integerReadValueFromPointer
lR:__ZN6google8protobuf12FieldOptions16default_instanceEv
oe:__ZN6google8protobuf8internal10WireFormat27ParseAndMergeMessageSetItemEPNS0_2io16CodedInputStreamEPNS0_7MessageE
lq:__ZN6google8protobuf23SourceCodeInfo_LocationD2Ev
w1:__ZNKSt3__210__function6__funcIPFbPKcPiENS_9allocatorIS6_EES5_E7__cloneEv
hD:__ZN14chrome_lang_id22NNetLanguageIdentifier6ResultC2Ev
T7:__ZN14chrome_lang_idL32MutableUnknownFieldsForParameterEPNS_9ParameterE
lO:__ZN14chrome_lang_id4CLD222GetUTF8LetterScriptNumEPKc
jW:__ZNK6google8protobuf8internal20RepeatedFieldWrapperIbE3SetEPviPKv
q1:__ZNSt3__24pairIKNS_10type_indexENS_6vectorIPN14chrome_lang_id9WorkspaceENS_9allocatorIS6_EEEEED2Ev
Bna:_emscripten_get_global_libc
E4:__ZN6google8protobuf8internalL27ValidateEnumUsingDescriptorEPKvi
Fk:__ZN6google8protobuf8internal14WireFormatLite22WriteBytesMaybeAliasedEiRKNSt3__212basic_stringIcNS3_11char_traitsIcEENS3_9allocatorIcEEEEPNS0_2io17CodedOutputStreamE
DE:__ZN6google8protobuf8internal8MapFieldINSt3__212basic_stringIcNS3_11char_traitsIcEENS3_9allocatorIcEEEENS0_5ValueELNS1_14WireFormatLite9FieldTypeE9ELSC_11ELi0EE9MergeFromERKNS1_12MapFieldLiteIS9_SA_LSC_9ELSC_11ELi0EEE
gf:__ZN6google8protobuf14DescriptorPool6TablesD2Ev
Ru:__ZNK6google8protobuf8internal26GeneratedMessageReflection8HasFieldERKNS0_7MessageEPKNS0_15FieldDescriptorE
yX:__ZN6google8protobuf2io22LazyStringOutputStreamD0Ev
M4:__ZNK6google8protobuf5Empty31SerializeWithCachedSizesToArrayEPh
Og:__ZN6google8protobuf8internal12ExtensionSet9Extension4FreeEv
Eo:__ZNSt3__26__treeINS_12__value_typeINS_12basic_stringIcNS_11char_traitsIcEENS_9allocatorIcEEEEPKN6google8protobuf15FieldDescriptorEEENS_19__map_value_compareIS7_SD_NS_4lessIS7_EELb1EEENS5_ISD_EEE4findIS7_EENS_15__tree_iteratorISD_PNS_11__tree_nodeISD_PvEEiEERKT_
n6:__ZN14chrome_lang_id14TaskInput_Part25internal_default_instanceEv
kW:__ZNK6google8protobuf16EnumValueOptions3NewEPNS0_5ArenaE
OE:_frexp
Zx:__ZN6google8protobuf8internal8MapEntryINSt3__212basic_stringIcNS3_11char_traitsIcEENS3_9allocatorIcEEEENS0_5ValueELNS1_14WireFormatLite9FieldTypeE9ELSC_11ELi0EE9MergeFromERKNS0_7MessageE
P8:__ZN14chrome_lang_id13ScriptFeatureC2Ev
Bi:__ZN6google8protobuf20FieldDescriptorProto15UnsafeMergeFromERKS1_
kB:__ZN6google8protobuf8internal20RepeatedPtrFieldBase7DestroyINS0_16RepeatedPtrFieldIN14chrome_lang_id18TaskSpec_ParameterEE11TypeHandlerEEEvv
DP:__ZNK10__cxxabiv117__class_type_info16search_above_dstEPNS_19__dynamic_cast_infoEPKvS4_ib
e5:__ZN6google8protobuf8internal18GenericTypeHandlerIN14chrome_lang_id9ParameterEE5ClearEPS4_
fk:__ZN6google8protobuf8internal12ExtensionSet25UnsafeArenaReleaseMessageEPKNS0_15FieldDescriptorEPNS0_14MessageFactoryE
kF:_fmt_u
cY:__Znwj
Qba:__ZN6google8protobuf12_GLOBAL__N_1L13MergeFromFailEi_850
mn:__ZNK14chrome_lang_id21RelevantScriptFeature8EvaluateERKNS_12WorkspaceSetERKNS_8SentenceEPNS_13FeatureVectorE
XT:_fmt_o
Jaa:__ZNK6google8protobuf8internal20RepeatedFieldWrapperIdE7IsEmptyEPKv
Km:__ZN6google8protobuf2io9Tokenizer12ParseIntegerERKNSt3__212basic_stringIcNS3_11char_traitsIcEENS3_9allocatorIcEEEEyPy
KB:__ZN6google8protobuf2io17CodedOutputStreamC2EPNS1_20ZeroCopyOutputStreamEb
Xka:__ZN6google8protobuf2io17ArrayOutputStreamD0Ev
Ew:__ZNK6google8protobuf8internal20RepeatedPtrFieldBase3GetINS0_16RepeatedPtrFieldIN14chrome_lang_id5TokenEE11TypeHandlerEEERKNT_4TypeEi
dI:__ZThn28_N6google8protobuf8internal8MapFieldINSt3__212basic_stringIcNS3_11char_traitsIcEENS3_9allocatorIcEEEENS0_5ValueELNS1_14WireFormatLite9FieldTypeE9ELSC_11ELi0EED1Ev
Hca:__ZN14chrome_lang_id4CLD26EqCaseEcc
yF:__ZN6google8protobuf19EnumDescriptorProtoC2Ev
ju:__ZN6google8protobuf17DescriptorBuilder10AddWarningERKNSt3__212basic_stringIcNS2_11char_traitsIcEENS2_9allocatorIcEEEERKNS0_7MessageENS0_14DescriptorPool14ErrorCollector13ErrorLocationESA_
qE:__ZNK6google8protobuf10TextFormat17FieldValuePrinter11PrintStringERKNSt3__212basic_stringIcNS3_11char_traitsIcEENS3_9allocatorIcEEEE
i9:__ZN14chrome_lang_id17FloatFeatureValueC2Ejf
iv:__ZNK6google8protobuf12OneofOptions39InternalSerializeWithCachedSizesToArrayEbPh
Z7:__ZNK6google8protobuf8internal20RepeatedFieldWrapperIiE10RemoveLastEPv
Bh:__ZN6google8protobuf2io17CodedOutputStream13WriteVarint64Ey
qp:__ZN14chrome_lang_id4CLD226UTF8GenericPropertyTwoByteEPKNS0_21UTF8StateMachineObj_2EPPKhPi
TM:_sbrk
Qea:__ZN14chrome_lang_id11UnicodeText14const_iteratorC2EPKc
t5:___DOUBLE_BITS_131
or:__ZNK6google8protobuf8internal26GeneratedMessageReflection17SetRepeatedDoubleEPNS0_7MessageEPKNS0_15FieldDescriptorEid
Ama:__ZNK6google8protobuf11MessageLite8GetArenaEv
D4:__ZNK6google8protobuf6Method31SerializeWithCachedSizesToArrayEPh
cJ:__ZNK6google8protobuf10BytesValue39InternalSerializeWithCachedSizesToArrayEbPh
sI:__ZNK10__cxxabiv120__si_class_type_info16search_above_dstEPNS_19__dynamic_cast_infoEPKvS4_ib
jM:__ZN14chrome_lang_id4CLD29OffsetMap5ClearEv
Qia:b4
yV:__ZNSt3__218__libcpp_refstringD2Ev
t$:__ZNK14chrome_lang_id8TaskSpec14unknown_fieldsEv
R8:__ZNK6google8protobuf8internal33RandomAccessRepeatedFieldAccessor12CopyIteratorEPKvS4_
Ov:__ZNK6google8protobuf11MapValueRef12GetEnumValueEv
Cla:__ZNK14chrome_lang_id17ComponentMetadata4nameEv
EH:__ZN10emscripten8internal11BindingTypeINSt3__212basic_stringIcNS2_11char_traitsIcEENS2_9allocatorIcEEEEE10toWireTypeERKS8_
Uea:__ZN6google8protobuf11StringValueD0Ev
ry:__ZNK6google8protobuf8internal8MapFieldINSt3__212basic_stringIcNS3_11char_traitsIcEENS3_9allocatorIcEEEENS0_5ValueELNS1_14WireFormatLite9FieldTypeE9ELSC_11ELi0EE20InitDefaultEntryOnceEv
H3:__ZNK6google8protobuf11FileOptions31SerializeWithCachedSizesToArrayEPh
A3:__ZN6google8protobuf8internal10LogMessagelsEPKc
f3:__ZNK6google8protobuf14MessageOptions31SerializeWithCachedSizesToArrayEPh
Ty:__ZN6google8protobuf2io16CodedInputStream10ReadStringEPNSt3__212basic_stringIcNS3_11char_traitsIcEENS3_9allocatorIcEEEEi
FR:__ZN14chrome_lang_id10TaskOutput21mutable_record_formatEv
YM:__ZNK6google8protobuf15DescriptorProto11GetMetadataEv
nia:__ZNK6google8protobuf8internal21ExplicitlyConstructedIN14chrome_lang_id5TokenEE3getEv
dla:__ZNK14chrome_lang_id14LangIdNNParams15embeddings_sizeEv
D6:__ZN6google8protobuf8internal21arena_destruct_objectIN14chrome_lang_id10TaskOutputEEEvPv
Pp:__ZN6google8protobuf8internal14WireFormatLite11SkipMessageEPNS0_2io16CodedInputStreamEPNS3_17CodedOutputStreamE
SU:__ZN6google8protobuf16RepeatedPtrFieldINSt3__212basic_stringIcNS2_11char_traitsIcEENS2_9allocatorIcEEEEE15UnsafeMergeFromERKS9_
nK:__ZNSt3__26vectorINS_12basic_stringIcNS_11char_traitsIcEENS_9allocatorIcEEEENS4_IS6_EEE18__construct_at_endIPKS6_EENS_9enable_ifIXsr21__is_forward_iteratorIT_EE5valueEvE4typeESD_SD_j
W6:__ZN6google8protobuf8internal21arena_destruct_objectINS0_20OneofDescriptorProtoEEEvPv
hd:__ZN6google8protobuf20FieldDescriptorProto27MergePartialFromCodedStreamEPNS0_2io16CodedInputStreamE
fd:__ZN6google8protobuf3Api27MergePartialFromCodedStreamEPNS0_2io16CodedInputStreamE
ho:__ZNK6google8protobuf8internal26GeneratedMessageReflection9AddUInt64EPNS0_7MessageEPKNS0_15FieldDescriptorEy
Iq:___mo_lookup
nv:__ZN14chrome_lang_id8Sentence5ClearEv
Hh:__ZNSt3__213__stable_sortIRN6google8protobuf25MapEntryMessageComparatorENS_11__wrap_iterIPPKNS2_7MessageEEEEEvT0_SB_T_NS_15iterator_traitsISB_E15difference_typeEPNSE_10value_typeEi
bq:__ZN6google8protobuf3MapINS0_6MapKeyENS0_11MapValueRefEE8InnerMap6ResizeEj
rl:__ZN6google8protobuf17safe_int_internalIiEEbNSt3__212basic_stringIcNS2_11char_traitsIcEENS2_9allocatorIcEEEEPT_
sl:__ZNK6google8protobuf28GeneratedCodeInfo_Annotation12ByteSizeLongEv
D:Math_pow
r6:__ZN14chrome_lang_id12_GLOBAL__N_126IsValidCharAtStartOfNumberEc
eI:__ZN6google8protobuf30DescriptorProto_ExtensionRangeC2Ev
Cm:__ZNK6google8protobuf8internal26GeneratedMessageReflection22MutableRepeatedMessageEPNS0_7MessageEPKNS0_15FieldDescriptorEi
s8:__ZN14chrome_lang_idL31MutableUnknownFieldsForSentenceEPNS_8SentenceE
tY:__ZNK6google8protobuf8internal20RepeatedFieldWrapperIbE3GetEPKviPv
Vk:__ZN6google8protobuf8internal12ExtensionSet8SetInt32EihiPKNS0_15FieldDescriptorE
WA:__ZNK6google8protobuf28UninterpretedOption_NamePart39InternalSerializeWithCachedSizesToArrayEbPh
tT:__ZN6google8protobuf8internal18GenericTypeHandlerINS0_21MethodDescriptorProtoEE5MergeERKS3_PS3_
XX:__ZNK6google8protobuf8internal20RepeatedFieldWrapperIdE3GetEPKviPv
ik:__ZN6google8protobuf11DoubleValue27MergePartialFromCodedStreamEPNS0_2io16CodedInputStreamE
cV:__ZN6google8protobuf8internal27UnknownFieldSetFieldSkipper9SkipFieldEPNS0_2io16CodedInputStreamEj
Cr:__ZNK6google8protobuf8internal12ExtensionSet39InternalSerializeWithCachedSizesToArrayEiibPh
RI:__ZN6google8protobuf9TimestampC2Ev
qX:__ZN14chrome_lang_id17ComponentMetadataC2EPKcS2_S2_i
uH:__ZN10emscripten12value_objectIN14chrome_lang_id22NNetLanguageIdentifier6ResultEE5fieldIS3_fEERS4_PKcMT_T0_
rh:__ZNSt3__212__hash_tableINS_12basic_stringIcNS_11char_traitsIcEENS_9allocatorIcEEEEN6google8protobuf4hashIS6_EENS_8equal_toIS6_EENS4_IS6_EEE4findIS6_EENS_15__hash_iteratorIPNS_11__hash_nodeIS6_PvEEEERKT_
Mca:__ZNK6google8protobuf20FieldDescriptorProto13SetCachedSizeEi
Va:__embind_register_bool
VC:__ZN6google8protobuf14MessageOptions5ClearEv
Ep:__ZNK6google8protobuf19EnumDescriptorProto12ByteSizeLongEv
mt:__ZN14chrome_lang_id9FMLParser5ParseERKNSt3__212basic_stringIcNS1_11char_traitsIcEENS1_9allocatorIcEEEEPNS_26FeatureExtractorDescriptorE
e_:__ZN6google8protobuf16RepeatedPtrFieldIN14chrome_lang_id10TaskOutputEE5ClearEv
SI:__ZN6google8protobuf8internal14WireFormatLite36ReadMessageNoVirtualNoRecursionDepthIN14chrome_lang_id5TokenEEEbPNS0_2io16CodedInputStreamEPT_
Vaa:__ZN14chrome_lang_id18TaskSpec_Parameter13set_has_valueEv
Rma:__ZNKSt3__26vectorIfNS_9allocatorIfEEE8max_sizeEv
jn:__ZN6google8protobuf8internal20RepeatedPtrFieldBase9MergeFromINS0_16RepeatedPtrFieldINSt3__212basic_stringIcNS5_11char_traitsIcEENS5_9allocatorIcEEEEE11TypeHandlerEEEvRKS2_
Vv:__ZNK6google8protobuf8internal20RepeatedPtrFieldBase3GetINS0_16RepeatedPtrFieldIN14chrome_lang_id25FeatureFunctionDescriptorEE11TypeHandlerEEERKNT_4TypeEi
H7:__ZN14chrome_lang_id21RelevantScriptFeatureC2Ev
ue:__ZN6google8protobuf22ServiceDescriptorProto27MergePartialFromCodedStreamEPNS0_2io16CodedInputStreamE
fw:__ZN6google8protobuf11FileOptions10SharedDtorEv
e4:__ZNK6google8protobuf9EnumValue31SerializeWithCachedSizesToArrayEPh
wr:__ZNK6google8protobuf5Mixin39InternalSerializeWithCachedSizesToArrayEbPh
zE:__ZN6google8protobuf13MethodOptionsC2Ev
kga:__ZNK6google8protobuf20OneofDescriptorProto13GetCachedSizeEv
Ae:__ZN6google8protobuf17DescriptorBuilder21ValidateProto3MessageEPNS0_10DescriptorERKNS0_15DescriptorProtoE
kP:__ZN6google8protobuf20NewPermanentCallbackIPNSt3__212basic_stringIcNS2_11char_traitsIcEENS2_9allocatorIcEEEEPN14chrome_lang_id5TokenEEEPNS0_14ResultCallbackIT_EEPFSE_T0_ESH_
Pla:__ZNK6google8protobuf10Int32Value13IsInitializedEv
Rm:__ZNK6google8protobuf15DescriptorProto13IsInitializedEv
qla:__ZN6google8protobuf8internal21RepeatedFieldAccessorD2Ev
eM:__ZNK6google8protobuf28UninterpretedOption_NamePart11GetMetadataEv
jj:__ZN6google8protobuf8internal10WireFormat38SerializeMessageSetItemWithCachedSizesEPKNS0_15FieldDescriptorERKNS0_7MessageEPNS0_2io17CodedOutputStreamE
Ku:__ZNSt3__212basic_stringIcNS_11char_traitsIcEENS_9allocatorIcEEE6assignINS_11__wrap_iterIPcEEEENS_9enable_ifIXaasr21__is_forward_iteratorIT_EE5valuesr38__libcpp_string_gets_noexcept_iteratorISB_EE5valueERS5_E4typeESB_SB_
df:__ZN6google8protobuf60protobuf_ShutdownFile_google_2fprotobuf_2fdescriptor_2eprotoEv
Cga:__ZN6google8protobuf6MethodD0Ev
rw:__ZNK6google8protobuf8internal23RepeatedPtrFieldWrapperINSt3__212basic_stringIcNS3_11char_traitsIcEENS3_9allocatorIcEEEEE3AddEPvPKv
U0:__ZNK14chrome_lang_id5Token3tagEv
E6:__ZN14chrome_lang_id8TaskSpec13add_parameterEv
OD:__ZNSt3__214__split_bufferIN14chrome_lang_id22NNetLanguageIdentifier6ResultERNS_9allocatorIS3_EEEC2EjjS6_
UH:__ZNSt3__26vectorIfNS_9allocatorIfEEE8allocateEj
zM:__ZNK6google8protobuf21MethodDescriptorProto11GetMetadataEv
kr:__ZN6google8protobuf8internal12_GLOBAL__N_1L34ReportReflectionUsageEnumTypeErrorEPKNS0_10DescriptorEPKNS0_15FieldDescriptorEPKcPKNS0_19EnumValueDescriptorE
E2:___lctrans_impl
Jba:__ZNK6google8protobuf6Option3NewEv
Pha:__ZN6google8protobuf4EnumD0Ev
aA:__ZNSt3__26vectorIN14chrome_lang_id22NNetLanguageIdentifier6ResultENS_9allocatorIS3_EEE26__swap_out_circular_bufferERNS_14__split_bufferIS3_RS5_EE
CC:__ZNSt3__212__hash_tableINS_17__hash_value_typeINS_12basic_stringIcNS_11char_traitsIcEENS_9allocatorIcEEEEiEENS_22__unordered_map_hasherIS7_S8_NS_4hashIS7_EELb1EEENS_21__unordered_map_equalIS7_S8_NS_8equal_toIS7_EELb1EEENS5_IS8_EEE21__construct_node_hashIRKNS_21piecewise_construct_tEJNS_5tupleIJRKS7_EEENSN_IJEEEEEENS_10unique_ptrINS_11__hash_nodeIS8_PvEENS_22__hash_node_destructorINS5_ISV_EEEEEEjOT_DpOT0_
eda:__ZNK6google8protobuf8internal20RepeatedFieldWrapperIxE5ClearEPv
lz:__ZN6google8protobuf14SourceCodeInfoD2Ev
dk:__ZN6google8protobuf10TextFormat6Parser14MergeUsingImplEPNS0_2io19ZeroCopyInputStreamEPNS0_7MessageEPNS2_10ParserImplE
via:__ZNK6google8protobuf11DoubleValue13GetCachedSizeEv
vm:__ZNK14chrome_lang_id8TaskSpec24SerializeWithCachedSizesEPN6google8protobuf2io17CodedOutputStreamE
wx:__ZNK6google8protobuf14SourceCodeInfo39InternalSerializeWithCachedSizesToArrayEbPh
MB:__ZNK6google8protobuf8internal12ExtensionSet8GetInt64Eix
tha:__ZNK14chrome_lang_id14TaskInput_Part17has_record_formatEv
eU:__ZN14chrome_lang_id25FeatureFunctionDescriptor22mutable_unknown_fieldsEv
GU:__ZN14chrome_lang_id18TaskSpec_Parameter22mutable_unknown_fieldsEv
qb:ClassHandle_isDeleted
Aja:__ZN12_GLOBAL__N_1L14register_floatIdEEvPKc
ZC:__ZN6google8protobuf11EnumOptions5ClearEv
H1:__ZN14chrome_lang_id4CLD217UNALIGNED_STORE32EPvj
nP:__ZNK6google8protobuf8internal12MapEntryLiteINSt3__212basic_stringIcNS3_11char_traitsIcEENS3_9allocatorIcEEEENS0_5ValueELNS1_14WireFormatLite9FieldTypeE9ELSC_11ELi0EE3NewEv
nR:__ZN6google8protobuf11FileOptions16default_instanceEv
bka:__ZNK6google8protobuf3Any13GetCachedSizeEv
rca:__ZNK6google8protobuf22ServiceDescriptorProto13SetCachedSizeEi
_e:__ZN14chrome_lang_id16EmbeddingNetworkC2EPKNS_22EmbeddingNetworkParamsE
fM:__ZNK6google8protobuf28GeneratedCodeInfo_Annotation11GetMetadataEv
Tt:__ZNSt3__26vectorIPN14chrome_lang_id9WorkspaceENS_9allocatorIS3_EEE8__appendEj
Ns:__ZN6google8protobuf18InsertIfNotPresentINSt3__23mapINS2_12basic_stringIcNS2_11char_traitsIcEENS2_9allocatorIcEEEENS2_4pairIPKviEENS2_4lessIS9_EENS7_INSA_IKS9_SD_EEEEEEEEbPT_RKNSK_10value_typeE
bs:__ZN14chrome_lang_id5ToFMLERKNS_25FeatureFunctionDescriptorEPNSt3__212basic_stringIcNS3_11char_traitsIcEENS3_9allocatorIcEEEE
UZ:__ZNK6google8protobuf9BoolValue8GetArenaEv
Haa:__ZNK6google8protobuf8internal20RepeatedFieldWrapperIiE7IsEmptyEPKv
$G:__ZN6google8protobuf17GeneratedCodeInfoC2Ev
dda:__ZNK6google8protobuf8internal20RepeatedFieldWrapperIyE5ClearEPv
K2:__ZN6google8protobuf5Arena3OwnINS0_14ServiceOptionsEEEvPT_
lH:__ZNKSt3__212basic_stringIcNS_11char_traitsIcEENS_9allocatorIcEEE5rfindEcj
IM:__ZNSt3__213unordered_mapINS_10type_indexENS_6vectorIPN14chrome_lang_id9WorkspaceENS_9allocatorIS5_EEEENS_4hashIS1_EENS_8equal_toIS1_EENS6_INS_4pairIKS1_S8_EEEEED2Ev
tr:__ZNSt3__212__hash_tableINS_17__hash_value_typeINS_4pairIPKvPKcEEPKN6google8protobuf15FieldDescriptorEEENS_22__unordered_map_hasherIS7_SD_NS9_12_GLOBAL__N_121PointerStringPairHashELb1EEENS_21__unordered_map_equalIS7_SD_NSF_22PointerStringPairEqualELb1EEENS_9allocatorISD_EEE6rehashEj
ru:__ZN6google8protobuf9EnumValue9MergeFromERKNS0_7MessageE
vq:__ZN6google8protobuf2io16CodedInputStream26ReadLittleEndian64FallbackEPy
_o:__ZN6google8protobuf13RepeatedFieldIyE4SwapEPS2_
ou:__ZNK6google8protobuf8internal12ExtensionSet16GetRepeatedInt64Eii
BO:__ZNK6google8protobuf3Api11GetMetadataEv
AC:__ZNK6google8protobuf9FieldMask12ByteSizeLongEv
tG:___toread
Uf:__ZN6google8protobuf17DescriptorBuilder16ValidateMapEntryEPNS0_15FieldDescriptorERKNS0_20FieldDescriptorProtoE
mja:__ZN14chrome_lang_id16lang_id_bit_castIfiEET_RKT0_
Sr:__ZN6google8protobuf18InsertIfNotPresentINSt3__23mapINS2_4pairINS2_12basic_stringIcNS2_11char_traitsIcEENS2_9allocatorIcEEEEiEENS4_IPKviEENS2_4lessISB_EENS8_INS4_IKSB_SE_EEEEEEEEbPT_RKNSL_10value_typeE
Tla:__ZN6google8protobuf8internal12ToCachedSizeEj
D7:__ZNK6google8protobuf8internal31RepeatedPtrFieldMessageAccessor12ConvertFromTERKNS0_7MessageEPv
Tha:__ZNK6google8protobuf8Duration20GetMaybeArenaPointerEv
Jl:__ZN6google8protobuf10FloatValue27MergePartialFromCodedStreamEPNS0_2io16CodedInputStreamE
Cj:__ZN6google8protobuf59protobuf_InitDefaults_google_2fprotobuf_2ftype_2eproto_implEv
IX:__ZNK6google8protobuf11FileOptions3NewEPNS0_5ArenaE
wy:__ZN6google8protobuf8internal18GenericTypeHandlerINS0_28UninterpretedOption_NamePartEE5MergeERKS3_PS3_
Aca:__ZNK6google8protobuf21MethodDescriptorProto13SetCachedSizeEi
fda:__ZNK6google8protobuf8internal20RepeatedFieldWrapperIjE5ClearEPv
vx:__ZN6google8protobuf8internal20RepeatedPtrFieldBase18MergeFromInnerLoopINS0_16RepeatedPtrFieldIN14chrome_lang_id14TaskInput_PartEE11TypeHandlerEEEvPPvSA_ii
iF:__ZN14chrome_lang_id4CLD212_GLOBAL__N_115BackscanToSpaceEPKci
fq:__ZN6google8protobuf10TextFormat6Parser10ParserImpl22ConsumeUnsignedIntegerEPyy
tt:__ZNSt3__26vectorIN6google8protobuf12UnknownFieldENS_9allocatorIS3_EEE21__push_back_slow_pathIKS3_EEvRT_
IC:__ZNSt3__26__treeIPNS_12basic_stringIcNS_11char_traitsIcEENS_9allocatorIcEEEEN6google8protobuf3MapIS6_NS9_5ValueEE8InnerMap10KeyCompareENSC_12MapAllocatorIS7_EEE7destroyEPNS_11__tree_nodeIS7_PvEE
Ina:b7
H_:__ZNK14chrome_lang_id14TaskInput_Part12file_patternEv
zu:__ZNK6google8protobuf6MapKey13GetInt64ValueEv
Gu:__ZN6google8protobuf8internal12ExtensionSet16SetRepeatedInt32Eiii
CG:__ZN14chrome_lang_id8Sentence10SharedCtorEv
ll:__ZNSt3__218__insertion_sort_3IRN6google8protobuf8internal19CompareByDerefFirstIPKNS2_7MapPairINS_12basic_stringIcNS_11char_traitsIcEENS_9allocatorIcEEEENS2_5ValueEEEEEPSF_EEvT0_SJ_T_
Gia:__ZNK14chrome_lang_id18TaskSpec_Parameter9has_valueEv
pz:__ZN6google8protobuf14ServiceOptions9MergeFromERKNS0_7MessageE
E9:__ZN10emscripten8internal11BindingTypeIOiE12fromWireTypeEi
R_:__ZN10emscripten8internal14raw_destructorIN14chrome_lang_id22NNetLanguageIdentifier6ResultEEEvPT_
mia:b2
vl:__ZN6google8protobuf13FindPtrOrNullINS0_8hash_mapINSt3__24pairIPKvPKcEEPKNS0_15FieldDescriptorENS0_12_GLOBAL__N_121PointerStringPairHashENSD_22PointerStringPairEqualENS3_9allocatorINS4_IKS9_SC_EEEEEEEENT_10value_type11second_typeERKSL_RKNSL_10value_type10first_typeE
fW:__ZN6google8protobuf12OneofOptions8CopyFromERKNS0_7MessageE
br:__ZNSt3__213unordered_mapINS_12basic_stringIcNS_11char_traitsIcEENS_9allocatorIcEEEEPN6google8protobuf7MapPairIS6_NS8_5ValueEEENS8_4hashIS6_EENS_8equal_toIS6_EENS8_3MapIS6_SA_E12MapAllocatorINS_4pairIKS6_SC_EEEEEixERSL_
PH:__ZN6google8protobuf10Int64Value9MergeFromERKNS0_7MessageE
TO:__ZN6google8protobuf20NewPermanentCallbackIPNSt3__212basic_stringIcNS2_11char_traitsIcEENS2_9allocatorIcEEEEPN14chrome_lang_id8TaskSpecEEEPNS0_14ResultCallbackIT_EEPFSE_T0_ESH_
KJ:__ZNK10__cxxabiv122__base_class_type_info16search_above_dstEPNS_19__dynamic_cast_infoEPKvS4_ib
yma:__ZNK6google8protobuf6Option13IsInitializedEv
mu:__ZNK6google8protobuf28UninterpretedOption_NamePart12ByteSizeLongEv
efa:__ZNKSt3__26vectorINS_12basic_stringIcNS_11char_traitsIcEENS_9allocatorIcEEEENS4_IS6_EEE8max_sizeEv
d:HEAPU8
fy:__ZNK14chrome_lang_id22NNetLanguageIdentifier15GetLanguageNameEi
nZ:__ZN10emscripten8internal18GenericBindingTypeIN14chrome_lang_id22NNetLanguageIdentifier6ResultEE10toWireTypeEOS4_
sla:__ZN10__cxxabiv120__si_class_type_infoD0Ev
GO:__ZN6google8protobuf8internal26FunctionResultCallback_1_0IPNSt3__212basic_stringIcNS3_11char_traitsIcEENS3_9allocatorIcEEEEPN14chrome_lang_id9TaskInputEE3RunEv
J2:__ZN6google8protobuf5Arena3OwnINS0_14SourceCodeInfoEEEvPT_
yv:__ZN14chrome_lang_id22NNetLanguageIdentifier27SelectTextGivenBeginAndSizeEPKci
Ema:__ZNK6google8protobuf5Value13IsInitializedEv
Wga:__ZN12_GLOBAL__N_1L20register_memory_viewIfEEvPKc
_7:__ZNK6google8protobuf8internal20RepeatedFieldWrapperIfE10RemoveLastEPv
T0:__ZNK6google8protobuf30DescriptorProto_ExtensionRange31SerializeWithCachedSizesToArrayEPh
Qx:__ZNK6google8protobuf24EnumValueDescriptorProto24SerializeWithCachedSizesEPNS0_2io17CodedOutputStreamE
Yla:_strerror
Hj:__ZN14chrome_lang_id13ToFMLFunctionERKNS_25FeatureFunctionDescriptorEPNSt3__212basic_stringIcNS3_11char_traitsIcEENS3_9allocatorIcEEEE
v7:__ZN6google8protobuf16RepeatedPtrFieldIN14chrome_lang_id14TaskInput_PartEEC2Ev
oea:__ZN12_GLOBAL__N_1L20register_memory_viewIhEEvPKc
TQ:__ZNKSt3__24hashINS_12basic_stringIcNS_11char_traitsIcEENS_9allocatorIcEEEEEclERKS6_
Nq:__ZNSt3__212__hash_tableINS_17__hash_value_typeINS_4pairIPKN6google8protobuf14EnumDescriptorEiEEPKNS4_19EnumValueDescriptorEEENS_22__unordered_map_hasherIS8_SC_NS4_12_GLOBAL__N_122PointerIntegerPairHashIS8_EELb1EEENS_21__unordered_map_equalIS8_SC_NS_8equal_toIS8_EELb1EEENS_9allocatorISC_EEE6rehashEj
ZN:__ZN6google8protobuf4Type9MergeFromERKNS0_7MessageE
ska:__ZNK14chrome_lang_id9Parameter8has_nameEv
EK:__ZNK6google8protobuf11MessageLite17SerializeToStringEPNSt3__212basic_stringIcNS2_11char_traitsIcEENS2_9allocatorIcEEEE
UF:__ZN14chrome_lang_id29ContinuousBagOfNgramsFunction4InitEPNS_11TaskContextE
rL:__ZNK6google8protobuf8internal12MapFieldLiteINSt3__212basic_stringIcNS3_11char_traitsIcEENS3_9allocatorIcEEEENS0_5ValueELNS1_14WireFormatLite9FieldTypeE9ELSC_11ELi0EE4sizeEv
PT:__ZN14chrome_lang_id22GenericFeatureFunctionD2Ev
O7:__ZNK6google8protobuf30DescriptorProto_ExtensionRange3NewEv
DZ:__ZNSt3__26vectorINS_4pairINS_12basic_stringIcNS_11char_traitsIcEENS_9allocatorIcEEEEfEENS5_IS8_EEED2Ev
jH:__ZN14chrome_lang_id8Sentence10SharedDtorEv
WH:__ZN6google8protobuf12_GLOBAL__N_122protobuf_RegisterTypesERKNSt3__212basic_stringIcNS2_11char_traitsIcEENS2_9allocatorIcEEEE_995
FD:__ZNSt3__212__hash_tableINS_17__hash_value_typeINS_10type_indexENS_6vectorIPN14chrome_lang_id9WorkspaceENS_9allocatorIS6_EEEEEENS_22__unordered_map_hasherIS2_SA_NS_4hashIS2_EELb1EEENS_21__unordered_map_equalIS2_SA_NS_8equal_toIS2_EELb1EEENS7_ISA_EEED2Ev
h3:__ZN6google8protobuf8internal26FunctionResultCallback_1_0IPNSt3__212basic_stringIcNS3_11char_traitsIcEENS3_9allocatorIcEEEEPN14chrome_lang_id10TaskOutputEED0Ev
DC:__ZNK6google8protobuf7Message13SetCachedSizeEi
GD:__ZNK6google8protobuf8internal12ExtensionSet3HasEi
Hla:___getTypeName
g$:__ZN6google8protobuf8internal21arena_destruct_objectINSt3__212basic_stringIcNS3_11char_traitsIcEENS3_9allocatorIcEEEEEEvPv
jL:__ZN6google8protobuf21MethodDescriptorProto9MergeFromERKNS0_7MessageE
VS:__ZN6google8protobuf8internal12MapFieldLiteINSt3__212basic_stringIcNS3_11char_traitsIcEENS3_9allocatorIcEEEENS0_5ValueELNS1_14WireFormatLite9FieldTypeE9ELSC_11ELi0EE5ClearEv
e2:__ZNK6google8protobuf20OneofDescriptorProto31SerializeWithCachedSizesToArrayEPh
KO:__ZN14chrome_lang_id16FeatureExtractorINS_8SentenceEJEE17RequestWorkspacesEPNS_17WorkspaceRegistryE
Zo:__ZNK6google8protobuf10TextFormat17FieldValuePrinter14PrintFieldNameERKNS0_7MessageEPKNS0_10ReflectionEPKNS0_15FieldDescriptorE
u3:__ZNK6google8protobuf12FieldOptions31SerializeWithCachedSizesToArrayEPh
Ju:__ZN6google8protobuf8internal12ExtensionSet16SetRepeatedFloatEiif
c3:__ZN6google8protobuf5Arena3OwnINS0_12FieldOptionsEEEvPT_
Ifa:__ZNK6google8protobuf24EnumValueDescriptorProto13GetCachedSizeEv
Pn:__ZNK6google8protobuf8internal26GeneratedMessageReflection17GetRepeatedDoubleERKNS0_7MessageEPKNS0_15FieldDescriptorEi
Kda:__ZN14chrome_lang_id9GetScriptEPKci
tU:__ZN10emscripten8internal10getContextIMNSt3__26vectorIN14chrome_lang_id22NNetLanguageIdentifier6ResultENS2_9allocatorIS6_EEEEKFjvEEEPT_RKSC_
oK:__ZNSt3__213unordered_mapINS_10type_indexENS_6vectorINS_12basic_stringIcNS_11char_traitsIcEENS_9allocatorIcEEEENS6_IS8_EEEENS_4hashIS1_EENS_8equal_toIS1_EENS6_INS_4pairIKS1_SA_EEEEED2Ev
uc:FUNCTION_TABLE_ii
mba:__ZNK14chrome_lang_id9TaskInput3NewEv
Ux:__ZN6google8protobuf11EnumOptions8CopyFromERKS1_
Vo:__ZN14chrome_lang_id5utils12GetUTF8CharsERKNSt3__212basic_stringIcNS1_11char_traitsIcEENS1_9allocatorIcEEEEPNS1_6vectorIS7_NS5_IS7_EEEE
zw:___fwritex
LQ:__ZNSt3__214__split_bufferIiRNS_9allocatorIiEEED2Ev
FW:__ZNK6google8protobuf14EnumDescriptor34FindValueByNumberCreatingIfUnknownEi
pja:_isalnum
Hi:__ZN6google8protobuf8internal12ExtensionSet10AddMessageEihRKNS0_11MessageLiteEPKNS0_15FieldDescriptorE
vca:__ZN14chrome_lang_id9TaskInput15set_has_creatorEv
oa:invoke_diiii
Aea:__ZNK6google8protobuf11EnumOptions13SetCachedSizeEi
P$:__ZN10__cxxabiv112_GLOBAL__N_110construct_Ev
ta:get_first_emval
r7:__ZNK6google8protobuf10FloatValue12ByteSizeLongEv
J$:__ZNSt3__26vectorIN14chrome_lang_id16EmbeddingNetwork13VectorWrapperENS_9allocatorIS3_EEED2Ev
Kf:__ZN6google8protobuf10TextFormat6Parser10ParserImpl17ConsumeAnyTypeUrlEPNSt3__212basic_stringIcNS4_11char_traitsIcEENS4_9allocatorIcEEEESB_
z_:__ZN6google8protobuf16RepeatedPtrFieldIN14chrome_lang_id9TaskInputEE5ClearEv
eE:__ZNSt3__214__split_bufferIN14chrome_lang_id13FeatureVector7ElementERNS_9allocatorIS3_EEEC2EjjS6_
uT:__ZN6google8protobuf5Arena3OwnINS0_8internal8MapEntryINSt3__212basic_stringIcNS5_11char_traitsIcEENS5_9allocatorIcEEEENS0_5ValueELNS3_14WireFormatLite9FieldTypeE9ELSE_11ELi0EEEEEvPT_
Y9:__ZNK6google8protobuf8internal30RepeatedFieldPrimitiveAccessorIfE10ConvertToTEPKv
y1:__ZN6google8protobuf5Arena13OwnDestructorINS0_11MapValueRefEEEvPT_
hK:___stdio_seek
lG:__ZNK6google8protobuf8internal30RepeatedFieldPrimitiveAccessorIfE4SwapEPvPKNS1_21RepeatedFieldAccessorES4_
EG:__ZN6google8protobuf2io16ArrayInputStream4NextEPPKvPi
Xh:__ZNSt3__27__sort3IRN6google8protobuf12_GLOBAL__N_116FieldIndexSorterEPPKNS2_15FieldDescriptorEEEjT0_SA_SA_T_
Q3:__ZN6google8protobuf16RepeatedPtrFieldINSt3__212basic_stringIcNS2_11char_traitsIcEENS2_9allocatorIcEEEEEC2Ev
Jz:__ZNK14chrome_lang_id26FeatureExtractorDescriptor24SerializeWithCachedSizesEPN6google8protobuf2io17CodedOutputStreamE
l_:__ZNSt3__211char_traitsIcE4findEPKcjRS2_
J1:__ZNK6google8protobuf23SourceCodeInfo_Location31SerializeWithCachedSizesToArrayEPh
Z5:__ZN6google8protobuf8internal21arena_destruct_objectINS0_28GeneratedCodeInfo_AnnotationEEEvPv
Af:__ZN6google8protobuf8internal15DynamicMapField22InsertOrLookupMapValueERKNS0_6MapKeyEPNS0_11MapValueRefE
V0:__ZN6google8protobuf8internal26FunctionResultCallback_1_0IPNSt3__212basic_stringIcNS3_11char_traitsIcEENS3_9allocatorIcEEEEPN14chrome_lang_id26FeatureExtractorDescriptorEED0Ev
BW:__ZN6google8protobuf10FloatValue8CopyFromERKNS0_7MessageE
vS:__ZNK14chrome_lang_id25FeatureFunctionDescriptor3NewEPN6google8protobuf5ArenaE
gt:__ZN6google8protobuf8internal20RepeatedPtrFieldBase3AddINS0_16RepeatedPtrFieldIN14chrome_lang_id25FeatureFunctionDescriptorEE11TypeHandlerEEEPNT_4TypeESB_
EQ:__ZNSt3__218__libcpp_refstringC2EPKc
HC:__ZN6google8protobuf28GeneratedCodeInfo_AnnotationD2Ev
wfa:__ZNK6google8protobuf8internal21ExplicitlyConstructedIN14chrome_lang_id18TaskSpec_ParameterEE3getEv
c2:__ZN14chrome_lang_id11StringPiece13remove_prefixEi
OK:__ZN6google8protobuf24EnumValueDescriptorProto9MergeFromERKNS0_7MessageE
lja:__ZNK14chrome_lang_id23GenericFeatureExtractor10descriptorEv
PF:__ZNK14chrome_lang_id16FeatureExtractorINS_8SentenceEJEE15ExtractFeaturesERKNS_12WorkspaceSetERKS1_PNS_13FeatureVectorE
nja:_vsprintf
Qf:__ZNSt3__26__treeINS_12__value_typeINS_12basic_stringIcNS_11char_traitsIcEENS_9allocatorIcEEEENS_4pairIPKviEEEENS_19__map_value_compareIS7_SC_NS_4lessIS7_EELb1EEENS5_ISC_EEE12__find_equalIS7_EERPNS_16__tree_node_baseIPvEENS_21__tree_const_iteratorISC_PNS_11__tree_nodeISC_SL_EEiEERPNS_15__tree_end_nodeISN_EESO_RKT_
IJ:__ZN14chrome_lang_id12_GLOBAL__N_126FindNumValidBytesToProcessERKNSt3__212basic_stringIcNS1_11char_traitsIcEENS1_9allocatorIcEEEE
Zj:__ZNSt3__27__sort4IRN6google8protobuf8internal19CompareByDerefFirstIPKNS2_7MapPairINS_12basic_stringIcNS_11char_traitsIcEENS_9allocatorIcEEEENS2_5ValueEEEEEPSF_EEjT0_SJ_SJ_SJ_T_
Q8:__ZN10emscripten8internal12GlobalAccessIfE3getEPf
cm:__ZNSt3__26__treeIPNS_12basic_stringIcNS_11char_traitsIcEENS_9allocatorIcEEEEN6google8protobuf3MapIS6_NS9_5ValueEE8InnerMap10KeyCompareENSC_12MapAllocatorIS7_EEE13__lower_boundIS7_EENS_15__tree_iteratorIS7_PNS_11__tree_nodeIS7_PvEEiEERKT_SN_PNS_15__tree_end_nodeIPNS_16__tree_node_baseISL_EEEE
jga:__ZNKSt3__26vectorIN14chrome_lang_id13FeatureVector7ElementENS_9allocatorIS3_EEE8max_sizeEv
In:__ZN6google8protobuf24EnumValueDescriptorProto15UnsafeMergeFromERKS1_
Jx:__ZN6google8protobuf8internal20RepeatedPtrFieldBase18MergeFromInnerLoopINS0_16RepeatedPtrFieldIN14chrome_lang_id10TaskOutputEE11TypeHandlerEEEvPPvSA_ii
Afa:__ZNK14chrome_lang_id25FeatureFunctionDescriptor13GetCachedSizeEv
r3:__ZNK6google8protobuf8internal16MapFieldAccessor4SizeEPKv
S8:__ZNK6google8protobuf8internal30RepeatedFieldPrimitiveAccessorIbE10ConvertToTEPKv
ad:__ZN6google8protobuf17DescriptorBuilder17OptionInterpreter21InterpretSingleOptionEPNS0_7MessageE
La:init_ClassHandle
rea:__ZNSt3__26vectorIfNS_9allocatorIfEEED2Ev
SF:__ZN14chrome_lang_id9TaskInput10SharedCtorEv
Ek:__ZN6google8protobuf8internal14WireFormatLite23WriteStringMaybeAliasedEiRKNSt3__212basic_stringIcNS3_11char_traitsIcEENS3_9allocatorIcEEEEPNS0_2io17CodedOutputStreamE
fX:__ZN6google8protobuf5Field8CopyFromERKNS0_7MessageE
ZP:__ZN6google8protobuf61protobuf_AddDesc_google_2fprotobuf_2fsource_5fcontext_2eprotoEv
j2:__ZN6google8protobuf5Arena3OwnIN14chrome_lang_id5TokenEEEvPT_
aI:__ZNK6google8protobuf10Descriptor34FindExtensionRangeContainingNumberEi
eaa:__ZN14chrome_lang_id14TaskInput_Part21set_has_record_formatEv
r8:__ZN14chrome_lang_idL31MutableUnknownFieldsForTaskSpecEPNS_8TaskSpecE
jN:__ZN6google8protobuf6Option9MergeFromERKNS0_7MessageE
MV:__ZN6google8protobuf8internal18GenericTypeHandlerINS0_6MethodEE5MergeERKS3_PS3_
hg:__ZNSt3__212__hash_tableINS_17__hash_value_typeINS_4pairIPKvPKcEEN6google8protobuf12_GLOBAL__N_16SymbolEEENS_22__unordered_map_hasherIS7_SC_NSA_21PointerStringPairHashELb1EEENS_21__unordered_map_equalIS7_SC_NSA_22PointerStringPairEqualELb1EEENS_9allocatorISC_EEE8__rehashEj
Eaa:__ZNK6google8protobuf8internal20RepeatedFieldWrapperIyE7IsEmptyEPKv
eD:__ZN10emscripten8internal15FunctionInvokerIPFbRNSt3__26vectorIN14chrome_lang_id22NNetLanguageIdentifier6ResultENS2_9allocatorIS6_EEEEjRKS6_EbSA_JjSC_EE6invokeEPSE_PS9_jPS6_
X7:__ZNK6google8protobuf8internal20RepeatedFieldWrapperIxE10RemoveLastEPv
oO:__ZNSt3__214__split_bufferIPN14chrome_lang_id15FeatureFunctionINS1_8SentenceEJEEERNS_9allocatorIS5_EEED2Ev
Dha:__ZNK6google8protobuf8internal21ExplicitlyConstructedIN14chrome_lang_id8TaskSpecEE3getEv
iia:__ZNK14chrome_lang_id16EmbeddingNetwork15EmbeddingMatrix10quant_typeEv
Qa:RegisteredClass
ay:__ZN6google8protobuf8internal20RepeatedPtrFieldBase18MergeFromInnerLoopINS0_16RepeatedPtrFieldIN14chrome_lang_id5TokenEE11TypeHandlerEEEvPPvSA_ii
Uw:__ZNSt3__2plIcNS_11char_traitsIcEENS_9allocatorIcEEEENS_12basic_stringIT_T0_T1_EERKS9_PKS6_
qha:__ZNK6google8protobuf8internal21ExplicitlyConstructedIN14chrome_lang_id9ParameterEE3getEv
fE:__ZNK6google8protobuf8internal12MapEntryLiteINSt3__212basic_stringIcNS3_11char_traitsIcEENS3_9allocatorIcEEEENS0_5ValueELNS1_14WireFormatLite9FieldTypeE9ELSC_11ELi0EE24SerializeWithCachedSizesEPNS0_2io17CodedOutputStreamE
ne:__ZNK6google8protobuf14DescriptorPool29TryFindFileInFallbackDatabaseERKNSt3__212basic_stringIcNS2_11char_traitsIcEENS2_9allocatorIcEEEE
f_:__ZN14chrome_lang_id25EmbeddingFeatureExtractorINS_16FeatureExtractorINS_8SentenceEJEEES2_JEED0Ev
sL:__ZN6google8protobuf19UninterpretedOption9MergeFromERKNS0_7MessageE
U7:__ZNK6google8protobuf8internal33RandomAccessRepeatedFieldAccessor15AdvanceIteratorEPKvPv
Rea:__ZN10emscripten8internal13getActualTypeIN14chrome_lang_id22NNetLanguageIdentifierEEEPKvPT_
xe:__ZN14chrome_lang_id8TaskSpec27MergePartialFromCodedStreamEPN6google8protobuf2io16CodedInputStreamE
yW:__ZN6google8protobuf8internal29CodedOutputStreamFieldSkipper11SkipMessageEPNS0_2io16CodedInputStreamE
T2:__ZN6google8protobuf8internal18GenericTypeHandlerINS0_5MixinEE16NewFromPrototypeEPKS3_PNS0_5ArenaE
W4:__ZNK6google8protobuf4Type31SerializeWithCachedSizesToArrayEPh
Fm:__ZNK6google8protobuf8internal26GeneratedMessageReflection14ContainsMapKeyERKNS0_7MessageEPKNS0_15FieldDescriptorERKNS0_6MapKeyE
f5:__ZN14chrome_lang_id4CLD29IsSpecialEc
R9:__ZN10emscripten8internal18GenericBindingTypeIN14chrome_lang_id22NNetLanguageIdentifier6ResultEE12fromWireTypeEPS4_
Wba:__ZNK6google8protobuf5Value3NewEv
fa:invoke_ii
Zca:__ZN14chrome_lang_id9TaskInput12set_has_nameEv
$f:__ZNK6google8protobuf3Api39InternalSerializeWithCachedSizesToArrayEbPh
lU:__ZN6google8protobuf2io17ArrayOutputStreamC2EPvii
OG:__ZN6google8protobuf3Any5ClearEv
Wda:__ZNK6google8protobuf14DynamicMessage13SetCachedSizeEi
dE:__ZN6google8protobuf8internal12MapFieldBaseD2Ev
cq:__ZNSt3__26vectorIN14chrome_lang_id16EmbeddingNetwork15EmbeddingMatrixENS_9allocatorIS3_EEE24__emplace_back_slow_pathIJNS1_22EmbeddingNetworkParams6MatrixEEEEvDpOT_
kM:__ZNK14chrome_lang_id25EmbeddingFeatureExtractorINS_16FeatureExtractorINS_8SentenceEJEEES2_JEE10PreprocessEPNS_12WorkspaceSetEPS2_
tu:__ZNSt3__26vectorIPN14chrome_lang_id15FeatureFunctionINS1_8SentenceEJEEENS_9allocatorIS5_EEE21__push_back_slow_pathIRKS5_EEvOT_
Pv:__ZNSt3__26vectorIPKcNS_9allocatorIS2_EEE21__push_back_slow_pathIKS2_EEvRT_
BF:__ZN6google8protobuf58protobuf_AddDesc_google_2fprotobuf_2fwrappers_2eproto_implEv
L5:__ZN6google8protobuf8internal20RepeatedPtrFieldBase4castINS0_16RepeatedPtrFieldIN14chrome_lang_id18TaskSpec_ParameterEE11TypeHandlerEEEPNT_4TypeEPv
FE:__ZN6google8protobuf11EnumOptionsC2Ev
EI:__ZN14chrome_lang_id16EmbeddingNetworkD2Ev
At:__ZN6google8protobuf3MapINSt3__212basic_stringIcNS2_11char_traitsIcEENS2_9allocatorIcEEEENS0_5ValueEEixERKS8_
tj:__ZNK6google8protobuf8internal26GeneratedMessageReflection19AddAllocatedMessageEPNS0_7MessageEPKNS0_15FieldDescriptorES4_
Sn:__ZNSt3__26__treeINS_12basic_stringIcNS_11char_traitsIcEENS_9allocatorIcEEEENS_4lessIS6_EENS4_IS6_EEE12__find_equalIS6_EERPNS_16__tree_node_baseIPvEERPNS_15__tree_end_nodeISF_EERKT_
bp:__ZN6google8protobuf13RepeatedFieldIiE4SwapEPS2_
qg:__ZN6google8protobuf17DescriptorBuilder19AllocateOptionsImplINS0_16MethodDescriptorEEEvRKNSt3__212basic_stringIcNS4_11char_traitsIcEENS4_9allocatorIcEEEESC_RKNT_11OptionsTypeEPSD_
ag:__ZN6google8protobuf17DescriptorBuilder22ValidateMessageOptionsEPNS0_10DescriptorERKNS0_15DescriptorProtoE
da:invoke_vii
Gea:__ZNKSt11logic_error4whatEv
zka:__GLOBAL__sub_I_message_cc
ty:__ZN6google8protobuf8internal14WireFormatLite11WriteSInt64EixPNS0_2io17CodedOutputStreamE
waa:__ZNK6google8protobuf11FileOptions3NewEv
bk:__ZNK6google8protobuf20FieldDescriptorProto24SerializeWithCachedSizesEPNS0_2io17CodedOutputStreamE
bu:__ZN6google8protobuf2io16CodedInputStream22ReadLengthAndPushLimitEv
q0:__ZNK14chrome_lang_id9Parameter4nameEv
YB:__ZN6google8protobuf2io17CodedOutputStream26WriteStringWithSizeToArrayERKNSt3__212basic_stringIcNS3_11char_traitsIcEENS3_9allocatorIcEEEEPh
Pia:__ZN14chrome_lang_id22EmbeddingNetworkParamsC2Ev
ZA:__ZNK14chrome_lang_id11TaskContext3GetERKNSt3__212basic_stringIcNS1_11char_traitsIcEENS1_9allocatorIcEEEEb
oF:__ZNK14chrome_lang_id9TaskInput11GetTypeNameEv
Zaa:__ZNK14chrome_lang_id14LangIdNNParams19hidden_bias_weightsEi
hQ:__ZN6google8protobuf21DynamicMessageFactoryC2Ev
se:___intscan
Ok:__ZNSt3__218__insertion_sort_3IRPFbRKNS_4pairINS_12basic_stringIcNS_11char_traitsIcEENS_9allocatorIcEEEEfEESA_EPS8_EEvT0_SF_T_
GI:__ZNK6google8protobuf8internal8MapFieldINSt3__212basic_stringIcNS3_11char_traitsIcEENS3_9allocatorIcEEEENS0_5ValueELNS1_14WireFormatLite9FieldTypeE9ELSC_11ELi0EE4sizeEv
u1:__ZN6google8protobuf5Arena3OwnINS0_23SourceCodeInfo_LocationEEEvPT_
n8:dynCall_viiid
iS:__ZN6google8protobuf55protobuf_ShutdownFile_google_2fprotobuf_2fempty_2eprotoEv
ok:__ZN6google8protobuf21DynamicMessageFactory29ConstructDefaultOneofInstanceEPKNS0_10DescriptorEPKiPv
nb:ClassHandle_deleteLater
wi:__ZN6google8protobuf8internal12ExtensionSet8AddFloatEihbfPKNS0_15FieldDescriptorE
ob:_sched_yield
iV:__ZNK10__cxxabiv117__class_type_info29process_static_type_below_dstEPNS_19__dynamic_cast_infoEPKvi
UJ:__ZN6google8protobuf6OptionC2Ev
sd:__ZN6google8protobuf8internal12ExtensionSet13SwapExtensionEPS2_i
tJ:__ZN6google8protobuf5Arena18CreateMaybeMessageIN14chrome_lang_id25FeatureFunctionDescriptorEEEPT_PS1_z
ZH:__ZN6google8protobuf12_GLOBAL__N_122protobuf_RegisterTypesERKNSt3__212basic_stringIcNS2_11char_traitsIcEENS2_9allocatorIcEEEE_549
nI:__ZNK6google8protobuf14EnumDescriptor15FindValueByNameERKNSt3__212basic_stringIcNS2_11char_traitsIcEENS2_9allocatorIcEEEE
Tz:__ZNK6google8protobuf15UnknownFieldSet22SpaceUsedExcludingSelfEv
sS:__ZN10emscripten8internal7InvokerIPNSt3__26vectorIN14chrome_lang_id22NNetLanguageIdentifier6ResultENS2_9allocatorIS6_EEEEJEE6invokeEPFSA_vE
SN:__ZN14chrome_lang_id18TaskSpec_Parameter9set_valueERKNSt3__212basic_stringIcNS1_11char_traitsIcEENS1_9allocatorIcEEEE
Vca:__ZNK6google8protobuf19UninterpretedOption13SetCachedSizeEi
ew:__ZN6google8protobuf8internal20RepeatedPtrFieldBase7MutableINS0_16RepeatedPtrFieldIN14chrome_lang_id18TaskSpec_ParameterEE11TypeHandlerEEEPNT_4TypeEi
m7:dynCall_viiii
z:tempRet0
tR:__ZNK6google8protobuf8internal23RepeatedPtrFieldWrapperINS0_7MessageEE10RemoveLastEPv
Ey:__ZNK14chrome_lang_id9Parameter12ByteSizeLongEv
fe:__ZN6google8protobuf8internal12MapEntryLiteINSt3__212basic_stringIcNS3_11char_traitsIcEENS3_9allocatorIcEEEENS0_5ValueELNS1_14WireFormatLite9FieldTypeE9ELSC_11ELi0EE6ParserINS1_8MapFieldIS9_SA_LSC_9ELSC_11ELi0EEENS0_3MapIS9_SA_EEE27MergePartialFromCodedStreamEPNS0_2io16CodedInputStreamE
R5:__ZN6google8protobuf8internal9SingletonINS1_30RepeatedFieldPrimitiveAccessorIxEEE4InitEv
x4:__ZN14chrome_lang_idL41MutableUnknownFieldsForTaskSpec_ParameterEPNS_18TaskSpec_ParameterE
O2:__ZNK6google8protobuf16RepeatedPtrFieldIN14chrome_lang_id18TaskSpec_ParameterEE4sizeEv
Ao:__ZN14chrome_lang_id4CLD213ScriptScanner17SkipToFrontOfSpanEPKciPi
hH:__ZN14chrome_lang_id9TaskInput10SharedDtorEv
lv:__ZNK6google8protobuf8internal20RepeatedPtrFieldBase3GetINS0_16RepeatedPtrFieldINSt3__212basic_stringIcNS5_11char_traitsIcEENS5_9allocatorIcEEEEE11TypeHandlerEEERKNT_4TypeEi
vw:__ZNK6google8protobuf8internal20RepeatedPtrFieldBase3GetINS0_16RepeatedPtrFieldIN14chrome_lang_id10TaskOutputEE11TypeHandlerEEERKNT_4TypeEi
a2:__ZN6google8protobuf8internal20RepeatedPtrFieldBase4castINS0_16RepeatedPtrFieldINSt3__212basic_stringIcNS5_11char_traitsIcEENS5_9allocatorIcEEEEE11TypeHandlerEEEPNT_4TypeEPv
MZ:__ZN6google8protobuf8internal18GenericTypeHandlerIN14chrome_lang_id9ParameterEE16NewFromPrototypeEPKS4_PNS0_5ArenaE
Xx:__ZNK6google8protobuf14ServiceOptions24SerializeWithCachedSizesEPNS0_2io17CodedOutputStreamE
mH:__ZN14chrome_lang_id8TaskSpec10SharedDtorEv
Su:__ZNK6google8protobuf8internal26GeneratedMessageReflection7MapDataEPNS0_7MessageEPKNS0_15FieldDescriptorE
V8:__ZN6google8protobuf8Duration5ClearEv
RE:__ZN6google8protobuf28UninterpretedOption_NamePartD2Ev
Is:__ZNK6google8protobuf8internal26GeneratedMessageReflection9SetDoubleEPNS0_7MessageEPKNS0_15FieldDescriptorEd
cp:__ZN6google8protobuf13RepeatedFieldIfE4SwapEPS2_
Zy:__ZN6google8protobuf17DescriptorBuilder19AddTwiceListedErrorERKNS0_19FileDescriptorProtoEi
v5:__ZNK6google8protobuf8internal30RepeatedFieldPrimitiveAccessorIyE10ConvertToTEPKv
wt:__ZN6google8protobuf8internal20RepeatedPtrFieldBase3AddINS0_16RepeatedPtrFieldIN14chrome_lang_id18TaskSpec_ParameterEE11TypeHandlerEEEPNT_4TypeESB_
XJ:__ZN6google8protobuf71protobuf_InitDefaults_google_2fprotobuf_2fsource_5fcontext_2eproto_implEv
ZX:__ZN6google8protobuf11FileOptions8CopyFromERKS1_
Jm:__ZN14chrome_lang_id4CLD219CheapSqueezeInplaceEPcii
Daa:__ZNK6google8protobuf8internal21ExplicitlyConstructedINSt3__212basic_stringIcNS3_11char_traitsIcEENS3_9allocatorIcEEEEE3getEv
vja:__ZNK14chrome_lang_id25FeatureFunctionDescriptor7featureEv
uj:__ZNSt3__224__buffered_inplace_mergeIRN6google8protobuf25MapEntryMessageComparatorENS_11__wrap_iterIPPKNS2_7MessageEEEEEvT0_SB_SB_T_NS_15iterator_traitsISB_E15difference_typeESF_PNSE_10value_typeE
D5:__ZN14chrome_lang_id9TaskInput14set_multi_fileEb
Kj:__ZN6google8protobuf10TextFormat6Parser10ParserImpl19ConsumeFullTypeNameEPNSt3__212basic_stringIcNS4_11char_traitsIcEENS4_9allocatorIcEEEE
_x:__ZN6google8protobuf11StringValue9MergeFromERKNS0_7MessageE
Hy:__ZN6google8protobuf15UnknownFieldSet9AddVarintEiy
cna:dynCall_i
Xj:_pop_arg
Oaa:__ZNK6google8protobuf10FloatValue3NewEv
a4:__ZN14chrome_lang_id12WorkspaceSetC2Ev
Uia:__ZNK6google8protobuf9EnumValue13GetCachedSizeEv
BG:__ZN14chrome_lang_id9Parameter10SharedCtorEv
Ax:__ZN14chrome_lang_id9Parameter5ClearEv
lm:__ZNK6google8protobuf8internal26GeneratedMessageReflection8SetFieldIbEEvPNS0_7MessageEPKNS0_15FieldDescriptorERKT_
YI:__ZNK6google8protobuf9ListValue3NewEPNS0_5ArenaE
Lw:__ZNK6google8protobuf30DescriptorProto_ExtensionRange12ByteSizeLongEv
mZ:__ZN14chrome_lang_id22NNetLanguageIdentifier5SetupEPNS_11TaskContextE
Fha:__ZNK6google8protobuf14SourceCodeInfo13GetCachedSizeEv
ZQ:__ZN6google8protobuf6Struct5ClearEv
F0:__ZNK14chrome_lang_id26FeatureExtractorDescriptor7featureEi
Gja:__ZNK14chrome_lang_id5Token13GetCachedSizeEv
_da:__ZN6google8protobuf13SourceContextD0Ev
Np:__ZN6google8protobuf15UnknownFieldSet17InternalMergeFromERKS1_
k1:__ZN6google8protobuf8internal12_GLOBAL__N_124InitEmptyUnknownFieldSetEv
FL:__ZN6google8protobuf8internal26FunctionResultCallback_1_0IPNSt3__212basic_stringIcNS3_11char_traitsIcEENS3_9allocatorIcEEEEPN14chrome_lang_id25FeatureFunctionDescriptorEEC2EPFSA_SD_EbSD_
yB:__ZNSt3__26vectorIPKN6google8protobuf15FieldDescriptorENS_9allocatorIS5_EEE7reserveEj
au:__ZN6google8protobuf8internal8MapEntryINSt3__212basic_stringIcNS3_11char_traitsIcEENS3_9allocatorIcEEEENS0_5ValueELNS1_14WireFormatLite9FieldTypeE9ELSC_11ELi0EED2Ev
gg:__ZNSt3__212__hash_tableINS_17__hash_value_typeINS_4pairIPKN6google8protobuf10DescriptorEiEEPKNS4_15FieldDescriptorEEENS_22__unordered_map_hasherIS8_SC_NS4_12_GLOBAL__N_122PointerIntegerPairHashIS8_EELb1EEENS_21__unordered_map_equalIS8_SC_NS_8equal_toIS8_EELb1EEENS_9allocatorISC_EEE8__rehashEj
Lla:__ZNK6google8protobuf11StringValue13IsInitializedEv
PV:__ZN6google8protobuf14ServiceOptions8CopyFromERKNS0_7MessageE
_d:__ZN6google8protobuf8internal14WireFormatLite9SkipFieldEPNS0_2io16CodedInputStreamEjPNS3_17CodedOutputStreamE
Qe:__ZNSt3__212__hash_tableINS_17__hash_value_typeINS_12basic_stringIcNS_11char_traitsIcEENS_9allocatorIcEEEEPN6google8protobuf7MapPairIS7_NS9_5ValueEEEEENS_22__unordered_map_hasherIS7_SE_NS9_4hashIS7_EELb1EEENS_21__unordered_map_equalIS7_SE_NS_8equal_toIS7_EELb1EEENS9_3MapIS7_SB_E12MapAllocatorISE_EEE20__node_insert_uniqueEPNS_11__hash_nodeISE_PvEE
S:abort
qG:__ZN6google8protobuf7strings10SubstituteEPKcRKNS1_8internal13SubstituteArgES7_S7_S7_S7_S7_S7_S7_S7_S7_
IN:__ZN6google8protobuf2io17CodedOutputStream13WriteVarint32Ej
ql:__ZN14chrome_lang_id5utils5SplitERKNSt3__212basic_stringIcNS1_11char_traitsIcEENS1_9allocatorIcEEEEc
NB:__ZN6google8protobuf8internal20RepeatedPtrFieldBase7DestroyINS0_16RepeatedPtrFieldIN14chrome_lang_id10TaskOutputEE11TypeHandlerEEEvv
DS:__ZNK6google8protobuf16RepeatedPtrFieldINSt3__212basic_stringIcNS2_11char_traitsIcEENS2_9allocatorIcEEEEE3GetEi
x_:__ZN6google8protobuf8internal12MapFieldLiteINSt3__212basic_stringIcNS3_11char_traitsIcEENS3_9allocatorIcEEEENS0_5ValueELNS1_14WireFormatLite9FieldTypeE9ELSC_11ELi0EE18MutableInternalMapEv
s$:__ZN6google8protobuf8internal18GenericTypeHandlerIN14chrome_lang_id25FeatureFunctionDescriptorEE5MergeERKS4_PS4_
H2:__ZNK14chrome_lang_id26FeatureExtractorDescriptor12feature_sizeEv
Im:__ZNK14chrome_lang_id8TaskSpec12ByteSizeLongEv
Yr:__ZN6google8protobuf8internal14WireFormatLite9WriteEnumEiiPNS0_2io17CodedOutputStreamE
zY:__ZN10__cxxabiv112_GLOBAL__N_19destruct_EPv
Fca:__ZN6google8protobuf11UInt64Value5ClearEv
Uga:__ZN12_GLOBAL__N_1L20register_memory_viewImEEvPKc
ps:__ZN6google8protobuf7Message9MergeFromERKS1_
Iu:__ZN6google8protobuf8internal12ExtensionSet15SetRepeatedEnumEiii
PW:__ZNK6google8protobuf24EnumValueDescriptorProto13IsInitializedEv
SL:__ZN6google8protobuf14MessageOptions9MergeFromERKNS0_7MessageE
Sla:__ZNK14chrome_lang_id11FeatureType4nameEv
fZ:__ZN6google8protobuf8internal18GenericTypeHandlerINS0_29DescriptorProto_ReservedRangeEE16NewFromPrototypeEPKS3_PNS0_5ArenaE
lP:__ZN6google8protobuf10TextFormat7PrinterC2Ev
iba:__ZNK6google8protobuf9EnumValue3NewEv
nM:__ZN6google8protobuf8DurationD2Ev
Iia:__ZN6google8protobuf8internal26GeneratedMessageReflectionD0Ev
xh:__ZNK6google8protobuf8internal12ExtensionSet9Extension22SpaceUsedExcludingSelfEv
Xfa:__ZN14chrome_lang_id22GenericFeatureFunction5SetupEPNS_11TaskContextE
Pga:__ZN6google8protobuf8internal30RepeatedFieldPrimitiveAccessorIjED0Ev
Jk:__ZN6google8protobuf8internal20RepeatedPtrFieldBase12SwapFallbackINS1_18GenericTypeHandlerINSt3__212basic_stringIcNS5_11char_traitsIcEENS5_9allocatorIcEEEEEEEEvPS2_
z9:__ZN14chrome_lang_id26FeatureExtractorDescriptorD0Ev
kL:__ZN6google8protobuf10FloatValue9MergeFromERKNS0_7MessageE
VX:__ZNK6google8protobuf8internal20RepeatedFieldWrapperIiE3GetEPKviPv
Sha:__ZNK6google8protobuf8internal12MapFieldBase30SyncMapWithRepeatedFieldNoLockEv
mM:__ZN6google8protobuf8internal18GenericTypeHandlerINS1_8MapEntryINSt3__212basic_stringIcNS4_11char_traitsIcEENS4_9allocatorIcEEEENS0_5ValueELNS1_14WireFormatLite9FieldTypeE9ELSD_11ELi0EEEE5MergeERKSE_PSE_
xna:stackRestore
p6:__ZN6google8protobuf8internal20RepeatedPtrFieldBase4castINS0_16RepeatedPtrFieldIN14chrome_lang_id14TaskInput_PartEE11TypeHandlerEEEPNT_4TypeEPv
pg:__ZN6google8protobuf19FileDescriptorProto15UnsafeMergeFromERKS1_
lA:__ZN14chrome_lang_id46protobuf_InitDefaults_task_5fspec_2eproto_implEv
qt:__ZNSt3__213unordered_mapINS_12basic_stringIcNS_11char_traitsIcEENS_9allocatorIcEEEEPKN6google8protobuf23SourceCodeInfo_LocationENS8_4hashIS6_EENS_8equal_toIS6_EENS4_INS_4pairIKS6_SB_EEEEEixERSH_
Xla:__ZN6google8protobuf11MessageLiteD0Ev
wC:__ZN6google8protobuf14ServiceOptions8CopyFromERKS1_
Ml:__ZN6google8protobuf12_GLOBAL__N_124ByteSizeConsistencyErrorEjjjRKNS0_11MessageLiteE
YU:__ZN6google8protobuf21MethodDescriptorProto8CopyFromERKNS0_7MessageE
xO:__ZNK6google8protobuf4Enum11GetMetadataEv
WT:__ZN6google8protobuf8internal18GenericTypeHandlerINS0_15DescriptorProtoEE5MergeERKS3_PS3_
bga:__ZN14chrome_lang_id5utils10OneCharLenEPKc
al:__ZN6google8protobuf4TypeD2Ev
$j:__ZN6google8protobuf8internal14WireFormatLite10WriteBytesEiRKNSt3__212basic_stringIcNS3_11char_traitsIcEENS3_9allocatorIcEEEEPNS0_2io17CodedOutputStreamE
DF:__ZN6google8protobuf13SourceContextD2Ev
wc:FUNCTION_TABLE_viii
Ff:__ZN14chrome_lang_id29ContinuousBagOfNgramsFunction5SetupEPNS_11TaskContextE
Sq:__ZN6google8protobuf20OneofDescriptorProto15UnsafeMergeFromERKS1_
zp:__ZN6google8protobuf16RepeatedPtrFieldINS0_11MessageLiteEE12AddAllocatedEPS2_
oD:__ZN6google8protobuf6Option5ClearEv
DG:__ZN6google8protobuf2io17ArrayOutputStream4NextEPPvPi
$d:__ZN6google8protobuf11EnumOptions27MergePartialFromCodedStreamEPNS0_2io16CodedInputStreamE
jha:__ZN6google8protobuf5MixinD0Ev
hi:__ZN6google8protobuf20FileDescriptorTables16AddFieldByNumberEPKNS0_15FieldDescriptorE
TB:__ZNK6google8protobuf15FieldDescriptor17GetSourceLocationEPNS0_14SourceLocationE
UY:__ZN14chrome_lang_id8Sentence9MergeFromERKS0_
xi:__ZNSt3__27__sort5IRN6google8protobuf8internal19CompareByDerefFirstIPKNS2_7MapPairINS_12basic_stringIcNS_11char_traitsIcEENS_9allocatorIcEEEENS2_5ValueEEEEEPSF_EEjT0_SJ_SJ_SJ_SJ_T_
ep:__ZN6google8protobuf13RepeatedFieldIbE4SwapEPS2_
xZ:__ZNK6google8protobuf11StringValue8GetArenaEv
Hfa:__ZNK6google8protobuf4Enum13SetCachedSizeEi
qN:__ZNK6google8protobuf11UInt32Value11GetMetadataEv
PK:__ZN6google8protobuf10BytesValueC2Ev
yE:__ZN6google8protobuf17FileDescriptorSet9MergeFromERKNS0_7MessageE
wda:__ZNK6google8protobuf8internal20RepeatedFieldWrapperIiE4SizeEPKv
fs:__ZN6google8protobuf16RepeatedPtrFieldINS0_19UninterpretedOptionEE9MergeFromERKS3_
nn:__ZNK6google8protobuf15FieldDescriptor22DebugStringWithOptionsERKNS0_18DebugStringOptionsE
G1:__ZN6google8protobuf5Arena3OwnIN14chrome_lang_id9ParameterEEEvPT_
EF:__ZNK6google8protobuf8internal12MapFieldBase30SyncRepeatedFieldWithMapNoLockEv
ml:__ZNSt3__27__sort4IRPFbRKNS_4pairINS_12basic_stringIcNS_11char_traitsIcEENS_9allocatorIcEEEEfEESA_EPS8_EEjT0_SF_SF_SF_T_
NF:__ZN6google8protobuf53protobuf_AddDesc_google_2fprotobuf_2fany_2eproto_implEv
BP:__ZN6google8protobuf5EmptyD0Ev
Dw:__ZN6google8protobuf2io17CodedOutputStream8WriteRawEPKvi
AV:__ZN6google8protobuf8internal9down_castIPKN14chrome_lang_id9ParameterEKNS0_11MessageLiteEEET_PT0_
qB:__ZNK6google8protobuf11StringValue39InternalSerializeWithCachedSizesToArrayEbPh
_h:__ZNK6google8protobuf6Method39InternalSerializeWithCachedSizesToArrayEbPh
Rc:__ZN6google8protobuf15DescriptorProto27MergePartialFromCodedStreamEPNS0_2io16CodedInputStreamE
_ca:__ZN14chrome_lang_id9Parameter12set_has_nameEv
iH:__ZN14chrome_lang_id9Parameter10SharedDtorEv
uo:__ZN6google8protobuf2io9Tokenizer10ParseFloatERKNSt3__212basic_stringIcNS3_11char_traitsIcEENS3_9allocatorIcEEEE
Dca:__ZN6google8protobuf14ResultCallbackIPNSt3__212basic_stringIcNS2_11char_traitsIcEENS2_9allocatorIcEEEEED2Ev
Pea:__ZN14chrome_lang_id32GenericEmbeddingFeatureExtractor4InitEPNS_11TaskContextE
gr:__ZNSt3__212__hash_tableINS_17__hash_value_typeINS_4pairIPKN6google8protobuf10DescriptorEiEEPKNS4_15FieldDescriptorEEENS_22__unordered_map_hasherIS8_SC_NS4_12_GLOBAL__N_122PointerIntegerPairHashIS8_EELb1EEENS_21__unordered_map_equalIS8_SC_NS_8equal_toIS8_EELb1EEENS_9allocatorISC_EEE6rehashEj
fS:__ZNK6google8protobuf8internal23RepeatedPtrFieldWrapperINS0_7MessageEE12SwapElementsEPvii
Kia:__ZNK6google8protobuf4Type20GetMaybeArenaPointerEv
Da:RegisteredPointer_fromWireType
UT:__ZNK6google8protobuf8internal12MapEntryLiteINSt3__212basic_stringIcNS3_11char_traitsIcEENS3_9allocatorIcEEEENS0_5ValueELNS1_14WireFormatLite9FieldTypeE9ELSC_11ELi0EE13IsInitializedEv
BE:__ZNK6google8protobuf8Duration12ByteSizeLongEv
Gha:__ZNK6google8protobuf14ServiceOptions13GetCachedSizeEv
Xb:__embind_register_class_function
HR:___cxa_can_catch
Jd:__ZNK6google8protobuf8internal15DynamicMapField30SyncRepeatedFieldWithMapNoLockEv
xea:__ZNK6google8protobuf11UInt32Value13SetCachedSizeEi
Jy:__ZN6google8protobuf25EncodedDescriptorDatabase3AddEPKvi
Ha:makeClassHandle
CW:__ZN6google8protobuf10BytesValue8CopyFromERKNS0_7MessageE
w$:__ZN6google8protobuf8internal12MapFieldLiteINSt3__212basic_stringIcNS3_11char_traitsIcEENS3_9allocatorIcEEEENS0_5ValueELNS1_14WireFormatLite9FieldTypeE9ELSC_11ELi0EE10MutableMapEv
iu:__ZN6google8protobuf17DescriptorBuilder8AddErrorERKNSt3__212basic_stringIcNS2_11char_traitsIcEENS2_9allocatorIcEEEERKNS0_7MessageENS0_14DescriptorPool14ErrorCollector13ErrorLocationEPKc
cP:__ZNSt3__26vectorIN14chrome_lang_id16EmbeddingNetwork13VectorWrapperENS_9allocatorIS3_EEE18__construct_at_endEj
Be:__ZN6google8protobuf17DescriptorBuilder10FindSymbolERKNSt3__212basic_stringIcNS2_11char_traitsIcEENS2_9allocatorIcEEEE
Mv:__ZNK6google8protobuf11MapValueRef13GetInt32ValueEv
QU:__ZN6google8protobuf8internal9down_castIPKN14chrome_lang_id14TaskInput_PartEKNS0_11MessageLiteEEET_PT0_
pba:__ZNK14chrome_lang_id14LangIdNNParams19embeddings_num_colsEi
$D:_scalbn
_ja:__ZN14chrome_lang_id4CLD213ascii_isdigitEc
EJ:__ZNK6google8protobuf11MessageLite17SerializeAsStringEv
SZ:__ZNK6google8protobuf9ListValue8GetArenaEv
iM:__ZN6google8protobuf12FieldOptions9MergeFromERKNS0_7MessageE
Ue:__ZNK6google8protobuf15DescriptorProto39InternalSerializeWithCachedSizesToArrayEbPh
$x:__ZN6google8protobuf11EnumOptions9MergeFromERKS1_
Xy:__ZN6google8protobuf6OptionD2Ev
qq:__ZNK6google8protobuf8internal26GeneratedMessageReflection24FindKnownExtensionByNameERKNSt3__212basic_stringIcNS3_11char_traitsIcEENS3_9allocatorIcEEEE
v$:__ZN6google8protobuf8internal23TypeDefinedMapFieldBaseINSt3__212basic_stringIcNS3_11char_traitsIcEENS3_9allocatorIcEEEENS0_5ValueEED0Ev
kq:__ZN6google8protobuf23SourceCodeInfo_Location5ClearEv
Iha:__ZNK14chrome_lang_id14TaskInput_Part16has_file_patternEv
RF:__ZNK6google8protobuf11StringValue12ByteSizeLongEv
rba:__ZN14chrome_lang_id10TaskOutput19set_has_file_formatEv
JI:__ZNK6google8protobuf8Duration24SerializeWithCachedSizesEPNS0_2io17CodedOutputStreamE
UD:__ZN6google8protobuf13SourceContext9MergeFromERKNS0_7MessageE
Uv:__ZNK6google8protobuf8internal8MapEntryINSt3__212basic_stringIcNS3_11char_traitsIcEENS3_9allocatorIcEEEENS0_5ValueELNS1_14WireFormatLite9FieldTypeE9ELSC_11ELi0EE12ByteSizeLongEv
_i:__ZN6google8protobuf8internal12ExtensionSet10RemoveLastEi
Ap:__ZN6google8protobuf12_GLOBAL__N_111ToCamelCaseERKNSt3__212basic_stringIcNS2_11char_traitsIcEENS2_9allocatorIcEEEEb
w4:__ZNK6google8protobuf16RepeatedPtrFieldIN14chrome_lang_id9ParameterEE4sizeEv
IW:__ZN6google8protobuf9Timestamp8CopyFromERKNS0_7MessageE
G5:__ZNSt3__24pairINS_12basic_stringIcNS_11char_traitsIcEENS_9allocatorIcEEEEfED2Ev
i7:__ZN14chrome_lang_id10TaskOutput25internal_default_instanceEv
zga:__ZNK14chrome_lang_id14LangIdNNParams20hidden_bias_num_rowsEi
ama:__ZNK6google8protobuf9ListValue13IsInitializedEv
UC:__ZN6google8protobuf16EnumValueOptions5ClearEv
bW:__ZNK6google8protobuf8internal15DynamicMapField6GetMapEv
hJ:__ZN14chrome_lang_id4CLD214ascii_isxdigitEc
dg:__ZN14chrome_lang_id4CLD213ScriptScanner14GetOneTextSpanEPNS0_8LangSpanE
Aba:__ZN14chrome_lang_id10TaskOutput17set_has_file_baseEv
X6:__ZN6google8protobuf8internal21arena_destruct_objectINS0_20FieldDescriptorProtoEEEvPv
bh:__ZN6google8protobuf8internal13ReflectionOps24FindInitializationErrorsERKNS0_7MessageERKNSt3__212basic_stringIcNS6_11char_traitsIcEENS6_9allocatorIcEEEEPNS6_6vectorISC_NSA_ISC_EEEE
uz:__ZN6google8protobuf8internal14WireFormatLite12WriteFixed64EiyPNS0_2io17CodedOutputStreamE
F:Math_sin
Ra:___cxa_find_matching_catch
w0:__ZNK14chrome_lang_id8Sentence4textEv
$J:__ZN6google8protobuf5Arena18CreateMaybeMessageINS0_24EnumValueDescriptorProtoEEEPT_PS1_z
hda:__ZNK6google8protobuf8internal20RepeatedFieldWrapperIfE5ClearEPv
PR:__ZNKSt3__26vectorIN14chrome_lang_id16FeatureExtractorINS1_8SentenceEJEEENS_9allocatorIS4_EEE2atEj
$Q:__ZNK6google8protobuf6Struct3NewEPNS0_5ArenaE
ro:__ZNK6google8protobuf8internal26GeneratedMessageReflection9GetDoubleERKNS0_7MessageEPKNS0_15FieldDescriptorE
Qh:__ZN6google8protobuf56protobuf_AssignDesc_google_2fprotobuf_2fwrappers_2eprotoEv
ea:invoke_iiiiiii
cd:__ZN6google8protobuf5Field27MergePartialFromCodedStreamEPNS0_2io16CodedInputStreamE
Wa:___resumeException
Uda:__ZNSt11logic_errorD2Ev
w5:__ZNK6google8protobuf8internal30RepeatedFieldPrimitiveAccessorIxE10ConvertToTEPKv
wR:__ZNK6google8protobuf10TextFormat17FieldValuePrinter15PrintMessageEndERKNS0_7MessageEiib
lK:__ZNK6google8protobuf8internal20RepeatedFieldWrapperIbE3AddEPvPKv
Ir:__ZN6google8protobuf16RepeatedPtrFieldINS0_28GeneratedCodeInfo_AnnotationEE9MergeFromERKS3_
CA:__ZN6google8protobuf56protobuf_ShutdownFile_google_2fprotobuf_2fstruct_2eprotoEv
o_:__ZN6google8protobuf16RepeatedPtrFieldIN14chrome_lang_id10TaskOutputEED2Ev
yP:__ZN14chrome_lang_id9Parameter8set_nameERKNSt3__212basic_stringIcNS1_11char_traitsIcEENS1_9allocatorIcEEEE
m$:__ZNK14chrome_lang_id9TaskInput14unknown_fieldsEv
Xma:__ZNK10__cxxabiv116__shim_type_info5noop1Ev
G_:__ZN14chrome_lang_id13FeatureVector7ElementC2EPNS_11FeatureTypeEx
F6:__ZN14chrome_lang_id4CLD29OffsetMap8FlushAllEv
i4:__ZN6google8protobuf8internal26FunctionResultCallback_1_0IPNSt3__212basic_stringIcNS3_11char_traitsIcEENS3_9allocatorIcEEEEPN14chrome_lang_id5TokenEED0Ev
Xp:__ZN6google8protobuf3Api15UnsafeMergeFromERKS1_
Yfa:__ZN10__cxxabiv18is_equalEPKSt9type_infoS2_b
Yj:__ZN6google8protobuf11FileOptions5ClearEv
rN:__ZNK6google8protobuf11StringValue11GetMetadataEv
EL:__ZNSt3__214__split_bufferINS_6vectorIN14chrome_lang_id16EmbeddingNetwork13VectorWrapperENS_9allocatorIS4_EEEERNS5_IS7_EEE18__construct_at_endEj
RC:__ZNSt3__26__treeINS_12__value_typeINS_4pairIPKN6google8protobuf10DescriptorEiEEPKNS4_15FieldDescriptorEEENS_19__map_value_compareIS8_SC_NS_4lessIS8_EELb1EEENS_9allocatorISC_EEE7destroyEPNS_11__tree_nodeISC_PvEE
b5:__ZNK6google8protobuf16RepeatedPtrFieldIN14chrome_lang_id5TokenEE4sizeEv
lr:__ZN6google8protobuf13RepeatedFieldIbE7ReserveEi
eG:__ZNSt3__26vectorIN14chrome_lang_id13FeatureVectorENS_9allocatorIS2_EEE8allocateEj
W:abortOnCannotGrowMemory
iaa:__ZNK6google8protobuf13SourceContext3NewEv
o5:__ZNSt3__26vectorIPN14chrome_lang_id9WorkspaceENS_9allocatorIS3_EEED2Ev
Jo:__ZN6google8protobuf3MapINSt3__212basic_stringIcNS2_11char_traitsIcEENS2_9allocatorIcEEEENS0_5ValueEE8InnerMap12InsertUniqueEjPNSB_4NodeE
FN:__ZN6google8protobuf5EmptyC2Ev
cA:__ZN6google8protobuf5Empty27MergePartialFromCodedStreamEPNS0_2io16CodedInputStreamE
AS:__ZN14chrome_lang_id25FeatureFunctionDescriptor21CheckTypeAndMergeFromERKN6google8protobuf11MessageLiteE
bU:__ZNK6google8protobuf23SourceCodeInfo_Location3NewEPNS0_5ArenaE
Tea:__ZNK6google8protobuf30DescriptorProto_ExtensionRange13GetCachedSizeEv
kQ:__ZNSt3__213__vector_baseIN14chrome_lang_id16EmbeddingNetwork15EmbeddingMatrixENS_9allocatorIS3_EEED2Ev
SJ:__ZNK10__cxxabiv120__si_class_type_info27has_unambiguous_public_baseEPNS_19__dynamic_cast_infoEPvi
RR:__ZNK14chrome_lang_id8Sentence13IsInitializedEv
nl:__ZN6google8protobuf13FloatToBufferEfPc
$ka:__ZNK14chrome_lang_id5Token7has_endEv
AN:__ZNK6google8protobuf10Int64Value11GetMetadataEv
Qy:__ZNK10__cxxabiv121__vmi_class_type_info27has_unambiguous_public_baseEPNS_19__dynamic_cast_infoEPvi
Ei:__ZN6google8protobuf12_GLOBAL__N_128SourceLocationCommentPrinter13FormatCommentERKNSt3__212basic_stringIcNS3_11char_traitsIcEENS3_9allocatorIcEEEE
yca:__ZN10emscripten12value_objectIN14chrome_lang_id22NNetLanguageIdentifier6ResultEED2Ev
cH:__ZN6google8protobuf12OneofOptions8CopyFromERKS1_
PM:__ZN6google8protobuf8internal26FunctionResultCallback_1_0IPNSt3__212basic_stringIcNS3_11char_traitsIcEENS3_9allocatorIcEEEEPN14chrome_lang_id8TaskSpecEEC2EPFSA_SD_EbSD_
Hw:__ZNK6google8protobuf11MapValueRef14GetStringValueEv
SR:__ZN6google8protobuf8internal12MapFieldLiteINSt3__212basic_stringIcNS3_11char_traitsIcEENS3_9allocatorIcEEEENS0_5ValueELNS1_14WireFormatLite9FieldTypeE9ELSC_11ELi0EE4SwapEPSD_
O5:__ZN14chrome_lang_id12_GLOBAL__N_130IsValidCharAtStartOfIdentifierEc
mT:__ZN14chrome_lang_id5Token11mutable_tagEv
z3:__ZN6google8protobuf8internal14ArenaStringPtr16UnsafeSetDefaultEPKNSt3__212basic_stringIcNS3_11char_traitsIcEENS3_9allocatorIcEEEE
bH:__ZN14chrome_lang_id18TaskSpec_Parameter10SharedDtorEv
mJ:__ZNK14chrome_lang_id15FeatureFunctionINS_8SentenceEJEE8EvaluateERKNS_12WorkspaceSetERKS1_PNS_13FeatureVectorE
gfa:__ZNK6google8protobuf8Duration13SetCachedSizeEi
TG:__ZN6google8protobuf2io16CodedInputStream8PopLimitEi
zJ:__ZN6google8protobuf8internal28StringSpaceUsedExcludingSelfERKNSt3__212basic_stringIcNS2_11char_traitsIcEENS2_9allocatorIcEEEE
ela:__ZN10emscripten8internal11BindingTypeIfE12fromWireTypeEf
MK:__ZNK6google8protobuf10TextFormat17FieldValuePrinter17PrintMessageStartERKNS0_7MessageEiib
MO:__ZN6google8protobuf20NewPermanentCallbackIPNSt3__212basic_stringIcNS2_11char_traitsIcEENS2_9allocatorIcEEEEPN14chrome_lang_id9ParameterEEEPNS0_14ResultCallbackIT_EEPFSE_T0_ESH_
bg:__ZNK6google8protobuf5Field12ByteSizeLongEv
dh:__ZN6google8protobuf11FileOptions15UnsafeMergeFromERKS1_
Ija:__ZNK14chrome_lang_id11FeatureType13is_continuousEv
tV:__ZN6google8protobuf17FileDescriptorSet8CopyFromERKNS0_7MessageE
Lca:__ZNK6google8protobuf20OneofDescriptorProto13SetCachedSizeEi
at:__ZN6google8protobuf22FastUInt64ToBufferLeftEyPc
Maa:__ZNK6google8protobuf10Int64Value3NewEv
I1:__ZN14chrome_lang_id25FeatureFunctionDescriptor12set_argumentEi
ri:__ZN6google8protobuf3MapINSt3__212basic_stringIcNS2_11char_traitsIcEENS2_9allocatorIcEEEENS0_5ValueEE5clearEv
_fa:__ZNK6google8protobuf8internal21ExplicitlyConstructedIN14chrome_lang_id14TaskInput_PartEE3getEv
ufa:__ZNK14chrome_lang_id26FeatureExtractorDescriptor13GetCachedSizeEv
zna:setTempRet0
gS:__ZNK6google8protobuf8internal20RepeatedFieldWrapperIdE12SwapElementsEPvii
_aa:__ZNK10__cxxabiv120__function_type_info9can_catchEPKNS_16__shim_type_infoERPv
J_:__ZN6google8protobuf8internal18GenericTypeHandlerINS0_21MethodDescriptorProtoEE16NewFromPrototypeEPKS3_PNS0_5ArenaE
Zka:__ZNSt3__217bad_function_callC2Ev
ZU:__ZN14chrome_lang_id14TaskInput_Part22mutable_unknown_fieldsEv
Nba:__ZN6google8protobuf19FileDescriptorProtoD0Ev
b4:__ZNK6google8protobuf9Timestamp31SerializeWithCachedSizesToArrayEPh
CI:__ZN6google8protobuf8internal14WireFormatLite36ReadMessageNoVirtualNoRecursionDepthIN14chrome_lang_id9TaskInputEEEbPNS0_2io16CodedInputStreamEPT_
Cb:_pthread_key_create
OY:__ZN6google8protobuf16RepeatedPtrFieldIN14chrome_lang_id14TaskInput_PartEE3AddEv
g4:__ZNK6google8protobuf16RepeatedPtrFieldIN14chrome_lang_id10TaskOutputEE4sizeEv
Gb:nonConstNoSmartPtrRawPointerToWireType
jO:__ZNK6google8protobuf6Option11GetMetadataEv
IQ:__ZNSt3__26__treeIiNS_4lessIiEENS_9allocatorIiEEE7destroyEPNS_11__tree_nodeIiPvEE
sA:__ZN6google8protobuf19UninterpretedOptionC2Ev
k8:__ZN6google8protobuf16RepeatedPtrFieldIN14chrome_lang_id9TaskInputEEC2Ev
lda:__ZN14chrome_lang_id8Sentence12set_has_textEv
X1:__ZN6google8protobuf5Arena3OwnINS0_19EnumDescriptorProtoEEEvPT_
fC:__ZNK6google8protobuf11StringValue24SerializeWithCachedSizesEPNS0_2io17CodedOutputStreamE
nfa:__ZNK14chrome_lang_id22EmbeddingNetworkParams23embeddings_quant_scalesEi
Hga:__ZNK6google8protobuf11UInt32Value20GetMaybeArenaPointerEv
NS:__ZN10emscripten8internal10getContextIMN14chrome_lang_id22NNetLanguageIdentifierEFNS3_6ResultERKNSt3__212basic_stringIcNS5_11char_traitsIcEENS5_9allocatorIcEEEEEEEPT_RKSG_
CK:_memcmp
XH:__ZN6google8protobuf12_GLOBAL__N_122protobuf_RegisterTypesERKNSt3__212basic_stringIcNS2_11char_traitsIcEENS2_9allocatorIcEEEE_849
tv:__ZNK6google8protobuf8internal8MapEntryINSt3__212basic_stringIcNS3_11char_traitsIcEENS3_9allocatorIcEEEENS0_5ValueELNS1_14WireFormatLite9FieldTypeE9ELSC_11ELi0EE13GetCachedSizeEv
mp:__ZN6google8protobuf5Field5ClearEv
kp:__ZN6google8protobuf15UnknownFieldSet9MergeFromERKS1_
p$:__ZNK14chrome_lang_id18TaskSpec_Parameter4nameEv
xo:__ZNKSt3__26__treeINS_12__value_typeINS_4pairINS_12basic_stringIcNS_11char_traitsIcEENS_9allocatorIcEEEEiEENS2_IPKviEEEENS_19__map_value_compareIS9_SD_NS_4lessIS9_EELb1EEENS6_ISD_EEE13__lower_boundIS9_EENS_21__tree_const_iteratorISD_PNS_11__tree_nodeISD_PvEEiEERKT_SP_PNS_15__tree_end_nodeIPNS_16__tree_node_baseISN_EEEE
cn:__ZNK6google8protobuf8internal26GeneratedMessageReflection16GetRepeatedInt64ERKNS0_7MessageEPKNS0_15FieldDescriptorEi
Bfa:__ZNK14chrome_lang_id22EmbeddingNetworkParams21embeddings_quant_typeEi
d3:__ZNK6google8protobuf14SourceCodeInfo31SerializeWithCachedSizesToArrayEPh
FC:__ZNK6google8protobuf8internal12ExtensionSet13ExtensionSizeEi
TY:__ZN6google8protobuf12_GLOBAL__N_123AggregateErrorCollectorD0Ev
wia:__ZNK14chrome_lang_id10TaskOutput17has_record_formatEv
oZ:__ZNK6google8protobuf7Message12ByteSizeLongEv
YE:__ZN14chrome_lang_id5utils17STLDeleteElementsINSt3__26vectorIPNS_15FeatureFunctionINS_8SentenceEJEEENS2_9allocatorIS7_EEEEEEvPT_
y7:__ZN14chrome_lang_id9TaskInput8add_partEv
pka:__ZN14chrome_lang_id5utils12_GLOBAL__N_1L8ByteAs32Ec
tba:__ZNK14chrome_lang_id8TaskSpec3NewEv
gD:__ZNK6google8protobuf8internal12MapEntryLiteINSt3__212basic_stringIcNS3_11char_traitsIcEENS3_9allocatorIcEEEENS0_5ValueELNS1_14WireFormatLite9FieldTypeE9ELSC_11ELi0EE5valueEv
P6:__ZN6google8protobuf8internal21arena_destruct_objectIN14chrome_lang_id9TaskInputEEEvPv
Jv:__ZNK6google8protobuf11MapValueRef14GetUInt32ValueEv
z0:_bitshift64Shl
PL:__ZN6google8protobuf15DescriptorProto9MergeFromERKNS0_7MessageE
sK:__ZNSt3__214__split_bufferINS_12basic_stringIcNS_11char_traitsIcEENS_9allocatorIcEEEERNS4_IS6_EEED2Ev
Yia:__ZNK14chrome_lang_id10TaskOutput13has_file_baseEv
lD:__ZN14chrome_lang_id14TaskInput_Part10SharedDtorEv
px:__ZN6google8protobuf5Field10SharedDtorEv
vs:__ZNSt3__212__hash_tableINS_17__hash_value_typeIPKcPFvRKNS_12basic_stringIcNS_11char_traitsIcEENS_9allocatorIcEEEEEEENS_22__unordered_map_hasherIS3_SE_N6google8protobuf4hashIS3_EELb1EEENS_21__unordered_map_equalIS3_SE_NSH_5streqELb1EEENS7_ISE_EEE6rehashEj
dX:__ZN6google8protobuf5Value8CopyFromERKNS0_7MessageE
Yt:__ZN6google8protobuf2io16CodedInputStream26ReadLittleEndian32FallbackEPj
k5:__ZN6google8protobuf8internal26FunctionResultCallback_1_0IPNSt3__212basic_stringIcNS3_11char_traitsIcEENS3_9allocatorIcEEEEPN14chrome_lang_id10TaskOutputEED2Ev
Tda:__ZN14chrome_lang_id5Token11set_has_endEv
cia:__ZN14chrome_lang_id23GenericFeatureExtractor18mutable_descriptorEv
V9:__ZN6google8protobuf8internal15DynamicMapFieldD0Ev
_4:__ZNK6google8protobuf8internal12MapEntryBase11GetMetadataEv
H4:__ZN6google8protobuf5Arena3OwnINS0_3AnyEEEvPT_
d6:__ZN6google8protobuf8internal21arena_destruct_objectIN14chrome_lang_id14TaskInput_PartEEEvPv
Hea:__ZNK6google8protobuf10Int64Value13SetCachedSizeEi
i:DYNAMICTOP_PTR
Bn:__ZN14chrome_lang_id4CLD210ReadEntityEPKciPi
K8:__ZN6google8protobuf8internal21arena_destruct_objectINS0_6MethodEEEvPv
Wg:__ZNK6google8protobuf20FieldDescriptorProto12ByteSizeLongEv
sc:FUNCTION_TABLE_vii
Tga:__ZN6google8protobuf8internal30RepeatedFieldPrimitiveAccessorIbED0Ev
xs:__ZNSt3__26vectorIN14chrome_lang_id22NNetLanguageIdentifier6ResultENS_9allocatorIS3_EEE24__emplace_back_slow_pathIJEEEvDpOT_
_Y:__ZN6google8protobuf8internal27UnknownFieldSetFieldSkipper15SkipUnknownEnumEii
ux:__ZNK6google8protobuf8internal12MapEntryLiteINSt3__212basic_stringIcNS3_11char_traitsIcEENS3_9allocatorIcEEEENS0_5ValueELNS1_14WireFormatLite9FieldTypeE9ELSC_11ELi0EE39InternalSerializeWithCachedSizesToArrayEbPh
eT:__ZNK6google8protobuf8internal20RepeatedFieldWrapperIjE12SwapElementsEPvii
z2:__ZN6google8protobuf8internal18GenericTypeHandlerINS0_6MethodEE16NewFromPrototypeEPKS3_PNS0_5ArenaE
QP:__ZN14chrome_lang_id25EmbeddingFeatureExtractorINS_16FeatureExtractorINS_8SentenceEJEEES2_JEE4InitEPNS_11TaskContextE
Q9:__ZN14chrome_lang_id25FeatureFunctionDescriptor12set_has_nameEv
Jia:__ZNKSt3__26vectorIPN14chrome_lang_id9WorkspaceENS_9allocatorIS3_EEE8max_sizeEv
_u:__ZNK6google8protobuf8internal12ExtensionSet15GetRepeatedBoolEii
lM:__ZN6google8protobuf8internal26FunctionResultCallback_1_0IPNSt3__212basic_stringIcNS3_11char_traitsIcEENS3_9allocatorIcEEEEPN14chrome_lang_id14TaskInput_PartEEC2EPFSA_SD_EbSD_
Dka:__ZN6google8protobuf9BoolValue5ClearEv
ia:invoke_v
CL:__ZN6google8protobuf10Int32Value9MergeFromERKNS0_7MessageE
Mga:__ZNK14chrome_lang_id11FeatureType4baseEv
rH:_fputc
fma:__ZNK14chrome_lang_id9Parameter13IsInitializedEv
gR:__ZNK10__cxxabiv117__class_type_info27has_unambiguous_public_baseEPNS_19__dynamic_cast_infoEPvi
U6:__ZN14chrome_lang_id16EmbeddingNetwork13VectorWrapperC2EPKfi
So:__ZNK6google8protobuf5Value24SerializeWithCachedSizesEPNS0_2io17CodedOutputStreamE
d7:__ZNK6google8protobuf8internal12MapFieldBase22SpaceUsedExcludingSelfEv
V1:__ZN6google8protobuf5Arena3OwnINS0_19UninterpretedOptionEEEvPT_
Xea:__ZN14chrome_lang_id11FeatureTypeD0Ev
u5:__ZNSt3__24pairIKNS_12basic_stringIcNS_11char_traitsIcEENS_9allocatorIcEEEEiED2Ev
yT:__ZNK6google8protobuf7Message24SerializeWithCachedSizesEPNS0_2io17CodedOutputStreamE
ba:invoke_i
vW:__ZNK6google8protobuf11MessageLite3NewEPNS0_5ArenaE
jm:__ZNK6google8protobuf8internal26GeneratedMessageReflection8SetFieldIfEEvPNS0_7MessageEPKNS0_15FieldDescriptorERKT_
mK:__ZN6google8protobuf7CEscapeERKNSt3__212basic_stringIcNS1_11char_traitsIcEENS1_9allocatorIcEEEE
eq:__ZN14chrome_lang_id4CLD29OffsetMap5FlushEv
nw:__ZNSt3__26vectorIPN14chrome_lang_id11FeatureTypeENS_9allocatorIS3_EEE21__push_back_slow_pathIRKS3_EEvOT_
dK:__ZN14chrome_lang_id16FeatureExtractorINS_8SentenceEJEE4InitEPNS_11TaskContextE
dG:__ZN10emscripten8internal13MethodInvokerIMNSt3__26vectorIN14chrome_lang_id22NNetLanguageIdentifier6ResultENS2_9allocatorIS6_EEEEKFjvEjPKS9_JEE6invokeERKSB_SD_
mX:__ZNK6google8protobuf13MethodOptions3NewEPNS0_5ArenaE
Mz:__ZNK6google8protobuf9FieldMask24SerializeWithCachedSizesEPNS0_2io17CodedOutputStreamE
d1:__ZN6google8protobuf8internal19arena_delete_objectIN14chrome_lang_id8TaskSpecEEEvPv
Gda:__ZN6google8protobuf14SourceCodeInfoD0Ev
ZO:__ZN6google8protobuf3MapINS0_6MapKeyENS0_11MapValueRefEE8InnerMap19EraseFromLinkedListEPNS5_4NodeES7_
xx:__ZN14chrome_lang_id4CLD212_GLOBAL__N_119CountPredictedBytesEPKciPiS4_
bO:__ZN6google8protobuf8internal26FunctionResultCallback_1_0IPNSt3__212basic_stringIcNS3_11char_traitsIcEENS3_9allocatorIcEEEEPN14chrome_lang_id14TaskInput_PartEE3RunEv
Lba:__ZNK14chrome_lang_id14LangIdNNParams15softmax_weightsEi
Y3:__ZN6google8protobuf8internal14WireFormatLite18GroupSizeNoVirtualIN14chrome_lang_id14TaskInput_PartEEEjRKT_
Xha:__ZNK14chrome_lang_id14TaskInput_Part15has_file_formatEv
xl:__ZN6google8protobuf3MapINS0_6MapKeyENS0_11MapValueRefEE8InnerMap18InsertUniqueInTreeEjPNS5_4NodeE
xda:__ZNK6google8protobuf8internal20RepeatedFieldWrapperIfE4SizeEPKv
Nu:__ZNK14chrome_lang_id18TaskSpec_Parameter24SerializeWithCachedSizesEPN6google8protobuf2io17CodedOutputStreamE
Xr:__ZN6google8protobuf8internal14WireFormatLite10WriteGroupEiRKNS0_11MessageLiteEPNS0_2io17CodedOutputStreamE
xga:__ZNKSt3__210__function6__funcIPFbPKcPiENS_9allocatorIS6_EES5_E11target_typeEv
Vga:__ZN12_GLOBAL__N_1L20register_memory_viewIlEEvPKc
Jea:__ZNK6google8protobuf10FloatValue13SetCachedSizeEi
Lha:__ZNK14chrome_lang_id14LangIdNNParams16softmax_num_colsEi
Pk:__ZN6google8protobuf3MapINS0_6MapKeyENS0_11MapValueRefEE8InnerMap6insertERKNS4_12KeyValuePairE
_la:__ZNKSt3__221__basic_string_commonILb1EE20__throw_length_errorEv
cka:__ZN6google8protobuf11UInt32Value5ClearEv
RJ:__ZNK6google8protobuf9Timestamp3NewEPNS0_5ArenaE
st:__ZN14chrome_lang_id25FeatureFunctionDescriptor5ClearEv
Ca:throwInstanceAlreadyDeleted
XE:__ZN6google8protobuf12_GLOBAL__N_123GeneratedMessageFactoryD2Ev
fia:__ZNKSt3__26vectorIN14chrome_lang_id13FeatureVectorENS_9allocatorIS2_EEE8max_sizeEv
TX:__ZNK6google8protobuf8internal20RepeatedFieldWrapperIxE3GetEPKviPv
Hb:_abort
oga:__ZN12_GLOBAL__N_1L16register_integerIcEEvPKc
g6:__ZNK14chrome_lang_id11UnicodeText3endEv
FZ:__ZNK6google8protobuf10Int32Value8GetArenaEv
BI:__ZN14chrome_lang_id5utils24RemoveTrailingWhitespaceEPNS_11StringPieceE
Yx:__ZNK6google8protobuf13MethodOptions24SerializeWithCachedSizesEPNS0_2io17CodedOutputStreamE
cx:__ZN6google8protobuf8internal12ExtensionSet32FindExtensionInfoFromFieldNumberEiiPNS1_15ExtensionFinderEPNS1_13ExtensionInfoEPb
zd:__ZN6google8protobuf17DescriptorBuilder19LogUnusedDependencyERKNS0_19FileDescriptorProtoEPKNS0_14FileDescriptorE
uM:__ZN14chrome_lang_id4CLD215FixUnicodeValueEi
TW:__ZN6google8protobuf16RepeatedPtrFieldIN14chrome_lang_id14TaskInput_PartEE9MergeFromERKS4_
Yp:__ZNSt3__26vectorINS0_IN14chrome_lang_id16EmbeddingNetwork13VectorWrapperENS_9allocatorIS3_EEEENS4_IS6_EEE8__appendEj
Ia:whenDependentTypesAreResolved
qH:__ZNK14chrome_lang_id32GenericEmbeddingFeatureExtractor12GetParamNameERKNSt3__212basic_stringIcNS1_11char_traitsIcEENS1_9allocatorIcEEEE
FB:__ZNSt3__26vectorIfNS_9allocatorIfEEE26__swap_out_circular_bufferERNS_14__split_bufferIfRS2_EE
NV:__ZN6google8protobuf16RepeatedPtrFieldIN14chrome_lang_id18TaskSpec_ParameterEE7MutableEi
ff:__ZNK6google8protobuf5Field39InternalSerializeWithCachedSizesToArrayEbPh
Kea:__ZNK6google8protobuf10BytesValue13SetCachedSizeEi
B_:__ZN6google8protobuf12_GLOBAL__N_124InitFileDescriptorTablesEv
zf:__ZN14chrome_lang_id8Sentence27MergePartialFromCodedStreamEPN6google8protobuf2io16CodedInputStreamE
$L:__ZN6google8protobuf8internal21arena_destruct_objectINS0_3MapINSt3__212basic_stringIcNS4_11char_traitsIcEENS4_9allocatorIcEEEENS0_5ValueEE8InnerMapEEEvPv
_j:__ZN6google8protobuf8internal14WireFormatLite11WriteStringEiRKNSt3__212basic_stringIcNS3_11char_traitsIcEENS3_9allocatorIcEEEEPNS0_2io17CodedOutputStreamE
UW:__ZN14chrome_lang_id13FeatureVector5clearEv
JW:__ZN6google8protobuf9ListValue8CopyFromERKNS0_7MessageE
Hv:__ZNK6google8protobuf19EnumDescriptorProto24SerializeWithCachedSizesEPNS0_2io17CodedOutputStreamE
LY:__ZN14chrome_lang_id5utils23RemoveWhitespaceContextEPNS_11StringPieceE
O6:__ZN6google8protobuf8internal21arena_destruct_objectINS0_21MethodDescriptorProtoEEEvPv
UI:__ZN14chrome_lang_id16EmbeddingNetwork15EmbeddingMatrixC2ENS_22EmbeddingNetworkParams6MatrixE
qd:__ZN6google8protobuf6Method27MergePartialFromCodedStreamEPNS0_2io16CodedInputStreamE
hF:__ZNSt3__26vectorINS_12basic_stringIcNS_11char_traitsIcEENS_9allocatorIcEEEENS4_IS6_EEE8allocateEj
dia:_strchr
ab:_llvm_trap
cb:constNoSmartPtrRawPointerToWireType
Om:__ZN14chrome_lang_id8Sentence15UnsafeMergeFromERKS0_
A2:__ZN6google8protobuf8internal14WireFormatLite18GroupSizeNoVirtualIN14chrome_lang_id18TaskSpec_ParameterEEEjRKT_
$c:__ZN6google8protobuf10TextFormat6Parser10ParserImpl17ConsumeFieldValueEPNS0_7MessageEPKNS0_10ReflectionEPKNS0_15FieldDescriptorE
Cfa:__ZNK14chrome_lang_id10TaskOutput13IsInitializedEv
EE:__ZN6google8protobuf15DescriptorProtoC2Ev
Mia:__ZNK14chrome_lang_id18TaskSpec_Parameter8has_nameEv
gM:__ZN6google8protobuf9TimestampD2Ev
yha:__ZNSt3__211char_traitsIcE6assignERcRKc
zy:__ZN6google8protobuf6MethodD2Ev
G9:__ZNSt3__28functionIFbPKcPiEEC2IPS4_vEET_
qW:__ZN6google8protobuf11EnumOptions8CopyFromERKNS0_7MessageE
AF:__ZN6google8protobuf8Duration9MergeFromERKNS0_7MessageE
Ig:__ZN6google8protobuf8internal12MapEntryLiteINSt3__212basic_stringIcNS3_11char_traitsIcEENS3_9allocatorIcEEEENS0_5ValueELNS1_14WireFormatLite9FieldTypeE9ELSC_11ELi0EE27MergePartialFromCodedStreamEPNS0_2io16CodedInputStreamE
Mja:__ZN6google8protobuf10TextFormat17FieldValuePrinterD0Ev
U5:__ZN6google8protobuf8internal9SingletonINS1_30RepeatedFieldPrimitiveAccessorIfEEE4InitEv
uI:__ZN6google8protobuf67protobuf_InitDefaults_google_2fprotobuf_2ffield_5fmask_2eproto_implEv
ug:__ZN6google8protobuf17DescriptorBuilder19AllocateOptionsImplINS0_14FileDescriptorEEEvRKNSt3__212basic_stringIcNS4_11char_traitsIcEENS4_9allocatorIcEEEESC_RKNT_11OptionsTypeEPSD_
mr:__ZN6google8protobuf8internal14WireFormatLite9ReadBytesEPNS0_2io16CodedInputStreamEPNSt3__212basic_stringIcNS6_11char_traitsIcEENS6_9allocatorIcEEEE
FS:__ZN14chrome_lang_id9Parameter13mutable_valueEv
wu:__ZN6google8protobuf24SimpleDescriptorDatabase15DescriptorIndexINSt3__24pairIPKviEEE19AddNestedExtensionsERKNS0_15DescriptorProtoES7_
iG:__ZNK6google8protobuf8internal30RepeatedFieldPrimitiveAccessorIxE4SwapEPvPKNS1_21RepeatedFieldAccessorES4_
Mk:__ZN14chrome_lang_id22NNetLanguageIdentifierC2Eii
mV:__ZN14chrome_lang_id26FeatureExtractorDescriptor10SharedDtorEv
zda:__ZNK6google8protobuf8internal20RepeatedFieldWrapperIbE4SizeEPKv
_k:__ZN14chrome_lang_id14TaskInput_Part15UnsafeMergeFromERKS0_
ev:__ZNK6google8protobuf8internal12ExtensionSet15GetRepeatedEnumEii
Fd:__ZNK6google8protobuf15FieldDescriptor11DebugStringEiNS1_14PrintLabelFlagEPNSt3__212basic_stringIcNS3_11char_traitsIcEENS3_9allocatorIcEEEERKNS0_18DebugStringOptionsE
q4:__ZNK6google8protobuf8Duration31SerializeWithCachedSizesToArrayEPh
$u:__ZNSt3__26vectorIPN6google8protobuf10TextFormat13ParseInfoTreeENS_9allocatorIS5_EEE21__push_back_slow_pathIKS5_EEvRT_
sf:__ZNK6google8protobuf6Struct12ByteSizeLongEv
ct:__ZN6google8protobuf8internal12ExtensionSet14MutableMessageEPKNS0_15FieldDescriptorEPNS0_14MessageFactoryE
WX:__ZNK6google8protobuf8internal20RepeatedFieldWrapperIfE3GetEPKviPv
KK:__ZN6google8protobuf13SourceContextC2Ev
kE:__ZN14chrome_lang_id4CLD212_GLOBAL__N_118ForwardscanToSpaceEPKci
XM:__ZNK6google8protobuf16EnumValueOptions11GetMetadataEv
zG:__ZN6google8protobuf8internal17AllAreInitializedINS0_16RepeatedPtrFieldIN14chrome_lang_id18TaskSpec_ParameterEEEEEbRKT_
qR:__ZNK6google8protobuf8internal26GeneratedMessageReflection7GetEnumERKNS0_7MessageEPKNS0_15FieldDescriptorE
W0:__ZN6google8protobuf8internal19arena_delete_objectIN14chrome_lang_id9TaskInputEEEvPv
Za:__embind_finalize_value_object
ET:__ZNSt3__26vectorIfNS_9allocatorIfEEEC2Ej
zba:__ZN14chrome_lang_id13FeatureVectorC2Ev
_a:__emval_decref
FX:___cxa_get_globals_fast
bla:__ZN6google8protobuf2io16ArrayInputStreamD0Ev
zk:__ZNK6google8protobuf17ServiceDescriptor6CopyToEPNS0_22ServiceDescriptorProtoE
wha:___cxx_global_var_init_1008
my:__ZN6google8protobuf12_GLOBAL__N_128SourceLocationCommentPrinter14AddPostCommentEPNSt3__212basic_stringIcNS3_11char_traitsIcEENS3_9allocatorIcEEEE
Dx:__ZN6google8protobuf17DescriptorBuilder17OptionInterpreter8SetInt32EiiNS0_15FieldDescriptor4TypeEPNS0_15UnknownFieldSetE
wp:__ZNK6google8protobuf17DescriptorBuilder17OptionInterpreter21AggregateOptionFinder13FindExtensionEPNS0_7MessageERKNSt3__212basic_stringIcNS6_11char_traitsIcEENS6_9allocatorIcEEEE
bfa:__ZNK6google8protobuf9BoolValue13SetCachedSizeEi
cU:__ZNK6google8protobuf11DoubleValue24SerializeWithCachedSizesEPNS0_2io17CodedOutputStreamE
gs:__ZN6google8protobuf16RepeatedPtrFieldINS0_19FileDescriptorProtoEE9MergeFromERKS3_
Kaa:__ZNK6google8protobuf8internal20RepeatedFieldWrapperIbE7IsEmptyEPKv
aR:__ZN6google8protobuf2io16CodedInputStream11ExpectAtEndEv
jK:__ZNK6google8protobuf8internal20RepeatedFieldWrapperIiE3AddEPvPKv
i$:__ZN6google8protobuf8internal18GenericTypeHandlerINS0_19FileDescriptorProtoEE16NewFromPrototypeEPKS3_PNS0_5ArenaE
bn:__ZN6google8protobuf8internal8MapFieldINSt3__212basic_stringIcNS3_11char_traitsIcEENS3_9allocatorIcEEEENS0_5ValueELNS1_14WireFormatLite9FieldTypeE9ELSC_11ELi0EE22InsertOrLookupMapValueERKNS0_6MapKeyEPNS0_11MapValueRefE
QB:__ZNSt3__26vectorIcNS_9allocatorIcEEE26__swap_out_circular_bufferERNS_14__split_bufferIcRS2_EE
hY:__ZN6google8protobuf8internal19arena_delete_objectINSt3__212basic_stringIcNS3_11char_traitsIcEENS3_9allocatorIcEEEEEEvPv
Ks:__ZNK6google8protobuf14ServiceOptions39InternalSerializeWithCachedSizesToArrayEbPh
ut:__ZN6google8protobuf16RepeatedPtrFieldINS0_9EnumValueEE9MergeFromERKS3_
Bl:__ZNK6google8protobuf8internal12ExtensionSet12AppendToListEPKNS0_10DescriptorEPKNS0_14DescriptorPoolEPNSt3__26vectorIPKNS0_15FieldDescriptorENS9_9allocatorISD_EEEE
tfa:__ZNK6google8protobuf6Method13SetCachedSizeEi
il:__ZNSt3__212__hash_tableINS_17__hash_value_typeINS_10type_indexENS_6vectorIPN14chrome_lang_id9WorkspaceENS_9allocatorIS6_EEEEEENS_22__unordered_map_hasherIS2_SA_NS_4hashIS2_EELb1EEENS_21__unordered_map_equalIS2_SA_NS_8equal_toIS2_EELb1EEENS7_ISA_EEE8__rehashEj
y8:__ZN6google8protobuf8internal22DeleteLogSilencerCountEv
OW:__ZN14chrome_lang_id8Sentence21CheckTypeAndMergeFromERKN6google8protobuf11MessageLiteE
FG:__ZN14chrome_lang_id8TaskSpec10SharedCtorEv
Wv:__ZN6google8protobuf8internal12ExtensionSetD2Ev
m:STACK_MAX
ae:__ZN6google8protobuf58protobuf_AssignDesc_google_2fprotobuf_2fdescriptor_2eprotoEv
vt:__ZN6google8protobuf10TextFormat6Parser10ParserImpl13ConsumeStringEPNSt3__212basic_stringIcNS4_11char_traitsIcEENS4_9allocatorIcEEEE
DL:__ZN14chrome_lang_id26FeatureExtractorDescriptor5ClearEv
QW:__ZNK14chrome_lang_id25EmbeddingFeatureExtractorINS_16FeatureExtractorINS_8SentenceEJEEES2_JEE25generic_feature_extractorEi
Q:Math_max
DV:__ZN6google8protobuf8internal9down_castIPKN14chrome_lang_id8SentenceEKNS0_11MessageLiteEEET_PT0_
E3:__ZNK6google8protobuf11UInt32Value31SerializeWithCachedSizesToArrayEPh
vna:__Znaj
A1:__ZN14chrome_lang_id11TaskContextD2Ev
Ot:__ZNSt3__213unordered_mapINS_12basic_stringIcNS_11char_traitsIcEENS_9allocatorIcEEEEN6google8protobuf25FieldDescriptorProto_TypeENS8_4hashIS6_EENS_8equal_toIS6_EENS4_INS_4pairIKS6_S9_EEEEEixERSF_
eR:__ZN14chrome_lang_id25FeatureFunctionDescriptor12mutable_typeEv
Yy:__ZNK6google8protobuf8internal12ExtensionSet22SpaceUsedExcludingSelfEv
Dja:__ZNK6google8protobuf5Field13GetCachedSizeEv
Hn:__ZN6google8protobuf8internal12MapEntryLiteINSt3__212basic_stringIcNS3_11char_traitsIcEENS3_9allocatorIcEEEENS0_5ValueELNS1_14WireFormatLite9FieldTypeE9ELSC_11ELi0EE9MergeFromERKSD_
Ol:__ZNK6google8protobuf8internal26GeneratedMessageReflection12AddEnumValueEPNS0_7MessageEPKNS0_15FieldDescriptorEi
F_:__ZN6google8protobuf8internal18GenericTypeHandlerIN14chrome_lang_id10TaskOutputEE6DeleteEPS4_PNS0_5ArenaE
sb:___cxa_allocate_exception
Tp:__ZN6google8protobuf12_GLOBAL__N_122protobuf_RegisterTypesERKNSt3__212basic_stringIcNS2_11char_traitsIcEENS2_9allocatorIcEEEE_1089
CU:__ZN10emscripten8internal14raw_destructorINSt3__26vectorIN14chrome_lang_id22NNetLanguageIdentifier6ResultENS2_9allocatorIS6_EEEEEEvPT_
KG:__ZN6google8protobuf4Enum28_slow_mutable_source_contextEv
Y1:__ZN6google8protobuf2io18StringOutputStreamC2EPNSt3__212basic_stringIcNS3_11char_traitsIcEENS3_9allocatorIcEEEE
Oda:__ZN14chrome_lang_id14TaskInput_PartD0Ev
KW:__ZN6google8protobuf9FieldMask8CopyFromERKNS0_7MessageE
t8:__ZN14chrome_lang_id8TaskSpec9add_inputEv
LR:__ZNK6google8protobuf8internal26GeneratedMessageReflection26FindKnownExtensionByNumberEi
xN:__ZN6google8protobuf6Method9MergeFromERKNS0_7MessageE
hG:__ZNK6google8protobuf8internal30RepeatedFieldPrimitiveAccessorIyE4SwapEPvPKNS1_21RepeatedFieldAccessorES4_
Rt:__ZN6google8protobuf8internal12ExtensionSet17SetRepeatedUInt64Eiiy
lW:__ZNK14chrome_lang_id9FMLParser3eosEv
W1:__ZN6google8protobuf5Arena3OwnINS0_19FileDescriptorProtoEEEvPT_
av:__ZNK6google8protobuf8internal12ExtensionSet17GetRepeatedUInt32Eii
Jw:__ZNK6google8protobuf8internal26GeneratedMessageReflection20AddEnumValueInternalEPNS0_7MessageEPKNS0_15FieldDescriptorEi
nea:__ZN12_GLOBAL__N_1L20register_memory_viewIiEEvPKc
X:invoke_iiii
L9:__ZN6google8protobuf25EncodedDescriptorDatabaseD0Ev
jD:__ZN6google8protobuf8internal21arena_destruct_objectINS0_16RepeatedPtrFieldINSt3__212basic_stringIcNS4_11char_traitsIcEENS4_9allocatorIcEEEEEEEEvPv
Sh:__ZN6google8protobuf18InsertIfNotPresentINS0_8hash_mapIPKcPKNS0_14FileDescriptorENS0_4hashIS4_EENS0_5streqENSt3__29allocatorINSB_4pairIKS4_S7_EEEEEEEEbPT_RKNSI_10value_typeE
rO:__ZNK6google8protobuf5Mixin11GetMetadataEv
xb:throwUnboundTypeError
wS:__ZN14chrome_lang_id4CLD29OffsetMap13MaybeFlushAllEv
$X:__ZN6google8protobuf16RepeatedPtrFieldIN14chrome_lang_id25FeatureFunctionDescriptorEE5ClearEv
ig:__ZNK6google8protobuf8internal15DynamicMapField28SpaceUsedExcludingSelfNoLockEv
Vfa:__ZN14chrome_lang_id8TaskSpecD0Ev
AH:__ZNK6google8protobuf9EnumValue3NewEPNS0_5ArenaE
AP:__ZN14chrome_lang_id8Sentence8set_textERKNSt3__212basic_stringIcNS1_11char_traitsIcEENS1_9allocatorIcEEEE
m2:__ZNKSt3__210__function6__funcIPFbPKcPiENS_9allocatorIS6_EES5_E7__cloneEPNS0_6__baseIS5_EE
gA:__ZN6google8protobuf17DescriptorBuilder17OptionInterpreter9SetUInt32EijNS0_15FieldDescriptor4TypeEPNS0_15UnknownFieldSetE
U8:__ZN6google8protobuf8internal21arena_destruct_objectINS0_5MixinEEEvPv
jia:__ZNK14chrome_lang_id14LangIdNNParams15hidden_num_rowsEi
C5:__ZN6google8protobuf8internal11AnyMetadataC2EPNS1_14ArenaStringPtrES4_
$Y:__ZN6google8protobuf8internal18GenericTypeHandlerINS0_30DescriptorProto_ExtensionRangeEE16NewFromPrototypeEPKS3_PNS0_5ArenaE
vC:__ZN6google8protobuf8internal20RepeatedPtrFieldBase9MergeFromINS0_16RepeatedPtrFieldIN14chrome_lang_id5TokenEE11TypeHandlerEEEvRKS2_
XY:__ZNSt3__212basic_stringIcNS_11char_traitsIcEENS_9allocatorIcEEE6appendEPKc
$F:___divdi3
yz:__ZNSt3__2plIcNS_11char_traitsIcEENS_9allocatorIcEEEENS_12basic_stringIT_T0_T1_EEPKS6_RKS9_
JQ:__ZNSt3__213__vector_baseIN14chrome_lang_id13FeatureVector7ElementENS_9allocatorIS3_EEED2Ev
eL:__ZN6google8protobuf22ServiceDescriptorProto9MergeFromERKNS0_7MessageE
Dq:__ZNSt3__26vectorIPN6google8protobuf7MessageENS_9allocatorIS4_EEE8__appendEj
dja:__ZNK6google8protobuf30DescriptorProto_ExtensionRange13IsInitializedEv
Vha:__ZNK6google8protobuf13SourceContext13GetCachedSizeEv
IP:__ZNSt3__214__split_bufferIPN14chrome_lang_id9WorkspaceERNS_9allocatorIS3_EEED2Ev
vD:__ZN6google8protobuf8internal12MapEntryLiteINSt3__212basic_stringIcNS3_11char_traitsIcEENS3_9allocatorIcEEEENS0_5ValueELNS1_14WireFormatLite9FieldTypeE9ELSC_11ELi0EED0Ev
kA:__ZN14chrome_lang_id5Token10SharedDtorEv
Vla:__ZNK14chrome_lang_id8TaskSpec6outputEv
_z:__ZNK6google8protobuf8Duration39InternalSerializeWithCachedSizesToArrayEbPh
vM:__ZNK6google8protobuf22ServiceDescriptorProto11GetMetadataEv
AU:__ZN6google8protobuf8internal12_GLOBAL__N_126DeleteEmptyUnknownFieldSetEv
Go:__ZN6google8protobuf8internal20RepeatedPtrFieldBase24AddAllocatedSlowWithCopyINS0_16RepeatedPtrFieldINS0_7MessageEE11TypeHandlerEEEvPNT_4TypeEPNS0_5ArenaESC_
Yg:__ZNSt3__212__hash_tableINS_17__hash_value_typeINS_12basic_stringIcNS_11char_traitsIcEENS_9allocatorIcEEEEN6google8protobuf25FieldDescriptorProto_TypeEEENS_22__unordered_map_hasherIS7_SB_NS9_4hashIS7_EELb1EEENS_21__unordered_map_equalIS7_SB_NS_8equal_toIS7_EELb1EEENS5_ISB_EEE4findIS7_EENS_15__hash_iteratorIPNS_11__hash_nodeISB_PvEEEERKT_
nE:__ZNSt3__214__split_bufferIPN14chrome_lang_id11FeatureTypeERNS_9allocatorIS3_EEEC2EjjS6_
dQ:__ZNK6google8protobuf8internal23RepeatedPtrFieldWrapperINSt3__212basic_stringIcNS3_11char_traitsIcEENS3_9allocatorIcEEEEE12SwapElementsEPvii
qI:__ZNK6google8protobuf11FileOptions13IsInitializedEv
QK:__ZN14chrome_lang_id14TaskInput_PartC2Ev
qP:__ZN6google8protobuf9BoolValueD0Ev
Rca:__ZN10emscripten8internal11BindingTypeIPN14chrome_lang_id22NNetLanguageIdentifierEE10toWireTypeES4_
raa:__ZN14chrome_lang_id14TaskInput_Part19set_has_file_formatEv
rj:__ZNSt3__227__tree_balance_after_insertIPNS_16__tree_node_baseIPvEEEEvT_S5_
oz:__ZNSt3__212basic_stringIcNS_11char_traitsIcEENS_9allocatorIcEEE6assignEPKcj
Qb:setDelayFunction
kH:__ZN14chrome_lang_id54protobuf_InitDefaults_feature_5fextractor_2eproto_implEv
yaa:__ZNK6google8protobuf11DoubleValue3NewEv
Ow:__ZNK6google8protobuf5Mixin12ByteSizeLongEv
aca:__ZNK14chrome_lang_id17ComponentRegistryIFPNS_15FeatureFunctionINS_8SentenceEJEEEvEE9Registrar6objectEv
n$:__ZNK14chrome_lang_id9Parameter14unknown_fieldsEv
hw:__ZNK6google8protobuf8internal12MapEntryLiteINSt3__212basic_stringIcNS3_11char_traitsIcEENS3_9allocatorIcEEEENS0_5ValueELNS1_14WireFormatLite9FieldTypeE9ELSC_11ELi0EE12ByteSizeLongEv
tX:__ZNK14chrome_lang_id5Token3NewEPN6google8protobuf5ArenaE
YJ:__ZN14chrome_lang_id5TokenC2Ev
VJ:__ZThn28_N6google8protobuf8internal8MapFieldINSt3__212basic_stringIcNS3_11char_traitsIcEENS3_9allocatorIcEEEENS0_5ValueELNS1_14WireFormatLite9FieldTypeE9ELSC_11ELi0EE5ClearEv
Wn:__ZN6google8protobuf8internal13ReflectionOps20DiscardUnknownFieldsEPNS0_7MessageE
yp:__ZN6google8protobuf4Type15UnsafeMergeFromERKS1_
m4:__ZN6google8protobuf2io17SafeDoubleToFloatEd
HG:__ZN14chrome_lang_id4CLD213ScriptScannerC2EPKcib
h$:__ZN6google8protobuf8internal18GenericTypeHandlerINS0_19UninterpretedOptionEE16NewFromPrototypeEPKS3_PNS0_5ArenaE
cz:__ZN6google8protobuf13MethodOptionsD2Ev
n2:__ZNK6google8protobuf8internal33RandomAccessRepeatedFieldAccessor11EndIteratorEPKv
W8:__ZN6google8protobuf28UninterpretedOption_NamePartD0Ev
KL:__ZN6google8protobuf5Arena18CreateMaybeMessageIN14chrome_lang_id9TaskInputEEEPT_PS1_z
M8:__ZN14chrome_lang_id5Token7set_endEi
iA:__ZN6google8protobuf8internal30DeleteMapEntryDefaultInstancesEv
sF:__ZNK6google8protobuf22ServiceDescriptorProto13IsInitializedEv
RO:__ZNK6google8protobuf8internal16MapFieldAccessor10RemoveLastEPv
YK:__ZN6google8protobuf29DescriptorProto_ReservedRangeD2Ev
Br:__ZNSt3__26vectorIN14chrome_lang_id16FeatureExtractorINS1_8SentenceEJEEENS_9allocatorIS4_EEE8__appendEj
Kr:__ZNSt3__212__hash_tableINS_17__hash_value_typeINS_12basic_stringIcNS_11char_traitsIcEENS_9allocatorIcEEEEN6google8protobuf25FieldDescriptorProto_TypeEEENS_22__unordered_map_hasherIS7_SB_NS9_4hashIS7_EELb1EEENS_21__unordered_map_equalIS7_SB_NS_8equal_toIS7_EELb1EEENS5_ISB_EEE6rehashEj
XA:__ZN6google8protobuf5Arena8NewBlockEPvPNS1_5BlockEjjj
eba:__ZN14chrome_lang_id10TaskOutputD2Ev
QE:__ZN6google8protobuf2io16ArrayInputStream4SkipEi
a7:__ZN6google8protobuf8internal20RepeatedPtrFieldBase4castINS0_16RepeatedPtrFieldIN14chrome_lang_id9TaskInputEE11TypeHandlerEEEPNT_4TypeEPv
Gw:__ZNK6google8protobuf11MapValueRef15GetMessageValueEv
hA:__ZNSt3__212basic_stringIcNS_11char_traitsIcEENS_9allocatorIcEEEC2ERKS5_
JU:__ZNK6google8protobuf8internal20RepeatedFieldWrapperIdE3SetEPviPKv
t6:_i64Add
Dna:b10
uC:__ZN6google8protobuf19FileDescriptorProtoC2Ev
Aaa:__ZN6google8protobuf22ServiceDescriptorProtoD0Ev
$b:getBasestPointer
eJ:__ZNK6google8protobuf10FloatValue39InternalSerializeWithCachedSizesToArrayEbPh
Bk:__ZNK6google8protobuf14EnumDescriptor6CopyToEPNS0_19EnumDescriptorProtoE
$C:__ZN6google8protobuf12FieldOptionsC2Ev
$aa:__ZN6google8protobuf8internal12MapFieldBaseD0Ev
NW:__ZN14chrome_lang_id8TaskSpec21CheckTypeAndMergeFromERKN6google8protobuf11MessageLiteE
uO:__ZN6google8protobuf3Api9MergeFromERKNS0_7MessageE
ss:__ZN6google8protobuf16RepeatedPtrFieldINS0_29DescriptorProto_ReservedRangeEE9MergeFromERKS3_
e:HEAPU16
ds:__ZN6google8protobuf28GeneratedCodeInfo_Annotation15UnsafeMergeFromERKS1_
Q1:__ZN6google8protobuf5Arena3OwnIN14chrome_lang_id8SentenceEEEvPT_
M3:__ZN6google8protobuf8internal26FunctionResultCallback_1_0IPNSt3__212basic_stringIcNS3_11char_traitsIcEENS3_9allocatorIcEEEEPN14chrome_lang_id8SentenceEED0Ev
YF:__ZN6google8protobuf4EnumC2Ev
kn:__ZNSt3__26__treeINS_12__value_typeINS_12basic_stringIcNS_11char_traitsIcEENS_9allocatorIcEEEEPKN6google8protobuf19EnumValueDescriptorEEENS_19__map_value_compareIS7_SD_NS_4lessIS7_EELb1EEENS5_ISD_EEE12__find_equalIS7_EERPNS_16__tree_node_baseIPvEERPNS_15__tree_end_nodeISO_EERKT_
dc:_pthread_setspecific
Ke:__ZNK6google8protobuf19FileDescriptorProto12ByteSizeLongEv
uy:__ZN6google8protobuf2io17CodedOutputStream15WriteAliasedRawEPKvi
yf:__ZN14chrome_lang_id17TaskContextParams13ToTaskContextEPNS_11TaskContextE
dd:__ZN6google8protobuf8internal10WireFormat29SerializeFieldWithCachedSizesEPKNS0_15FieldDescriptorERKNS0_7MessageEPNS0_2io17CodedOutputStreamE
iB:__ZThn28_N6google8protobuf8internal8MapFieldINSt3__212basic_stringIcNS3_11char_traitsIcEENS3_9allocatorIcEEEENS0_5ValueELNS1_14WireFormatLite9FieldTypeE9ELSC_11ELi0EE4SwapEPNS1_12MapFieldLiteIS9_SA_LSC_9ELSC_11ELi0EEE
XD:__ZNK6google8protobuf8internal8MapEntryINSt3__212basic_stringIcNS3_11char_traitsIcEENS3_9allocatorIcEEEENS0_5ValueELNS1_14WireFormatLite9FieldTypeE9ELSC_11ELi0EE24SerializeWithCachedSizesEPNS0_2io17CodedOutputStreamE
ji:__ZNK6google8protobuf8internal26GeneratedMessageReflection30UnsafeArenaSetAllocatedMessageEPNS0_7MessageES4_PKNS0_15FieldDescriptorE
Ee:__ZNK6google8protobuf19FileDescriptorProto39InternalSerializeWithCachedSizesToArrayEbPh
He:__ZN6google8protobuf13MethodOptions27MergePartialFromCodedStreamEPNS0_2io16CodedInputStreamE
m3:__ZNK6google8protobuf8internal23RepeatedPtrFieldWrapperINSt3__212basic_stringIcNS3_11char_traitsIcEENS3_9allocatorIcEEEEE4SizeEPKv
nG:__ZNK6google8protobuf8internal30RepeatedFieldPrimitiveAccessorIbE4SwapEPvPKNS1_21RepeatedFieldAccessorES4_
Qr:__ZNSt3__26vectorINS_12basic_stringIcNS_11char_traitsIcEENS_9allocatorIcEEEENS4_IS6_EEE21__push_back_slow_pathIS6_EEvOT_
nm:__ZNK14chrome_lang_id16EmbeddingNetwork24FinishComputeFinalScoresINS_11SimpleAdderEEEvRKNSt3__26vectorIfNS3_9allocatorIfEEEEPS7_
YW:__ZNK6google8protobuf14MessageOptions3NewEPNS0_5ArenaE
RH:__ZN14chrome_lang_id4CLD29OffsetMap6InsertEi
vo:__ZNK6google8protobuf22ServiceDescriptorProto39InternalSerializeWithCachedSizesToArrayEbPh
N$:__ZN6google8protobuf5Arena3OwnIN14chrome_lang_id26FeatureExtractorDescriptorEEEvPT_
Dc:FUNCTION_TABLE_diiii
dW:__ZN6google8protobuf8internal9down_castIPKN14chrome_lang_id5TokenEKNS0_11MessageLiteEEET_PT0_
FP:__ZNSt3__213unordered_mapINS_12basic_stringIcNS_11char_traitsIcEENS_9allocatorIcEEEEiNS_4hashIS6_EENS_8equal_toIS6_EENS4_INS_4pairIKS6_iEEEEED2Ev
G2:__ZNK6google8protobuf17FileDescriptorSet31SerializeWithCachedSizesToArrayEPh
t4:__ZNSt3__26vectorIN14chrome_lang_id13FeatureVectorENS_9allocatorIS2_EEED2Ev
Id:__ZNSt3__26__sortIRN6google8protobuf8internal12_GLOBAL__N_117FieldNumberSorterEPPKNS2_15FieldDescriptorEEEvT0_SB_T_
B6:__ZNK6google8protobuf10TextFormat17FieldValuePrinter11PrintUInt32Ej
DY:__ZN14chrome_lang_id22GenericFeatureFunction10set_prefixERKNSt3__212basic_stringIcNS1_11char_traitsIcEENS1_9allocatorIcEEEE
yJ:__ZNSt3__214__split_bufferINS_4pairINS_12basic_stringIcNS_11char_traitsIcEENS_9allocatorIcEEEEfEERNS5_IS8_EEED2Ev
kG:__ZNK6google8protobuf8internal30RepeatedFieldPrimitiveAccessorIiE4SwapEPvPKNS1_21RepeatedFieldAccessorES4_
De:__ZN6google8protobuf9EnumValue27MergePartialFromCodedStreamEPNS0_2io16CodedInputStreamE
Rp:__ZNK6google8protobuf14DescriptorPool22IsSubSymbolOfBuiltTypeERKNSt3__212basic_stringIcNS2_11char_traitsIcEENS2_9allocatorIcEEEE
oq:__ZN6google8protobuf3MapINSt3__212basic_stringIcNS2_11char_traitsIcEENS2_9allocatorIcEEEENS0_5ValueEE8InnerMap14CopyListToTreeEjPNS2_3setIPS8_NSB_10KeyCompareENSA_12MapAllocatorISD_EEEE
bd:__ZNK6google8protobuf8internal26GeneratedMessageReflection6HasBitERKNS0_7MessageEPKNS0_15FieldDescriptorE
jx:__ZN6google8protobuf8internal20RepeatedPtrFieldBase5ClearINS0_16RepeatedPtrFieldIN14chrome_lang_id5TokenEE11TypeHandlerEEEvv
vba:__ZNK14chrome_lang_id14LangIdNNParams18embeddings_weightsEi
Gma:__ZNK6google8protobuf5Field13IsInitializedEv
aV:__ZNK6google8protobuf19EnumDescriptorProto3NewEPNS0_5ArenaE
nO:__ZN14chrome_lang_id16FeatureExtractorINS_8SentenceEJEED2Ev
$P:__ZN10emscripten8internal15raw_constructorIN14chrome_lang_id22NNetLanguageIdentifier6ResultEJEEEPT_DpNS0_11BindingTypeIT0_E8WireTypeE
aY:__ZN14chrome_lang_idL11Float16To32Et
vQ:__ZN14chrome_lang_id43protobuf_InitDefaults_sentence_2eproto_implEv
f7:__ZNK14chrome_lang_id22EmbeddingNetworkParams10HasSoftmaxEv
oM:__ZNK6google8protobuf24EnumValueDescriptorProto11GetMetadataEv
o7:__ZNK6google8protobuf11DoubleValue12ByteSizeLongEv
jy:__ZN6google8protobuf29DescriptorProto_ReservedRange9MergeFromERKNS0_7MessageE
qga:__ZNK6google8protobuf19UninterpretedOption13GetCachedSizeEv
MG:__ZNK6google8protobuf8internal23TypeDefinedMapFieldBaseINS0_6MapKeyENS0_11MapValueRefEE13EqualIteratorERKNS0_11MapIteratorES8_
gw:__ZNK6google8protobuf8internal20RepeatedPtrFieldBase3GetINS0_16RepeatedPtrFieldIN14chrome_lang_id18TaskSpec_ParameterEE11TypeHandlerEEERKNT_4TypeEi
vea:__ZNK6google8protobuf8internal21ExplicitlyConstructedIN14chrome_lang_id25FeatureFunctionDescriptorEE3getEv
WJ:__ZNK6google8protobuf14DescriptorPool21FindMessageTypeByNameERKNSt3__212basic_stringIcNS2_11char_traitsIcEENS2_9allocatorIcEEEE
Td:__ZN6google8protobuf10TextFormat6Parser10ParserImpl14SkipFieldValueEv
kN:__ZNK6google8protobuf12OneofOptions11GetMetadataEv
M9:__ZN14chrome_lang_id25FeatureFunctionDescriptorD0Ev
WC:__ZN6google8protobuf14ServiceOptions5ClearEv
g9:__ZNK6google8protobuf22ServiceDescriptorProto3NewEv
s2:__ZN6google8protobuf8internal18GenericTypeHandlerIN14chrome_lang_id25FeatureFunctionDescriptorEE5ClearEPS4_
Ofa:__ZN12_GLOBAL__N_1L16register_integerIsEEvPKc
nh:__ZN6google8protobuf2io9Tokenizer19ConsumeBlockCommentEPNSt3__212basic_stringIcNS3_11char_traitsIcEENS3_9allocatorIcEEEE
fV:__ZN14chrome_lang_id26FeatureExtractorDescriptor9MergeFromERKS0_
dea:__ZN12_GLOBAL__N_1L16register_integerIiEEvPKc
Waa:__ZN14chrome_lang_id10TaskOutput21set_has_record_formatEv
Oj:__ZN6google8protobuf3MapINSt3__212basic_stringIcNS2_11char_traitsIcEENS2_9allocatorIcEEEENS0_5ValueEE8InnerMap6insertERKNSA_12KeyValuePairE
Hf:__ZNK6google8protobuf11FileOptions39InternalSerializeWithCachedSizesToArrayEbPh
ES:__ZN6google8protobuf8internal18GenericTypeHandlerINS0_28GeneratedCodeInfo_AnnotationEE5MergeERKS3_PS3_
xca:__ZN10emscripten8internal11BindingTypeIPN14chrome_lang_id22NNetLanguageIdentifierEE12fromWireTypeES4_
rr:__ZNSt3__212__hash_tableINS_17__hash_value_typeINS_10type_indexENS_6vectorIPN14chrome_lang_id9WorkspaceENS_9allocatorIS6_EEEEEENS_22__unordered_map_hasherIS2_SA_NS_4hashIS2_EELb1EEENS_21__unordered_map_equalIS2_SA_NS_8equal_toIS2_EELb1EEENS7_ISA_EEE6rehashEj
s0:__ZN6google8protobuf8internal18GenericTypeHandlerIN14chrome_lang_id10TaskOutputEE3NewEPNS0_5ArenaE
C_:__ZNK14chrome_lang_id14TaskInput_Part14unknown_fieldsEv
Fba:__ZN14chrome_lang_id9TaskInput18set_has_multi_fileEv
Vu:__ZNK6google8protobuf3Any39InternalSerializeWithCachedSizesToArrayEbPh
T5:__ZN6google8protobuf8internal9SingletonINS1_30RepeatedFieldPrimitiveAccessorIiEEE4InitEv
_I:_pad_714
iJ:__ZN14chrome_lang_id4CLD213ascii_isalnumEc
aT:__ZN14chrome_lang_id5Token13mutable_labelEv
tp:__ZN6google8protobuf8internal8MapEntryINSt3__212basic_stringIcNS3_11char_traitsIcEENS3_9allocatorIcEEEENS0_5ValueELNS1_14WireFormatLite9FieldTypeE9ELSC_11ELi0EE21CreateDefaultInstanceEPKNS0_10DescriptorE
QJ:__ZN6google8protobuf8internal8MapEntryINSt3__212basic_stringIcNS3_11char_traitsIcEENS3_9allocatorIcEEEENS0_5ValueELNS1_14WireFormatLite9FieldTypeE9ELSC_11ELi0EE27MergePartialFromCodedStreamEPNS0_2io16CodedInputStreamE
iK:__ZNK6google8protobuf8internal20RepeatedFieldWrapperIjE3AddEPvPKv
eS:__GLOBAL__sub_I_timestamp_pb_cc
lL:__ZNSt3__213__vector_baseINS_12basic_stringIcNS_11char_traitsIcEENS_9allocatorIcEEEENS4_IS6_EEED2Ev
Vja:__ZNK14chrome_lang_id22GenericFeatureFunction12feature_typeEv
ND:__ZNSt3__214__split_bufferINS_12basic_stringIcNS_11char_traitsIcEENS_9allocatorIcEEEERNS4_IS6_EEEC2EjjS8_
Wz:__ZNSt3__26__treeINS_12__value_typeINS_12basic_stringIcNS_11char_traitsIcEENS_9allocatorIcEEEEPKN6google8protobuf15FieldDescriptorEEENS_19__map_value_compareIS7_SD_NS_4lessIS7_EELb1EEENS5_ISD_EEE7destroyEPNS_11__tree_nodeISD_PvEE
K3:__ZNK6google8protobuf10TextFormat17FieldValuePrinter11PrintUInt64Ey
de:__ZN6google8protobuf24SimpleDescriptorDatabase15DescriptorIndexINSt3__24pairIPKviEEE9AddSymbolERKNS3_12basic_stringIcNS3_11char_traitsIcEENS3_9allocatorIcEEEES7_
bi:__ZNSt3__212__hash_tableINS_17__hash_value_typeIPKN6google8protobuf10DescriptorEPKNS3_14DynamicMessage8TypeInfoEEENS_22__unordered_map_hasherIS6_SB_NS3_4hashIS6_EELb1EEENS_21__unordered_map_equalIS6_SB_NS_8equal_toIS6_EELb1EEENS_9allocatorISB_EEE20__node_insert_uniqueEPNS_11__hash_nodeISB_PvEE
Gla:__GLOBAL__sub_I_nnet_language_identifier_cc
zL:__ZN6google8protobuf11UInt32Value9MergeFromERKNS0_7MessageE
kx:__ZN14chrome_lang_id18TaskSpec_Parameter5ClearEv
$ia:b19
nD:__ZNK6google8protobuf29DescriptorProto_ReservedRange24SerializeWithCachedSizesEPNS0_2io17CodedOutputStreamE
QC:__ZNK6google8protobuf8internal12ExtensionSet7GetEnumEii
KZ:__ZN6google8protobuf16RepeatedPtrFieldIN14chrome_lang_id14TaskInput_PartEED2Ev
Qo:__ZNK6google8protobuf8internal26GeneratedMessageReflection7AddBoolEPNS0_7MessageEPKNS0_15FieldDescriptorEb
Je:__ZNK6google8protobuf8internal26GeneratedMessageReflection10RemoveLastEPNS0_7MessageEPKNS0_15FieldDescriptorE
Gq:__ZNK6google8protobuf19EnumValueDescriptor17GetSourceLocationEPNS0_14SourceLocationE
lB:__ZN6google8protobuf8internal21arena_destruct_objectINS0_8hash_mapINS0_6MapKeyEPNS0_7MapPairIS4_NS0_11MapValueRefEEENS0_4hashIS4_EENSt3__28equal_toIS4_EENS0_3MapIS4_S6_E12MapAllocatorINSB_4pairIKS4_S8_EEEEEEEEvPv
cs:__ZNK14chrome_lang_id22EmbeddingNetworkParams18GetHiddenLayerBiasEi
cT:__ZN6google8protobuf10BytesValue5ClearEv
bda:__ZNK6google8protobuf8internal33RandomAccessRepeatedFieldAccessor13BeginIteratorEPKv
YT:__ZN6google8protobuf8internal9down_castIPKN14chrome_lang_id25FeatureFunctionDescriptorEKNS0_11MessageLiteEEET_PT0_
$M:__ZN6google8protobuf14DynamicMessage8TypeInfoD2Ev
kka:__ZN6google8protobuf10Int32Value5ClearEv
jZ:__ZN6google8protobuf8internal18GenericTypeHandlerIN14chrome_lang_id25FeatureFunctionDescriptorEE3NewEPNS0_5ArenaE
ex:__ZN6google8protobuf21UnescapeCEscapeStringERKNSt3__212basic_stringIcNS1_11char_traitsIcEENS1_9allocatorIcEEEE
rma:_strtod
Sl:__ZN14chrome_lang_id5Token5ClearEv
Qha:_strtol
Aga:__ZN6google8protobuf6StructD0Ev
el:__ZN6google8protobuf13SourceContext27MergePartialFromCodedStreamEPNS0_2io16CodedInputStreamE
xT:__ZN14chrome_lang_id16FeatureExtractorINS_8SentenceEJEEC2ERKS2_
pW:__ZN6google8protobuf11FileOptions8CopyFromERKNS0_7MessageE
Jn:__ZN6google8protobuf20FileDescriptorTables20BuildLocationsByPathEPNSt3__24pairIPKS1_PKNS0_14SourceCodeInfoEEE
Cka:__ZNK14chrome_lang_id8Sentence8has_textEv
SO:__ZNK6google8protobuf5Value3NewEPNS0_5ArenaE
hs:__ZN6google8protobuf17FastInt64ToBufferExPc
HJ:__ZN6google8protobuf5Arena18CreateMaybeMessageINS0_28GeneratedCodeInfo_AnnotationEEEPT_PS1_z
Fc:__ZN6google8protobuf8internal12ExtensionSet27ParseFieldWithExtensionInfoEibRKNS1_13ExtensionInfoEPNS0_2io16CodedInputStreamEPNS1_12FieldSkipperE
QS:__ZN14chrome_lang_id5Token16mutable_categoryEv
hO:__ZN6google8protobuf14DescriptorPool14generated_poolEv
rX:__ZN10emscripten8internal12operator_newIN14chrome_lang_id22NNetLanguageIdentifierEJiiEEEPT_DpOT0_
k2:__ZN14chrome_lang_id9TaskInput17add_record_formatEv
cN:__ZNK6google8protobuf14MessageOptions11GetMetadataEv
hv:__ZNK6google8protobuf8internal23TypeDefinedMapFieldBaseINSt3__212basic_stringIcNS3_11char_traitsIcEENS3_9allocatorIcEEEENS0_5ValueEE12CopyIteratorEPNS0_11MapIteratorERKSC_
EP:__ZNSt3__214__split_bufferIPN14chrome_lang_id11FeatureTypeERNS_9allocatorIS3_EEED2Ev
th:__ZNK6google8protobuf8internal26GeneratedMessageReflection10AddMessageEPNS0_7MessageEPKNS0_15FieldDescriptorEPNS0_14MessageFactoryE
zi:__ZN6google8protobuf8internal12ExtensionSet7AddBoolEihbbPKNS0_15FieldDescriptorE
ar:__ZNSt3__26vectorIPvNS_9allocatorIS1_EEE8__appendEj
g_:__ZNK6google8protobuf4Type8GetArenaEv
Ih:__ZN6google8protobuf12_GLOBAL__N_125InitAllowedProto3ExtendeeEv
zA:__ZNK14chrome_lang_id5Token30RequiredFieldsByteSizeFallbackEv
Pt:__ZNK6google8protobuf9EnumValue24SerializeWithCachedSizesEPNS0_2io17CodedOutputStreamE
l8:__ZN6google8protobuf16RepeatedPtrFieldIN14chrome_lang_id9ParameterEEC2Ev
Fea:_llvm_bswap_i32
W$:__ZNK14chrome_lang_id8TaskSpec9task_typeEv
TV:__ZNK6google8protobuf8internal20RepeatedFieldWrapperIjE3SetEPviPKv
cla:__ZN10__cxxabiv123__fundamental_type_infoD0Ev
Wja:__ZNK14chrome_lang_id16EmbeddingNetwork13VectorWrapper4sizeEv
$T:__ZN10emscripten8internal10getContextIMNSt3__26vectorIN14chrome_lang_id22NNetLanguageIdentifier6ResultENS2_9allocatorIS6_EEEEFvjRKS6_EEEPT_RKSE_
Zha:__ZNK14chrome_lang_id14LangIdNNParams15hidden_num_colsEi
Mp:__ZNK6google8protobuf8internal8MapFieldINSt3__212basic_stringIcNS3_11char_traitsIcEENS3_9allocatorIcEEEENS0_5ValueELNS1_14WireFormatLite9FieldTypeE9ELSC_11ELi0EE14ContainsMapKeyERKNS0_6MapKeyE
XQ:__ZN6google8protobuf8internal8MapEntryINSt3__212basic_stringIcNS3_11char_traitsIcEENS3_9allocatorIcEEEENS0_5ValueELNS1_14WireFormatLite9FieldTypeE9ELSC_11ELi0EED0Ev
gb:___syscall6
k_:__ZN14chrome_lang_id32GenericEmbeddingFeatureExtractorC2Ev
Yc:__ZNSt3__212__next_primeEj
Bp:__ZN6google8protobuf24SimpleDescriptorDatabase15DescriptorIndexINSt3__24pairIPKviEEE11IsSubSymbolERKNS3_12basic_stringIcNS3_11char_traitsIcEENS3_9allocatorIcEEEESG_
IL:__ZN6google8protobuf20NewPermanentCallbackIPNSt3__212basic_stringIcNS2_11char_traitsIcEENS2_9allocatorIcEEEEPN14chrome_lang_id26FeatureExtractorDescriptorEEEPNS0_14ResultCallbackIT_EEPFSE_T0_ESH_
zv:__ZN6google8protobuf8internal13ReflectionOps5ClearEPNS0_7MessageE
CD:__ZNK6google8protobuf11DoubleValue39InternalSerializeWithCachedSizesToArrayEbPh
Jja:__ZNK14chrome_lang_id10TaskOutput10has_shardsEv
xma:__ZNK6google8protobuf6Struct13IsInitializedEv
Sca:dynCall_viid
AQ:__ZNK14chrome_lang_id17ComponentRegistryIFPNS_15FeatureFunctionINS_8SentenceEJEEEvEE6LookupEPKc
Eca:__ZN6google8protobuf12_GLOBAL__N_1L13MergeFromFailEi
nba:__ZNK14chrome_lang_id9Parameter3NewEv
dT:__ZNSt3__26vectorIfNS_9allocatorIfEEE18__construct_at_endEj
$W:__ZN6google8protobuf6Method8CopyFromERKNS0_7MessageE
Oz:__ZNSt3__26vectorIN14chrome_lang_id16FeatureExtractorINS1_8SentenceEJEEENS_9allocatorIS4_EEE26__swap_out_circular_bufferERNS_14__split_bufferIS4_RS6_EE
zea:__ZNK6google8protobuf11FileOptions13SetCachedSizeEi
Vea:__ZN6google8protobuf11FileOptionsD0Ev
tW:__ZN14chrome_lang_id9Parameter21CheckTypeAndMergeFromERKN6google8protobuf11MessageLiteE
gda:__ZNK6google8protobuf8internal20RepeatedFieldWrapperIiE5ClearEPv
r5:__ZN6google8protobuf8internal18GenericTypeHandlerIN14chrome_lang_id5TokenEE5ClearEPS4_
nY:__ZN6google8protobuf16RepeatedPtrFieldIN14chrome_lang_id5TokenEE9MergeFromERKS4_
eV:__ZN6google8protobuf20FieldDescriptorProto8CopyFromERKNS0_7MessageE
Ug:__ZN6google8protobuf3MapINSt3__212basic_stringIcNS2_11char_traitsIcEENS2_9allocatorIcEEEENS0_5ValueEE8InnerMap5eraseENSB_13iterator_baseINSA_12KeyValuePairEEE
EW:__ZNK6google8protobuf15DescriptorProto3NewEPNS0_5ArenaE
I0:__ZN6google8protobuf21DynamicMessageFactory12GetPrototypeEPKNS0_10DescriptorE
k6:__ZN6google8protobuf8internal18GenericTypeHandlerINS0_7MessageEE8GetArenaEPS3_
SQ:__ZNK6google8protobuf10Int64Value24SerializeWithCachedSizesEPNS0_2io17CodedOutputStreamE
M2:__ZN10emscripten8internal10getContextIMN14chrome_lang_id22NNetLanguageIdentifier6ResultEfEEPT_RKS6_
Fe:__ZN6google8protobuf14ServiceOptions27MergePartialFromCodedStreamEPNS0_2io16CodedInputStreamE
yn:__ZNK6google8protobuf8internal26GeneratedMessageReflection17GetRepeatedUInt32ERKNS0_7MessageEPKNS0_15FieldDescriptorEi
DW:__ZNK6google8protobuf16RepeatedPtrFieldIN14chrome_lang_id18TaskSpec_ParameterEE3GetEi
Lu:__ZNSt3__26vectorINS0_IN14chrome_lang_id16EmbeddingNetwork13VectorWrapperENS_9allocatorIS3_EEEENS4_IS6_EEE26__swap_out_circular_bufferERNS_14__split_bufferIS6_RS7_EE
E$:__ZN6google8protobuf8internal21arena_destruct_objectINS0_13RepeatedFieldIfEEEEvPv
af:__ZNK6google8protobuf8internal26GeneratedMessageReflection10SwapFieldsEPNS0_7MessageES4_RKNSt3__26vectorIPKNS0_15FieldDescriptorENS5_9allocatorIS9_EEEE
Pw:__ZN6google8protobuf5Arena15AllocateAlignedEPKSt9type_infoj
fJ:__ZNSt3__29to_stringEx
AE:___overflow
bS:__GLOBAL__sub_I_field_mask_pb_cc
TR:__ZN6google8protobuf62protobuf_ShutdownFile_google_2fprotobuf_2ffield_5fmask_2eprotoEv
eia:__ZNKSt3__26vectorIPN14chrome_lang_id11FeatureTypeENS_9allocatorIS3_EEE8max_sizeEv
ly:_memset
n:cttz_i8
un:__ZN14chrome_lang_id18TaskSpec_Parameter15UnsafeMergeFromERKS0_
aX:__ZNSt3__210__function6__funcIPFbPKcPiENS_9allocatorIS6_EES5_EclEOS3_OS4_
zj:__ZNSt3__26vectorINS_12basic_stringIcNS_11char_traitsIcEENS_9allocatorIcEEEENS4_IS6_EEE6assignIN6google8protobuf8internal19RepeatedPtrIteratorIKS6_EEEENS_9enable_ifIXaasr21__is_forward_iteratorIT_EE5valuesr16is_constructibleIS6_NS_15iterator_traitsISH_E9referenceEEE5valueEvE4typeESH_SH_
oka:__ZN6google8protobuf8internal16FunctionClosure0D0Ev
Ud:__ZN14chrome_lang_id5Token27MergePartialFromCodedStreamEPN6google8protobuf2io16CodedInputStreamE
Gfa:__ZNK6google8protobuf4Type13SetCachedSizeEi
Gi:__ZNK6google8protobuf15FieldDescriptor15GetLocationPathEPNSt3__26vectorIiNS2_9allocatorIiEEEE
UP:__ZN6google8protobuf8internal14ArenaStringPtr14DestroyNoArenaEPKNSt3__212basic_stringIcNS3_11char_traitsIcEENS3_9allocatorIcEEEE
Lv:__ZNK6google8protobuf11MapValueRef14GetDoubleValueEv
qea:__ZNSt3__26vectorIiNS_9allocatorIiEEED2Ev
eu:__ZNK6google8protobuf14DescriptorPool34TryFindExtensionInFallbackDatabaseEPKNS0_10DescriptorEi
Q4:__ZN6google8protobuf8internal18GenericTypeHandlerIN14chrome_lang_id10TaskOutputEE5ClearEPS4_
f$:__ZNK14chrome_lang_id18TaskSpec_Parameter5valueEv
pn:__ZNK6google8protobuf8internal26GeneratedMessageReflection9GetUInt64ERKNS0_7MessageEPKNS0_15FieldDescriptorE
cha:__ZNK6google8protobuf10FloatValue20GetMaybeArenaPointerEv
nN:__ZN14chrome_lang_id4CLD221ScanToLetterOrSpecialEPKci
jea:__ZN6google8protobuf2io16CodedInputStream10LastTagWasEj
fB:__ZN10emscripten8internal13MethodInvokerIMNSt3__26vectorIN14chrome_lang_id22NNetLanguageIdentifier6ResultENS2_9allocatorIS6_EEEEFvjRKS6_EvPS9_JjSB_EE6invokeERKSD_SE_jPS6_
yfa:__ZNK6google8protobuf5Mixin13SetCachedSizeEi
hV:__ZNK14chrome_lang_id10TaskOutput3NewEPN6google8protobuf5ArenaE
Eb:init_emval
Paa:__ZNK6google8protobuf10BytesValue3NewEv
nF:__ZN6google8protobuf14SourceCodeInfo5ClearEv
Fga:__ZNK6google8protobuf17FileDescriptorSet13GetCachedSizeEv
qja:__ZNK6google8protobuf6Struct13GetCachedSizeEv
L$:__ZNK14chrome_lang_id5Token14unknown_fieldsEv
aka:__ZNK6google8protobuf3Api13GetCachedSizeEv
pe:__ZN6google8protobuf17DescriptorBuilder19ValidateEnumOptionsEPNS0_14EnumDescriptorERKNS0_19EnumDescriptorProtoE
nd:_fmt_fp
rP:__ZN14chrome_lang_id9Parameter9set_valueERKNSt3__212basic_stringIcNS1_11char_traitsIcEENS1_9allocatorIcEEEE
bF:__ZN6google8protobuf8internal21arena_destruct_objectINS0_16RepeatedPtrFieldINS0_7MessageEEEEEvPv
vZ:__ZNK6google8protobuf11UInt64Value8GetArenaEv
FM:__ZNK6google8protobuf20FieldDescriptorProto11GetMetadataEv
o:__THREW__
wW:__ZNK14chrome_lang_id8TaskSpec3NewEPN6google8protobuf5ArenaE
We:__ZNSt3__212__hash_tableINS_17__hash_value_typeINS_12basic_stringIcNS_11char_traitsIcEENS_9allocatorIcEEEEN6google8protobuf25FieldDescriptorProto_TypeEEENS_22__unordered_map_hasherIS7_SB_NS9_4hashIS7_EELb1EEENS_21__unordered_map_equalIS7_SB_NS_8equal_toIS7_EELb1EEENS5_ISB_EEE20__node_insert_uniqueEPNS_11__hash_nodeISB_PvEE
bja:__ZNSt3__210__function6__funcIPFbPKcPiENS_9allocatorIS6_EES5_E7destroyEv
WO:__ZNK14chrome_lang_id16FeatureExtractorINS_8SentenceEJEE10PreprocessEPNS_12WorkspaceSetEPS1_
gx:__ZNSt3__26vectorINS_12basic_stringIcNS_11char_traitsIcEENS_9allocatorIcEEEENS4_IS6_EEE26__swap_out_circular_bufferERNS_14__split_bufferIS6_RS7_EE
Kb:validateThis
Ida:__ZN6google8protobuf14MessageOptionsD0Ev
YN:__ZN6google8protobuf9ListValue5ClearEv
n5:__ZN14chrome_lang_id11TaskContextC2Ev
Fl:__ZNK6google8protobuf9EnumValue12ByteSizeLongEv
ER:__ZN14chrome_lang_id17WorkspaceRegistryC2Ev
vaa:__ZNK6google8protobuf11StringValue3NewEv
Yha:__ZNK14chrome_lang_id14LangIdNNParams35embedding_features_domain_size_sizeEv
u4:__ZNKSt3__26vectorIN14chrome_lang_id22NNetLanguageIdentifier6ResultENS_9allocatorIS3_EEE4sizeEv
cba:__ZN14chrome_lang_id21RelevantScriptFeatureD0Ev
V$:__ZN14chrome_lang_id4CLD29OffsetMap4EmitENS1_5MapOpEi
RK:__ZNSt3__214__split_bufferIN14chrome_lang_id16FeatureExtractorINS1_8SentenceEJEEERNS_9allocatorIS4_EEED2Ev
D3:__ZNK6google8protobuf11UInt64Value31SerializeWithCachedSizesToArrayEPh
Hg:__ZN6google8protobuf17DescriptorBuilder17OptionInterpreter20ExamineIfOptionIsSetENSt3__211__wrap_iterIPKPKNS0_15FieldDescriptorEEESA_S7_RKNS3_12basic_stringIcNS3_11char_traitsIcEENS3_9allocatorIcEEEERKNS0_15UnknownFieldSetE
rQ:__ZN6google8protobuf8internal16FunctionClosure1IPNSt3__24pairIPKNS0_20FileDescriptorTablesEPKNS0_14SourceCodeInfoEEEE3RunEv
Gaa:__ZNK6google8protobuf8internal20RepeatedFieldWrapperIjE7IsEmptyEPKv
LL:__ZN6google8protobuf5Arena18CreateMaybeMessageIN14chrome_lang_id9ParameterEEEPT_PS1_z
i5:__ZN14chrome_lang_id12_GLOBAL__N_119CheckNoQuantizationENS_22EmbeddingNetworkParams6MatrixE
sX:__ZNK6google8protobuf16RepeatedPtrFieldIN14chrome_lang_id14TaskInput_PartEE3GetEi
bJ:__ZNK6google8protobuf8internal23RepeatedPtrFieldWrapperINSt3__212basic_stringIcNS3_11char_traitsIcEENS3_9allocatorIcEEEEE10RemoveLastEPv
ts:__ZNSt3__26vectorINS_4pairINS_12basic_stringIcNS_11char_traitsIcEENS_9allocatorIcEEEEfEENS5_IS8_EEE24__emplace_back_slow_pathIJRKS7_RKiEEEvDpOT_
Tb:__embind_register_void
Kga:__ZNK14chrome_lang_id14LangIdNNParams21softmax_bias_num_colsEi
Aw:__ZN6google8protobuf2io9Tokenizer22TryConsumeCommentStartEv
Mfa:__ZN14chrome_lang_id9TaskInputD0Ev
mB:__ZN6google8protobuf24EnumValueDescriptorProtoD2Ev
M_:__ZN6google8protobuf14FatalExceptionD0Ev
qT:__ZNK6google8protobuf28UninterpretedOption_NamePart3NewEPNS0_5ArenaE
zH:__ZN6google8protobuf8internal14WireFormatLite36ReadMessageNoVirtualNoRecursionDepthIN14chrome_lang_id25FeatureFunctionDescriptorEEEbPNS0_2io16CodedInputStreamEPT_
_Z:__ZNK6google8protobuf6Struct8GetArenaEv
v6:__ZNK14chrome_lang_id13FeatureVector5valueEi
_Q:__ZNSt3__213__vector_baseIPN14chrome_lang_id11FeatureTypeENS_9allocatorIS3_EEED2Ev
dt:__ZN14chrome_lang_id23GenericFeatureExtractor22InitializeFeatureTypesEv
Yz:__ZNSt3__212basic_stringIcNS_11char_traitsIcEENS_9allocatorIcEEE5eraseEjj
bj:__ZN6google8protobuf2io16CodedInputStream15ReadTagFallbackEj
qC:__ZNSt3__26__treeINS_12__value_typeIPKN6google8protobuf15FieldDescriptorEPKNS3_10TextFormat17FieldValuePrinterEEENS_19__map_value_compareIS6_SB_NS_4lessIS6_EELb1EEENS_9allocatorISB_EEE7destroyEPNS_11__tree_nodeISB_PvEE
jz:__ZN6google8protobuf17FileDescriptorSetD2Ev
$da:__ZN6google8protobuf13MethodOptionsD0Ev
SE:__ZN6google8protobuf3ApiC2Ev
oI:__ZNK6google8protobuf12OneofOptions13IsInitializedEv
q$:__ZNK14chrome_lang_id10TaskOutput11file_formatEv
oC:__ZN6google8protobuf8internal20RepeatedPtrFieldBase9MergeFromINS0_16RepeatedPtrFieldIN14chrome_lang_id9ParameterEE11TypeHandlerEEEvRKS2_
bX:__ZNK6google8protobuf21MethodDescriptorProto13IsInitializedEv
DQ:__ZN6google8protobuf30DescriptorProto_ExtensionRange5ClearEv
O_:__ZNK14chrome_lang_id14TaskInput_Part11file_formatEv
PB:__ZN6google8protobuf8internal8MapFieldINSt3__212basic_stringIcNS3_11char_traitsIcEENS3_9allocatorIcEEEENS0_5ValueELNS1_14WireFormatLite9FieldTypeE9ELSC_11ELi0EE4SwapEPNS1_12MapFieldLiteIS9_SA_LSC_9ELSC_11ELi0EEE
YX:__ZN6google8protobuf8internal21InitShutdownFunctionsEv
j9:__ZNK6google8protobuf8internal16MapFieldAccessor16ConvertFromEntryERKNS0_7MessageEPv
T6:__ZN14chrome_lang_id29ContinuousBagOfNgramsFunctionC2Ev
n1:__ZN6google8protobuf5Arena3OwnINS0_24EnumValueDescriptorProtoEEEvPT_
NN:__ZN6google8protobuf4Enum9MergeFromERKNS0_7MessageE
AD:__ZN6google8protobuf8internal10OnShutdownEPFvvE
Wp:__ZNK14chrome_lang_id8Sentence24SerializeWithCachedSizesEPN6google8protobuf2io17CodedOutputStreamE
BY:__ZN14chrome_lang_id9TaskInput9MergeFromERKS0_
Qla:__ZNK6google8protobuf10FloatValue13IsInitializedEv
OJ:__ZThn28_N6google8protobuf8internal8MapFieldINSt3__212basic_stringIcNS3_11char_traitsIcEENS3_9allocatorIcEEEENS0_5ValueELNS1_14WireFormatLite9FieldTypeE9ELSC_11ELi0EED0Ev
Yk:__ZNK6google8protobuf8internal26GeneratedMessageReflection19GetRawRepeatedFieldERKNS0_7MessageEPKNS0_15FieldDescriptorENS6_7CppTypeEiPKNS0_10DescriptorE
lk:__ZN6google8protobuf8internal10WireFormat24ComputeUnknownFieldsSizeERKNS0_15UnknownFieldSetE
r_:__ZN6google8protobuf2io22LazyStringOutputStreamD2Ev
Zia:__ZN6google8protobuf8internal5MutexC2Ev
xha:__ZSt15get_new_handlerv
wF:__ZN6google8protobuf9Timestamp9MergeFromERKNS0_7MessageE
WK:__ZN6google8protobuf18GoogleOnceInitImplEPiPNS0_7ClosureE
QD:__ZNSt3__212basic_stringIcNS_11char_traitsIcEENS_9allocatorIcEEE6resizeEjc
q3:__ZN14chrome_lang_id26FeatureExtractorDescriptor11add_featureEv
Ip:__ZN6google8protobuf2io17CodedOutputStream19WriteLittleEndian64Ey
ema:__ZNK6google8protobuf14DynamicMessage8GetArenaEv
U_:__ZNK14chrome_lang_id10TaskOutput14file_extensionEv
vla:__ZNK14chrome_lang_id14LangIdNNParams12softmax_sizeEv
Ag:__ZN6google8protobuf14DescriptorPool6Tables9AddSymbolERKNSt3__212basic_stringIcNS3_11char_traitsIcEENS3_9allocatorIcEEEENS0_12_GLOBAL__N_16SymbolE
qa:floatReadValueFromPointer
Ln:__ZNK6google8protobuf8internal26GeneratedMessageReflection20GetRepeatedEnumValueERKNS0_7MessageEPKNS0_15FieldDescriptorEi
My:__ZNK6google8protobuf9FieldMask39InternalSerializeWithCachedSizesToArrayEbPh
Yi:__ZN6google8protobuf10TextFormat6Parser10ParserImpl16SkipFieldMessageEv
cF:__ZN6google8protobuf66protobuf_AddDesc_google_2fprotobuf_2fsource_5fcontext_2eproto_implEv
Gs:_memchr
Gc:__ZNK6google8protobuf8internal12ExtensionSet9Extension44InternalSerializeFieldWithCachedSizesToArrayEibPh
x9:__ZN6google8protobuf2io17CodedOutputStream20VarintSize32FallbackEj
z5:__ZN6google8protobuf8internal26FunctionResultCallback_1_0IPNSt3__212basic_stringIcNS3_11char_traitsIcEENS3_9allocatorIcEEEEPN14chrome_lang_id8SentenceEED2Ev
Hm:__ZNK6google8protobuf10TextFormat7Printer5PrintERKNS0_7MessageERNS2_13TextGeneratorE
Nea:__ZN6google8protobuf12_GLOBAL__N_1L13MergeFromFailEi_550
wo:__ZNSt3__26vectorINS_12basic_stringIcNS_11char_traitsIcEENS_9allocatorIcEEEENS4_IS6_EEE21__push_back_slow_pathIKS6_EEvRT_
so:__ZNK6google8protobuf8internal26GeneratedMessageReflection8GetFloatERKNS0_7MessageEPKNS0_15FieldDescriptorE
qD:__ZNK6google8protobuf8internal8MapEntryINSt3__212basic_stringIcNS3_11char_traitsIcEENS3_9allocatorIcEEEENS0_5ValueELNS1_14WireFormatLite9FieldTypeE9ELSC_11ELi0EE5valueEv
jS:__ZN6google8protobuf16RepeatedPtrFieldINSt3__212basic_stringIcNS2_11char_traitsIcEENS2_9allocatorIcEEEEE9MergeFromERKS9_
KA:__ZNK6google8protobuf12OneofOptions24SerializeWithCachedSizesEPNS0_2io17CodedOutputStreamE
fO:__ZNKSt3__212basic_stringIcNS_11char_traitsIcEENS_9allocatorIcEEE4findEcj
m_:__ZN6google8protobuf8internal18GenericTypeHandlerINS0_23SourceCodeInfo_LocationEE16NewFromPrototypeEPKS3_PNS0_5ArenaE
yb:craftInvokerFunction
BZ:__ZN14chrome_lang_id16FeatureExtractorINS_8SentenceEJEEC2Ev
Xu:__ZNK6google8protobuf8internal12ExtensionSet18GetRepeatedMessageEii
Sk:__ZNK6google8protobuf8internal26GeneratedMessageReflection23MutableRawRepeatedFieldEPNS0_7MessageEPKNS0_15FieldDescriptorENS5_7CppTypeEiPKNS0_10DescriptorE
B3:__ZN14chrome_lang_id25FeatureFunctionDescriptor11add_featureEv
o2:__ZNK6google8protobuf19UninterpretedOption31SerializeWithCachedSizesToArrayEPh
iha:__ZN6google8protobuf5Value5ClearEv
$m:__ZNK6google8protobuf14DescriptorPool6Tables10FindSymbolERKNSt3__212basic_stringIcNS3_11char_traitsIcEENS3_9allocatorIcEEEE
Aa:_emscripten_memcpy_big
Ba:runDestructor
qh:__ZNSt3__212__hash_tableINS_17__hash_value_typeIPKcPKN6google8protobuf14FileDescriptorEEENS_22__unordered_map_hasherIS3_S9_NS5_4hashIS3_EELb1EEENS_21__unordered_map_equalIS3_S9_NS5_5streqELb1EEENS_9allocatorIS9_EEE8__rehashEj
FH:__ZN14chrome_lang_id13ScriptFeature4InitEPNS_11TaskContextE
Tq:__ZNK6google8protobuf30DescriptorProto_ExtensionRange39InternalSerializeWithCachedSizesToArrayEbPh
an:__ZNK6google8protobuf5Value12ByteSizeLongEv
Rn:__ZNK6google8protobuf8internal26GeneratedMessageReflection15GetRepeatedBoolERKNS0_7MessageEPKNS0_15FieldDescriptorEi
UG:__ZN14chrome_lang_id25FeatureFunctionDescriptor10SharedDtorEv
Xe:__ZNSt3__215__inplace_mergeIRN6google8protobuf25MapEntryMessageComparatorENS_11__wrap_iterIPPKNS2_7MessageEEEEEvT0_SB_SB_T_NS_15iterator_traitsISB_E15difference_typeESF_PNSE_10value_typeEi
Tia:__ZNK6google8protobuf9FieldMask13GetCachedSizeEv
uB:__ZN6google8protobuf20OneofDescriptorProtoD2Ev
F3:__ZNK6google8protobuf11StringValue31SerializeWithCachedSizesToArrayEPh
os:__ZN6google8protobuf16RepeatedPtrFieldINS0_30DescriptorProto_ExtensionRangeEE9MergeFromERKS3_
S3:__ZNK6google8protobuf8internal26GeneratedMessageReflection25SupportsUnknownEnumValuesEv
lea:__ZN12_GLOBAL__N_1L20register_memory_viewIsEEvPKc
zq:__ZNSt3__26vectorIPN6google8protobuf20FileDescriptorTablesENS_9allocatorIS4_EEE8__appendEj
lma:__ZNKSt3__220__vector_base_commonILb1EE20__throw_length_errorEv
tna:___cxa_pure_virtual__wrapper
tia:__ZNK6google8protobuf11FileOptions13GetCachedSizeEv
Ww:__ZNK6google8protobuf6MapKey14GetUInt32ValueEv
XS:__ZN6google8protobuf13SourceContext5ClearEv
H$:__ZN6google8protobuf8internal18GenericTypeHandlerIN14chrome_lang_id14TaskInput_PartEE3NewEPNS0_5ArenaE
yY:__ZN10emscripten8internal10getContextIMN14chrome_lang_id22NNetLanguageIdentifier6ResultENSt3__212basic_stringIcNS5_11char_traitsIcEENS5_9allocatorIcEEEEEEPT_RKSD_
Hna:stackSave
Cea:__ZN6google8protobuf12OneofOptionsD0Ev
Q$:__ZN6google8protobuf5Arena3OwnIN14chrome_lang_id25FeatureFunctionDescriptorEEEvPT_
q6:__ZN14chrome_lang_id4CLD216UNALIGNED_LOAD32EPKv
Zea:__ZNK6google8protobuf9Timestamp13SetCachedSizeEi
GZ:__ZNK6google8protobuf10FloatValue8GetArenaEv
Up:__ZN6google8protobuf8internal14WireFormatLite12WriteMessageEiRKNS0_11MessageLiteEPNS0_2io17CodedOutputStreamE
nA:__ZN6google8protobuf25EncodedDescriptorDatabase14FindFileByNameERKNSt3__212basic_stringIcNS2_11char_traitsIcEENS2_9allocatorIcEEEEPNS0_19FileDescriptorProtoE
Yba:__ZNK6google8protobuf5Field3NewEv
hq:__ZNSt3__26vectorIfNS_9allocatorIfEEE6assignIPKfEENS_9enable_ifIXaasr21__is_forward_iteratorIT_EE5valuesr16is_constructibleIfNS_15iterator_traitsIS8_E9referenceEEE5valueEvE4typeES8_S8_
G8:__ZN14chrome_lang_id12_GLOBAL__N_115LangChunksStatsC2Ev
x:tempValue
mq:__ZN6google8protobuf8internal20RepeatedPtrFieldBase14InternalExtendEi
oha:__ZNSt3__210__function6__funcIPFbPKcPiENS_9allocatorIS6_EES5_ED0Ev
QV:__ZN6google8protobuf14MessageOptions8CopyFromERKNS0_7MessageE
qm:__ZNK6google8protobuf8internal26GeneratedMessageReflection8MapBeginEPNS0_7MessageEPKNS0_15FieldDescriptorE
LS:__ZNK6google8protobuf8internal20RepeatedFieldWrapperIxE3SetEPviPKv
Yma:__ZN6google8protobuf2io14ErrorCollectorD2Ev
TP:__ZN6google8protobuf8internal21StringTypeHandlerBase5ClearEPNSt3__212basic_stringIcNS3_11char_traitsIcEENS3_9allocatorIcEEEE
py:__ZNK6google8protobuf12OneofOptions12ByteSizeLongEv
hz:__ZN6google8protobuf8internal14WireFormatLite11WriteDoubleEidPNS0_2io17CodedOutputStreamE
bT:__ZN6google8protobuf8internal18GenericTypeHandlerINS0_24EnumValueDescriptorProtoEE5MergeERKS3_PS3_
uU:__ZN6google8protobuf8internal29CodedOutputStreamFieldSkipper9SkipFieldEPNS0_2io16CodedInputStreamEj
ZY:__ZN6google8protobuf16RepeatedPtrFieldIN14chrome_lang_id18TaskSpec_ParameterEED2Ev
VE:__ZN6google8protobuf6StructC2Ev
eja:__ZNK14chrome_lang_id9TaskInput14has_multi_fileEv
Wc:__ZN6google8protobuf17DescriptorBuilder17OptionInterpreter14SetOptionValueEPKNS0_15FieldDescriptorEPNS0_15UnknownFieldSetE
Vm:__ZNSt3__212__hash_tableINS_17__hash_value_typeIPKcPKN6google8protobuf14FileDescriptorEEENS_22__unordered_map_hasherIS3_S9_NS5_4hashIS3_EELb1EEENS_21__unordered_map_equalIS3_S9_NS5_5streqELb1EEENS_9allocatorIS9_EEE6removeENS_21__hash_const_iteratorIPNS_11__hash_nodeIS9_PvEEEE
Uz:__ZN6google8protobuf8internal18GenericTypeHandlerINS0_5MixinEE5MergeERKS3_PS3_
Gk:__ZNK14chrome_lang_id9TaskInput24SerializeWithCachedSizesEPN6google8protobuf2io17CodedOutputStreamE
oia:__ZNK6google8protobuf6Struct20GetMaybeArenaPointerEv
X0:__ZN6google8protobuf8internal19arena_delete_objectIN14chrome_lang_id9ParameterEEEvPv
rz:__ZN6google8protobuf8internal8MapFieldINSt3__212basic_stringIcNS3_11char_traitsIcEENS3_9allocatorIcEEEENS0_5ValueELNS1_14WireFormatLite9FieldTypeE9ELSC_11ELi0EEC2Ev
Wia:__ZNK14chrome_lang_id9TaskInput13GetCachedSizeEv
SK:__ZNK6google8protobuf19UninterpretedOption13IsInitializedEv
Bt:__ZNK6google8protobuf11MapValueRef14GetUInt64ValueEv
JA:__ZN6google8protobuf13RepeatedFieldIdE9MergeFromERKS2_
yia:__ZN6google8protobuf8internal21arena_destruct_objectINS0_11MapValueRefEEEvPv
gba:__ZNK6google8protobuf9ListValue3NewEv
rV:__ZN6google8protobuf8internal16FunctionClosure03RunEv
WI:__ZN6google8protobuf8internal17DefaultLogHandlerENS0_8LogLevelEPKciRKNSt3__212basic_stringIcNS5_11char_traitsIcEENS5_9allocatorIcEEEE
lZ:__ZN6google8protobuf16RepeatedPtrFieldIN14chrome_lang_id10TaskOutputEE3AddEv
mka:__ZNK14chrome_lang_id9Parameter9has_valueEv
yda:__ZNK6google8protobuf8internal20RepeatedFieldWrapperIdE4SizeEPKv
Z_:__ZN14chrome_lang_id22GenericFeatureFunction16set_feature_typeEPNS_11FeatureTypeE
Vba:stackAlloc
_O:__ZNSt3__214__split_bufferIN14chrome_lang_id13FeatureVector7ElementERNS_9allocatorIS3_EEED2Ev
sp:__ZNK6google8protobuf19FileDescriptorProto13IsInitializedEv
Qp:__ZNK10__cxxabiv121__vmi_class_type_info16search_above_dstEPNS_19__dynamic_cast_infoEPKvS4_ib
Naa:__ZNK6google8protobuf10Int32Value3NewEv
aN:__ZNK6google8protobuf14SourceCodeInfo11GetMetadataEv
pM:__ZN14chrome_lang_id4CLD212LookupEntityEPKci
_U:__ZNK6google8protobuf8internal8MapFieldINSt3__212basic_stringIcNS3_11char_traitsIcEENS3_9allocatorIcEEEENS0_5ValueELNS1_14WireFormatLite9FieldTypeE9ELSC_11ELi0EE6GetMapEv
Nh:__ZN6google8protobuf3MapINSt3__212basic_stringIcNS2_11char_traitsIcEENS2_9allocatorIcEEEENS0_5ValueEE8InnerMap13iterator_baseINSA_12KeyValuePairEEppEv
Xa:createNamedFunction
Ada:__ZNK6google8protobuf16EnumValueOptions13SetCachedSizeEi
yq:__ZNSt3__212__hash_tableINS_17__hash_value_typeINS_12basic_stringIcNS_11char_traitsIcEENS_9allocatorIcEEEEPN6google8protobuf7MapPairIS7_NS9_5ValueEEEEENS_22__unordered_map_hasherIS7_SE_NS9_4hashIS7_EELb1EEENS_21__unordered_map_equalIS7_SE_NS_8equal_toIS7_EELb1EEENS9_3MapIS7_SB_E12MapAllocatorISE_EEE6rehashEj
CH:__ZN6google8protobuf9FieldMask9MergeFromERKNS0_7MessageE
$ba:__ZNK14chrome_lang_id5Token3NewEv
ha:invoke_viii
eA:__ZN6google8protobuf21MethodDescriptorProto10SharedDtorEv
ila:__ZNSt3__211char_traitsIcE2eqEcc
$la:__ZNK6google8protobuf9Timestamp13IsInitializedEv
zV:__ZN6google8protobuf8internal9down_castIPKN14chrome_lang_id9TaskInputEKNS0_11MessageLiteEEET_PT0_
ja:invoke_viid
pB:__ZNK6google8protobuf28UninterpretedOption_NamePart24SerializeWithCachedSizesEPNS0_2io17CodedOutputStreamE
ao:__ZN6google8protobuf22ServiceDescriptorProto15UnsafeMergeFromERKS1_
KR:__ZN14chrome_lang_id18TaskSpec_Parameter12mutable_nameEv
n4:__ZN6google8protobuf14FatalExceptionD2Ev
taa:__ZNK6google8protobuf11UInt64Value3NewEv
qu:__ZNK6google8protobuf8internal16MapFieldAccessor3AddEPvPKv
F$:__ZN6google8protobuf8internal21arena_destruct_objectINS0_13RepeatedFieldIdEEEEvPv
dC:__ZN6google8protobuf53protobuf_ShutdownFile_google_2fprotobuf_2fapi_2eprotoEv
bm:__ZN6google8protobuf16CEscapeAndAppendENS0_11StringPieceEPNSt3__212basic_stringIcNS2_11char_traitsIcEENS2_9allocatorIcEEEE
jp:__ZNK6google8protobuf21MethodDescriptorProto24SerializeWithCachedSizesEPNS0_2io17CodedOutputStreamE
ee:__ZN6google8protobuf2io9Tokenizer4NextEv
hb:ensureOverloadTable
nda:__ZNK6google8protobuf17GeneratedCodeInfo13SetCachedSizeEi
gC:__ZNSt3__26__treeINS_12__value_typeIiNS_12basic_stringIcNS_11char_traitsIcEENS_9allocatorIcEEEEEENS_19__map_value_compareIiS8_NS_4lessIiEELb1EEENS5_IS8_EEE7destroyEPNS_11__tree_nodeIS8_PvEE
xE:__ZNK6google8protobuf9Timestamp12ByteSizeLongEv
Dj:__ZN14chrome_lang_id26FeatureExtractorDescriptor27MergePartialFromCodedStreamEPN6google8protobuf2io16CodedInputStreamE
Ti:__ZNK6google8protobuf6MapKeyeqERKS1_
OM:__ZN6google8protobuf8internal26FunctionResultCallback_1_0IPNSt3__212basic_stringIcNS3_11char_traitsIcEENS3_9allocatorIcEEEEPN14chrome_lang_id26FeatureExtractorDescriptorEE3RunEv
FA:__ZN6google8protobuf13RepeatedFieldIxE9MergeFromERKS2_
cja:__ZNK6google8protobuf8Duration13GetCachedSizeEv
nU:__ZNK6google8protobuf8internal8MapEntryINSt3__212basic_stringIcNS3_11char_traitsIcEENS3_9allocatorIcEEEENS0_5ValueELNS1_14WireFormatLite9FieldTypeE9ELSC_11ELi0EE13IsInitializedEv
Nha:__ZN6google8protobuf8internal14WireFormatLite17GetTagFieldNumberEj
dY:__ZNK6google8protobuf16RepeatedPtrFieldIN14chrome_lang_id9TaskInputEE3GetEi
_2:__ZN6google8protobuf8internal19arena_delete_objectINS0_7MessageEEEvPv
X2:__ZNK6google8protobuf15DescriptorProto31SerializeWithCachedSizesToArrayEPh
Jc:__ZNK6google8protobuf8internal26GeneratedMessageReflection9SwapFieldEPNS0_7MessageES4_PKNS0_15FieldDescriptorE
im:__ZNK6google8protobuf8internal26GeneratedMessageReflection8SetFieldIiEEvPNS0_7MessageEPKNS0_15FieldDescriptorERKT_
aC:__ZNSt3__212__hash_tableINS_17__hash_value_typeINS_10type_indexENS_6vectorIPN14chrome_lang_id9WorkspaceENS_9allocatorIS6_EEEEEENS_22__unordered_map_hasherIS2_SA_NS_4hashIS2_EELb1EEENS_21__unordered_map_equalIS2_SA_NS_8equal_toIS2_EELb1EEENS7_ISA_EEE21__construct_node_hashIRKNS_21piecewise_construct_tEJNS_5tupleIJRKS2_EEENSP_IJEEEEEENS_10unique_ptrINS_11__hash_nodeISA_PvEENS_22__hash_node_destructorINS7_ISX_EEEEEEjOT_DpOT0_
sq:__ZN6google8protobuf2io9TokenizerC2EPNS1_19ZeroCopyInputStreamEPNS1_14ErrorCollectorE
GN:__ZN6google8protobuf5Arena18CreateMaybeMessageINS0_6MethodEEEPT_PS1_z
yh:__ZNSt3__213unordered_mapINS_10type_indexENS_6vectorIPN14chrome_lang_id9WorkspaceENS_9allocatorIS5_EEEENS_4hashIS1_EENS_8equal_toIS1_EENS6_INS_4pairIKS1_S8_EEEEEixERSE_
go:__ZN6google8protobuf3MapINSt3__212basic_stringIcNS2_11char_traitsIcEENS2_9allocatorIcEEEENS0_5ValueEE8InnerMap18InsertUniqueInTreeEjPNSB_4NodeE
jo:__ZNK6google8protobuf14EnumDescriptor15GetLocationPathEPNSt3__26vectorIiNS2_9allocatorIiEEEE
vha:_strtoll
Zda:__ZN6google8protobuf17DescriptorBuilder17OptionInterpreter21AggregateOptionFinderD0Ev
_:invoke_dii
H9:__ZNK6google8protobuf8internal33RandomAccessRepeatedFieldAccessor14DeleteIteratorEPKvPv
Jfa:__ZN6google8protobuf9ListValueD0Ev
UE:__ZNK14chrome_lang_id18TaskSpec_Parameter11GetTypeNameEv
Rka:__ZN14chrome_lang_id4CLD29NeqLetterEc
zaa:__ZNK14chrome_lang_id14LangIdNNParams22embedding_num_featuresEi
uR:__ZNK6google8protobuf14DynamicMessage3NewEv
iga:__ZNSt3__215__refstring_imp12_GLOBAL__N_113data_from_repEPNS1_9_Rep_baseE
I9:__ZNK6google8protobuf17GeneratedCodeInfo3NewEv
sja:__ZNK6google8protobuf6Method13GetCachedSizeEv
VH:__ZN6google8protobuf12safe_strto32ERKNSt3__212basic_stringIcNS1_11char_traitsIcEENS1_9allocatorIcEEEEPi
M:Math_log
na:invoke_iii
Cx:__ZNK6google8protobuf14ServiceOptions12ByteSizeLongEv
hca:__ZNK6google8protobuf4Enum3NewEv
nk:__ZN6google8protobuf11StringValue27MergePartialFromCodedStreamEPNS0_2io16CodedInputStreamE
eX:__ZN6google8protobuf5Mixin8CopyFromERKNS0_7MessageE
iD:__ZNK6google8protobuf30DescriptorProto_ExtensionRange24SerializeWithCachedSizesEPNS0_2io17CodedOutputStreamE
BQ:__ZNSt3__26vectorIfNS_9allocatorIfEEE18__construct_at_endIPKfEENS_9enable_ifIXsr21__is_forward_iteratorIT_EE5valueEvE4typeES8_S8_j
qY:__ZN6google8protobuf16RepeatedPtrFieldIN14chrome_lang_id18TaskSpec_ParameterEE3AddEv
caa:__ZN6google8protobuf8internal11LogFinisheraSERNS1_10LogMessageE
Ay:__ZNK14chrome_lang_id18TaskSpec_Parameter12ByteSizeLongEv
dP:__ZNK6google8protobuf8internal23TypeDefinedMapFieldBaseINSt3__212basic_stringIcNS3_11char_traitsIcEENS3_9allocatorIcEEEENS0_5ValueEE6MapEndEPNS0_11MapIteratorE
zg:__ZNSt3__26__treeIPN6google8protobuf6MapKeyENS2_3MapIS3_NS2_11MapValueRefEE8InnerMap10KeyCompareENS7_12MapAllocatorIS4_EEE12__find_equalIS4_EERPNS_16__tree_node_baseIPvEENS_21__tree_const_iteratorIS4_PNS_11__tree_nodeIS4_SF_EEiEERPNS_15__tree_end_nodeISH_EESI_RKT_
w6:__ZN6google8protobuf8internal21arena_destruct_objectINS0_24EnumValueDescriptorProtoEEEvPv
od:__ZN6google8protobuf2io9Tokenizer17ParseStringAppendERKNSt3__212basic_stringIcNS3_11char_traitsIcEENS3_9allocatorIcEEEEPS9_
o4:__ZN14chrome_lang_id4CLD2L11InStateZeroEPKNS0_19UTF8StateMachineObjEPKh
Bda:__ZNK14chrome_lang_id13FeatureVector4sizeEv
OV:__ZN6google8protobuf14SourceCodeInfo8CopyFromERKNS0_7MessageE
R3:__ZN14chrome_lang_id11UnicodeText4ReprD2Ev
zo:__ZNK6google8protobuf12FieldOptions12ByteSizeLongEv
uea:__ZNKSt3__26vectorIN14chrome_lang_id16EmbeddingNetwork15EmbeddingMatrixENS_9allocatorIS3_EEE8max_sizeEv
cS:__GLOBAL__sub_I_descriptor_pb_cc
a5:__ZNK6google8protobuf3Any31SerializeWithCachedSizesToArrayEPh
pD:__ZNSt3__218__search_substringIcNS_11char_traitsIcEEEEPKT_S5_S5_S5_S5_
JC:__ZN14chrome_lang_id13FeatureVector3addEPNS_11FeatureTypeEx
H5:__ZN6google8protobuf8internal21arena_destruct_objectINS0_30DescriptorProto_ExtensionRangeEEEvPv
LB:__ZNK6google8protobuf8internal12ExtensionSet9GetUInt64Eiy
Es:__ZN6google8protobuf3MapINS0_6MapKeyENS0_11MapValueRefEE8InnerMap11TreeConvertEj
mea:__ZN12_GLOBAL__N_1L20register_memory_viewIjEEvPKc
$V:__ZN6google8protobuf13MethodOptions8CopyFromERKNS0_7MessageE
LN:__ZNK6google8protobuf10FloatValue3NewEPNS0_5ArenaE
L8:__ZN6google8protobuf16RepeatedPtrFieldIN14chrome_lang_id5TokenEEC2Ev
$e:_hexfloat
y2:__ZN6google8protobuf8internal26FunctionResultCallback_1_0IPNSt3__212basic_stringIcNS3_11char_traitsIcEENS3_9allocatorIcEEEEPN14chrome_lang_id14TaskInput_PartEED0Ev
f:HEAPU32
_p:__ZN6google8protobuf8internal20RepeatedPtrFieldBase9MergeFromINS1_18GenericTypeHandlerINSt3__212basic_stringIcNS5_11char_traitsIcEENS5_9allocatorIcEEEEEEEEvRKS2_
dr:__ZN6google8protobuf2io16ArrayInputStream6BackUpEi
cca:__ZN6google8protobuf8internal17DeleteEmptyStringEv
fz:__ZN6google8protobuf12FieldOptionsD2Ev
vY:__ZN6google8protobuf2io17CodedOutputStream20WriteVarint32ToArrayEjPh
Ob:__embind_register_memory_view
ala:__ZNK14chrome_lang_id14LangIdNNParams16hidden_bias_sizeEv
Ak:__ZNSt3__212basic_stringIcNS_11char_traitsIcEENS_9allocatorIcEEE23__append_forward_unsafeIPKcEERS5_T_SA_
Sm:__ZNK6google8protobuf21MethodDescriptorProto39InternalSerializeWithCachedSizesToArrayEbPh
Ur:__ZNSt3__212__hash_tableINS_17__hash_value_typeINS_12basic_stringIcNS_11char_traitsIcEENS_9allocatorIcEEEEiEENS_22__unordered_map_hasherIS7_S8_NS_4hashIS7_EELb1EEENS_21__unordered_map_equalIS7_S8_NS_8equal_toIS7_EELb1EEENS5_IS8_EEE6rehashEj
kha:__ZN6google8protobuf5FieldD0Ev
fD:__ZNK6google8protobuf8internal12ExtensionSet8GetFloatEif
Lga:__ZNK14chrome_lang_id14LangIdNNParams21embeddings_quant_typeEi
Oi:__ZN6google8protobuf17DescriptorBuilder20ValidateFieldOptionsEPNS0_15FieldDescriptorERKNS0_20FieldDescriptorProtoE
QA:__ZNK6google8protobuf20OneofDescriptorProto24SerializeWithCachedSizesEPNS0_2io17CodedOutputStreamE
mm:__ZNK6google8protobuf19UninterpretedOption24SerializeWithCachedSizesEPNS0_2io17CodedOutputStreamE
Gba:__ZN14chrome_lang_id9ParameterD2Ev
_q:__ZNK6google8protobuf29DescriptorProto_ReservedRange39InternalSerializeWithCachedSizesToArrayEbPh
haa:__ZNK6google8protobuf8internal30RepeatedFieldPrimitiveAccessorIiE10ConvertToTEPKv
I5:__ZN6google8protobuf8internal21ExplicitlyConstructedIN14chrome_lang_id10TaskOutputEE16DefaultConstructEv
Kna:___lockfile
sda:_swapc
SH:__ZN14chrome_lang_id4CLD29OffsetMap6DeleteEi
wV:__ZN14chrome_lang_id10TaskOutput21CheckTypeAndMergeFromERKN6google8protobuf11MessageLiteE
hja:b15
bia:__ZN14chrome_lang_id4CLD22WSEc
Xca:__ZNK6google8protobuf19EnumDescriptorProto13SetCachedSizeEi
Ut:__ZNK6google8protobuf12UnknownField29SerializeLengthDelimitedNoTagEPNS0_2io17CodedOutputStreamE
T3:__ZNK6google8protobuf10TextFormat17FieldValuePrinter10PrintInt64Ex
fK:__ZNSt3__26__treeIPKN6google8protobuf10DescriptorENS_4lessIS5_EENS_9allocatorIS5_EEE7destroyEPNS_11__tree_nodeIS5_PvEE
$9:__ZNK6google8protobuf14ServiceOptions3NewEv
Bq:__ZN6google8protobuf10TextFormat7Printer13TextGenerator5WriteEPKcj
jb:downcastPointer
HM:__ZN10emscripten8internal18GenericBindingTypeINSt3__26vectorIN14chrome_lang_id22NNetLanguageIdentifier6ResultENS2_9allocatorIS6_EEEEE10toWireTypeEOS9_
w9:__ZNK14chrome_lang_id14LangIdNNParams30embedding_features_domain_sizeEi
ij:__ZNK6google8protobuf14DescriptorPool14FindFileByNameERKNSt3__212basic_stringIcNS2_11char_traitsIcEENS2_9allocatorIcEEEE
JD:__ZNSt3__214__split_bufferIN14chrome_lang_id16EmbeddingNetwork15EmbeddingMatrixERNS_9allocatorIS3_EEEC2EjjS6_
R4:__ZN14chrome_lang_idneERKNS_11UnicodeText14const_iteratorES3_
tB:__ZN6google8protobuf53protobuf_AddDesc_google_2fprotobuf_2fapi_2eproto_implEv
Uaa:__ZN14chrome_lang_id49protobuf_InitDefaults_feature_5fextractor_2eprotoEv
tQ:__ZNKSt3__212basic_stringIcNS_11char_traitsIcEENS_9allocatorIcEEE2atEj
lF:__ZN6google8protobuf62protobuf_AddDesc_google_2fprotobuf_2ffield_5fmask_2eproto_implEv
w8:__ZNK6google8protobuf8internal14ArenaStringPtr10GetNoArenaEPKNSt3__212basic_stringIcNS3_11char_traitsIcEENS3_9allocatorIcEEEE
Kz:__ZN6google8protobuf8internal14WireFormatLite10WriteInt64EixPNS0_2io17CodedOutputStreamE
v3:__ZN6google8protobuf8internal26FunctionResultCallback_1_0IPNSt3__212basic_stringIcNS3_11char_traitsIcEENS3_9allocatorIcEEEEPN14chrome_lang_id9TaskInputEED0Ev
Sia:__ZNK6google8protobuf9ListValue13GetCachedSizeEv
m6:__ZN6google8protobuf16RepeatedPtrFieldIN14chrome_lang_id25FeatureFunctionDescriptorEEC2Ev
Oja:dynCall_ii
Ge:__ZN6google8protobuf16EnumValueOptions27MergePartialFromCodedStreamEPNS0_2io16CodedInputStreamE
e8:__ZN14chrome_lang_id22GenericFeatureFunction13set_extractorEPNS_23GenericFeatureExtractorE
aO:__ZNK6google8protobuf10Int32Value3NewEPNS0_5ArenaE
pP:__ZN6google8protobuf9TimestampD0Ev
mca:__ZN14chrome_lang_id18TaskSpec_ParameterD0Ev
ika:__ZNK14chrome_lang_id25FeatureFunctionDescriptor8argumentEv
TD:__ZN6google8protobuf6StructD2Ev
hc:count_emval_handles
Baa:__ZN14chrome_lang_id22GenericFeatureFunctionD0Ev
b1:__ZNK6google8protobuf29DescriptorProto_ReservedRange31SerializeWithCachedSizesToArrayEPh
cC:__ZN6google8protobuf8internal31RegisterMapEntryDefaultInstanceEPNS0_11MessageLiteE
FY:__ZN14chrome_lang_id8TaskSpec9MergeFromERKS0_
VL:__ZN6google8protobuf11DoubleValueD2Ev
aK:__ZN6google8protobuf2io9TokenizerD2Ev
sN:__ZNK6google8protobuf11FileOptions11GetMetadataEv
wQ:__ZNSt3__26vectorIN14chrome_lang_id13FeatureVectorENS_9allocatorIS2_EEE18__construct_at_endEj
_w:__ZN6google8protobuf8internal14WireFormatLite9WriteBoolEibPNS0_2io17CodedOutputStreamE
Pq:__ZNK6google8protobuf11EnumOptions39InternalSerializeWithCachedSizesToArrayEbPh
zia:__ZNK6google8protobuf5Value20GetMaybeArenaPointerEv
Te:__ZNSt3__212__hash_tableINS_17__hash_value_typeINS_12basic_stringIcNS_11char_traitsIcEENS_9allocatorIcEEEEPKN6google8protobuf23SourceCodeInfo_LocationEEENS_22__unordered_map_hasherIS7_SD_NS9_4hashIS7_EELb1EEENS_21__unordered_map_equalIS7_SD_NS_8equal_toIS7_EELb1EEENS5_ISD_EEE20__node_insert_uniqueEPNS_11__hash_nodeISD_PvEE
vma:__ZN14chrome_lang_id22EmbeddingNetworkParamsD2Ev
mi:__ZN6google8protobuf2io16CodedInputStream20ReadVarint64FallbackEv
B$:__ZN6google8protobuf8internal21arena_destruct_objectINS0_13RepeatedFieldIxEEEEvPv
dl:__ZN6google8protobuf54protobuf_AssignDesc_google_2fprotobuf_2fstruct_2eprotoEv
Sja:__ZNK6google8protobuf4Type13GetCachedSizeEv
w7:__ZN10emscripten8internal13getActualTypeINSt3__26vectorIN14chrome_lang_id22NNetLanguageIdentifier6ResultENS2_9allocatorIS6_EEEEEEPKvPT_
fja:__ZNK14chrome_lang_id8TaskSpec13GetCachedSizeEv
V5:__ZN6google8protobuf8internal9SingletonINS1_30RepeatedFieldPrimitiveAccessorIdEEE4InitEv
Wo:__ZN6google8protobuf15UnknownFieldSet19MergeFromAndDestroyEPS1_
dx:__ZNK6google8protobuf8internal15DynamicMapField19SetMapIteratorValueEPNS0_11MapIteratorE
C:Math_sqrt
qna:__ZN6google8protobuf7ClosureD2Ev
ls:__ZN6google8protobuf6Method15UnsafeMergeFromERKS1_
Y8:__ZN14chrome_lang_id8Sentence9add_tokenEv
Cz:__ZNSt3__212basic_stringIcNS_11char_traitsIcEENS_9allocatorIcEEE6appendEjc
YP:__ZNK6google8protobuf10Int64Value39InternalSerializeWithCachedSizesToArrayEbPh
Qj:__ZN14chrome_lang_id4CLD215UTF8GenericScanEPKNS0_19UTF8StateMachineObjERKNS_11StringPieceEPi
Qv:__ZNSt3__26vectorIPvNS_9allocatorIS1_EEE21__push_back_slow_pathIKS1_EEvRT_
RU:__ZN6google8protobuf22ServiceDescriptorProto8CopyFromERKNS0_7MessageE
sfa:__ZNK6google8protobuf6Option13SetCachedSizeEi
R6:__ZN6google8protobuf8internal20RepeatedPtrFieldBase4castINS0_16RepeatedPtrFieldIN14chrome_lang_id10TaskOutputEE11TypeHandlerEEEPNT_4TypeEPv
Rl:__ZNSt3__212basic_stringIcNS_11char_traitsIcEENS_9allocatorIcEEE7replaceEjjPKcj
mfa:__ZN14chrome_lang_id10TaskOutputD0Ev
uN:__ZNK6google8protobuf11DoubleValue3NewEPNS0_5ArenaE
WQ:__ZN6google8protobuf8internal8MapFieldINSt3__212basic_stringIcNS3_11char_traitsIcEENS3_9allocatorIcEEEENS0_5ValueELNS1_14WireFormatLite9FieldTypeE9ELSC_11ELi0EED0Ev
Y:invoke_viiiiii
hla:b11
LK:__ZN6google8protobuf11StringValueC2Ev
RP:__ZN6google8protobuf8internal10LogMessagelsERKNSt3__212basic_stringIcNS3_11char_traitsIcEENS3_9allocatorIcEEEE
ot:__ZNK6google8protobuf10TextFormat7Printer23PrintShortRepeatedFieldERKNS0_7MessageEPKNS0_10ReflectionEPKNS0_15FieldDescriptorERNS2_13TextGeneratorE
D9:__ZN14chrome_lang_id12_GLOBAL__N_123IsValidCharInsideNumberEc
ii:__ZNSt3__27__sort3IRPFbRKNS_4pairINS_12basic_stringIcNS_11char_traitsIcEENS_9allocatorIcEEEEfEESA_EPS8_EEjT0_SF_SF_T_
jC:__ZN14chrome_lang_id12_GLOBAL__N_123OrderBySecondDescendingERKNSt3__24pairINS1_12basic_stringIcNS1_11char_traitsIcEENS1_9allocatorIcEEEEfEESB_
DX:__ZN14chrome_lang_id5Token21CheckTypeAndMergeFromERKN6google8protobuf11MessageLiteE
tga:__ZNK14chrome_lang_id32GenericEmbeddingFeatureExtractor13embedding_fmlEv
dz:__ZNSt3__212__hash_tableINS_17__hash_value_typeINS_12basic_stringIcNS_11char_traitsIcEENS_9allocatorIcEEEEN14chrome_lang_id12_GLOBAL__N_115LangChunksStatsEEENS_22__unordered_map_hasherIS7_SB_NS_4hashIS7_EELb1EEENS_21__unordered_map_equalIS7_SB_NS_8equal_toIS7_EELb1EEENS5_ISB_EEE21__construct_node_hashIRKNS_21piecewise_construct_tEJNS_5tupleIJRKS7_EEENSQ_IJEEEEEENS_10unique_ptrINS_11__hash_nodeISB_PvEENS_22__hash_node_destructorINS5_ISY_EEEEEEjOT_DpOT0_
rZ:__ZN6google8protobuf8internal18GenericTypeHandlerINS0_28UninterpretedOption_NamePartEE16NewFromPrototypeEPKS3_PNS0_5ArenaE
Via:__ZNK6google8protobuf9BoolValue13GetCachedSizeEv
cQ:__ZNK6google8protobuf8internal16MapFieldAccessor12SwapElementsEPvii
DK:__ZN6google8protobuf5Arena18CreateMaybeMessageINS0_19FileDescriptorProtoEEEPT_PS1_z
_R:__ZN6google8protobuf59protobuf_ShutdownFile_google_2fprotobuf_2ftimestamp_2eprotoEv
rt:__ZNSt3__23mapINS_12basic_stringIcNS_11char_traitsIcEENS_9allocatorIcEEEEPKN6google8protobuf15FieldDescriptorENS_4lessIS6_EENS4_INS_4pairIKS6_SB_EEEEEixERSF_
aF:__ZN6google8protobuf3Api10SharedDtorEv
ge:__ZN14chrome_lang_id4CLD213ScriptScanner16GetOneScriptSpanEPNS0_8LangSpanE
nL:__ZN14chrome_lang_id17RegisterableClassINS_15FeatureFunctionINS_8SentenceEJEEEE6CreateERKNSt3__212basic_stringIcNS5_11char_traitsIcEENS5_9allocatorIcEEEE
$S:__ZN14chrome_lang_id8Sentence10mutable_idEv
bt:__ZNK6google8protobuf6Option39InternalSerializeWithCachedSizesToArrayEbPh
V2:__ZN6google8protobuf5Arena3OwnINS0_13MethodOptionsEEEvPT_
hS:__ZNK14chrome_lang_id26FeatureExtractorDescriptor3NewEPN6google8protobuf5ArenaE
$H:__ZN6google8protobuf8internal14ArenaStringPtr17AssignWithDefaultEPKNSt3__212basic_stringIcNS3_11char_traitsIcEENS3_9allocatorIcEEEES2_
Iea:__ZNK6google8protobuf10Int32Value13SetCachedSizeEi
Yd:__ZNK6google8protobuf14DescriptorPool31TryFindSymbolInFallbackDatabaseERKNSt3__212basic_stringIcNS2_11char_traitsIcEENS2_9allocatorIcEEEE
ZK:__ZN6google8protobuf11DoubleValueC2Ev
M5:__ZN6google8protobuf60protobuf_InitDefaults_google_2fprotobuf_2fempty_2eproto_implEv
u7:__ZN6google8protobuf7Message20DiscardUnknownFieldsEv
Fja:__ZNK14chrome_lang_id8TaskSpec13has_task_nameEv
F2:__ZNK6google8protobuf17GeneratedCodeInfo31SerializeWithCachedSizesToArrayEPh
Mo:__ZNSt3__26vectorINS_12basic_stringIcNS_11char_traitsIcEENS_9allocatorIcEEEENS4_IS6_EEE24__emplace_back_slow_pathIJRPKcRiEEEvDpOT_
XI:__ZN6google8protobuf21MethodDescriptorProtoD2Ev
rja:__ZNK6google8protobuf6Option13GetCachedSizeEv
ZE:__ZN6google8protobuf5ValueD2Ev
GH:_strtox_11
zca:__ZNK6google8protobuf28UninterpretedOption_NamePart13IsInitializedEv
OX:__ZN6google8protobuf12FieldOptions8CopyFromERKS1_
jja:__ZNK6google8protobuf29DescriptorProto_ReservedRange13IsInitializedEv
CE:__ZNK6google8protobuf6MapKey4typeEv
Ul:__ZNSt3__212__hash_tableINS_17__hash_value_typeINS_12basic_stringIcNS_11char_traitsIcEENS_9allocatorIcEEEEN14chrome_lang_id12_GLOBAL__N_115LangChunksStatsEEENS_22__unordered_map_hasherIS7_SB_NS_4hashIS7_EELb1EEENS_21__unordered_map_equalIS7_SB_NS_8equal_toIS7_EELb1EEENS5_ISB_EEE4findIS7_EENS_15__hash_iteratorIPNS_11__hash_nodeISB_PvEEEERKT_
f2:__ZNK6google8protobuf20FieldDescriptorProto31SerializeWithCachedSizesToArrayEPh
vK:__ZN6google8protobuf28GeneratedCodeInfo_Annotation9MergeFromERKNS0_7MessageE
$l:__ZN6google8protobuf16SplitStringUsingERKNSt3__212basic_stringIcNS1_11char_traitsIcEENS1_9allocatorIcEEEEPKcPNS1_6vectorIS7_NS5_IS7_EEEE
oY:__ZNK6google8protobuf7Message13GetReflectionEv
MC:__ZNK6google8protobuf8internal12ExtensionSet9GetUInt32Eij
EM:__ZNK6google8protobuf20OneofDescriptorProto11GetMetadataEv
j:tempDoublePtr
Ts:__ZN6google8protobuf6Method5ClearEv
Uh:__ZN6google8protobuf3MapINS0_6MapKeyENS0_11MapValueRefEE8InnerMap5clearEv
DT:__ZN6google8protobuf8internal14WireFormatLite10StringSizeERKNSt3__212basic_stringIcNS3_11char_traitsIcEENS3_9allocatorIcEEEE
aB:__ZN6google8protobuf8internal25InternalMetadataWithArena27mutable_unknown_fields_slowEv
h7:__ZN14chrome_lang_id35LanguageIdEmbeddingFeatureExtractorD0Ev
D_:__ZNK14chrome_lang_id14TaskInput_Part13record_formatEv
JE:__ZNK6google8protobuf9ListValue12ByteSizeLongEv
wz:__ZN6google8protobuf8internal26GeneratedMessageReflection29NewGeneratedMessageReflectionEPKNS0_10DescriptorEPKNS0_7MessageEPKiiiiPKviiii
dF:__ZN6google8protobuf2io22LazyStringOutputStreamC2EPNS0_14ResultCallbackIPNSt3__212basic_stringIcNS4_11char_traitsIcEENS4_9allocatorIcEEEEEE
TA:__ZNK6google8protobuf10Descriptor24FindFieldByLowercaseNameERKNSt3__212basic_stringIcNS2_11char_traitsIcEENS2_9allocatorIcEEEE
Px:__ZN6google8protobuf8internal20RepeatedPtrFieldBase18MergeFromInnerLoopINS0_16RepeatedPtrFieldIN14chrome_lang_id9ParameterEE11TypeHandlerEEEvPPvSA_ii
f6:dynCall_iiiii
ht:__ZN6google8protobuf25EncodedDescriptorDatabaseD2Ev
Xs:__ZN6google8protobuf16RepeatedPtrFieldINS0_5ValueEE9MergeFromERKS3_
K1:__ZNK6google8protobuf16RepeatedPtrFieldIN14chrome_lang_id25FeatureFunctionDescriptorEE4sizeEv
Lp:__ZNK10__cxxabiv120__si_class_type_info16search_below_dstEPNS_19__dynamic_cast_infoEPKvib
kw:__ZNK6google8protobuf11EnumOptions12ByteSizeLongEv
dM:__ZN6google8protobuf10FloatValueD2Ev
Gz:__ZNSt3__26__treeINS_12__value_typeINS_12basic_stringIcNS_11char_traitsIcEENS_9allocatorIcEEEEPKN6google8protobuf19EnumValueDescriptorEEENS_19__map_value_compareIS7_SD_NS_4lessIS7_EELb1EEENS5_ISD_EEE7destroyEPNS_11__tree_nodeISD_PvEE
kV:__ZN6google8protobuf19FileDescriptorProto8CopyFromERKNS0_7MessageE
gea:__ZNK6google8protobuf12OneofOptions13SetCachedSizeEi
kl:__ZN6google8protobuf17DescriptorBuilder18NewPlaceholderFileERKNSt3__212basic_stringIcNS2_11char_traitsIcEENS2_9allocatorIcEEEE
rK:__ZNK6google8protobuf11UInt32Value39InternalSerializeWithCachedSizesToArrayEbPh
GJ:__ZN6google8protobuf5Arena18CreateMaybeMessageINS0_28UninterpretedOption_NamePartEEEPT_PS1_z
SY:__ZN6google8protobuf12_GLOBAL__N_128DeleteDefaultUnknownFieldSetEv
HQ:__ZN6google8protobuf12_GLOBAL__N_130protobuf_AssignDescriptorsOnceEv
gX:__ZN6google8protobuf5Empty8CopyFromERKNS0_7MessageE
Nz:__ZNK6google8protobuf8internal26GeneratedMessageReflection16GetUnknownFieldsERKNS0_7MessageE
C8:__ZNK14chrome_lang_id25FeatureFunctionDescriptor3NewEv
_C:__ZN6google8protobuf3MapINS0_6MapKeyENS0_11MapValueRefEE8InnerMapixERKS2_
WS:__ZN14chrome_lang_id5utils21Hash32WithDefaultSeedERKNSt3__212basic_stringIcNS1_11char_traitsIcEENS1_9allocatorIcEEEE
kK:__ZN6google8protobuf5Arena18CreateMaybeMessageINS0_22ServiceDescriptorProtoEEEPT_PS1_z
EZ:__ZNK6google8protobuf10Int64Value8GetArenaEv
wg:__ZN6google8protobuf17DescriptorBuilder19AllocateOptionsImplINS0_10DescriptorEEEvRKNSt3__212basic_stringIcNS4_11char_traitsIcEENS4_9allocatorIcEEEESC_RKNT_11OptionsTypeEPSD_
pda:__ZN6google8protobuf15DescriptorProtoD0Ev
y4:__ZN14chrome_lang_id5TokenD2Ev
H8:__ZNK6google8protobuf7Message13IsInitializedEv
dN:__ZNK6google8protobuf11StringValue3NewEPNS0_5ArenaE
L7:__ZN14chrome_lang_id8Sentence25internal_default_instanceEv
eb:ClassHandle_delete
MQ:__ZNSt3__214__split_bufferIfRNS_9allocatorIfEEED2Ev
QI:__ZNSt3__214__split_bufferINS_6vectorIN14chrome_lang_id16EmbeddingNetwork13VectorWrapperENS_9allocatorIS4_EEEERNS5_IS7_EEED2Ev
Uja:__ZNK14chrome_lang_id9TaskInput11has_creatorEv
c_:__ZNK6google8protobuf5Empty8GetArenaEv
Zma:__ZN6google8protobuf10TextFormat6FinderD2Ev
Vs:__ZN6google8protobuf16RepeatedPtrFieldINS0_6OptionEE9MergeFromERKS3_
ix:__ZN14chrome_lang_id4CLD2L14strto32_base10EPKcS2_PS2_
hn:__ZN6google8protobuf3Api5ClearEv
hx:__ZNK6google8protobuf11MessageLite39InternalSerializeWithCachedSizesToArrayEbPh
Rq:__ZN14chrome_lang_id4CLD218UTF8GenericReplaceEPKNS0_19UTF8StateMachineObjERKNS_11StringPieceERS4_bPiS8_S8_PNS0_9OffsetMapE
Oh:__ZNSt3__212__hash_tableINS_17__hash_value_typeIN6google8protobuf6MapKeyEPNS3_7MapPairIS4_NS3_11MapValueRefEEEEENS_22__unordered_map_hasherIS4_S9_NS3_4hashIS4_EELb1EEENS_21__unordered_map_equalIS4_S9_NS_8equal_toIS4_EELb1EEENS3_3MapIS4_S6_E12MapAllocatorIS9_EEE20__node_insert_uniqueEPNS_11__hash_nodeIS9_PvEE
ZD:__ZNSt3__214__split_bufferIN14chrome_lang_id16FeatureExtractorINS1_8SentenceEJEEERNS_9allocatorIS4_EEEC2EjjS7_
C1:__ZNK14chrome_lang_id9TaskInput18record_format_sizeEv
yi:__ZN6google8protobuf8internal12ExtensionSet7AddEnumEihbiPKNS0_15FieldDescriptorE
Cp:__ZNK6google8protobuf10TextFormat7Printer23PrintFieldValueToStringERKNS0_7MessageEPKNS0_15FieldDescriptorEiPNSt3__212basic_stringIcNS9_11char_traitsIcEENS9_9allocatorIcEEEE
ni:__ZN14chrome_lang_id9FMLParser12ParseFeatureEPNS_25FeatureFunctionDescriptorE
su:__ZN6google8protobuf54protobuf_ShutdownFile_google_2fprotobuf_2ftype_2eprotoEv
$r:__ZNK14chrome_lang_id22EmbeddingNetworkParams20GetHiddenLayerMatrixEi
uJ:__ZN6google8protobuf10Int64ValueC2Ev
CQ:__ZNK14chrome_lang_id17ComponentRegistryIFPNS_15FeatureFunctionINS_8SentenceEJEEEvEE6LookupERKNSt3__212basic_stringIcNS7_11char_traitsIcEENS7_9allocatorIcEEEE
Hz:__ZN6google8protobuf15UnknownFieldSet10AddFixed32Eij
PD:__ZN14chrome_lang_id25FeatureFunctionDescriptorC2Ev
gH:__ZN6google8protobuf8internal14ArenaStringPtr14CreateInstanceEPNS0_5ArenaEPKNSt3__212basic_stringIcNS5_11char_traitsIcEENS5_9allocatorIcEEEE
vi:__ZN6google8protobuf8internal12ExtensionSet8AddInt32EihbiPKNS0_15FieldDescriptorE
WP:__ZNK6google8protobuf11UInt64Value39InternalSerializeWithCachedSizesToArrayEbPh
Jda:__ZN6google8protobuf14DynamicMessageD0Ev
Pl:__ZN6google8protobuf3MapINS0_6MapKeyENS0_11MapValueRefEE4InitEv
Ld:__ZN6google8protobuf65protobuf_InitDefaults_google_2fprotobuf_2fdescriptor_2eproto_implEv
tb:__emval_take_value
n7:__ZNSt3__212basic_stringIcNS_11char_traitsIcEENS_9allocatorIcEEED2Ev
RL:__ZNK6google8protobuf30DescriptorProto_ExtensionRange11GetMetadataEv
Rd:__ZNSt3__26__sortIRPFbRKNS_4pairINS_12basic_stringIcNS_11char_traitsIcEENS_9allocatorIcEEEEfEESA_EPS8_EEvT0_SF_T_
Wla:__ZN6google8protobuf8internal11FromIntSizeEi
Js:__ZNK6google8protobuf8internal26GeneratedMessageReflection8SetFloatEPNS0_7MessageEPKNS0_15FieldDescriptorEf
BN:__ZNK6google8protobuf10Int32Value11GetMetadataEv
yka:__ZN10emscripten8internal11BindingTypeIbE12fromWireTypeEb
E5:__ZN14chrome_lang_id25FeatureFunctionDescriptor13add_parameterEv
k$:__ZNSt3__24pairIKNS_12basic_stringIcNS_11char_traitsIcEENS_9allocatorIcEEEEN14chrome_lang_id12_GLOBAL__N_115LangChunksStatsEED2Ev
Ki:__ZN6google8protobuf5Field15UnsafeMergeFromERKS1_
Yn:__ZNK6google8protobuf10Descriptor15GetLocationPathEPNSt3__26vectorIiNS2_9allocatorIiEEEE
p1:__ZN14chrome_lang_idL48MutableUnknownFieldsForFeatureFunctionDescriptorEPNS_25FeatureFunctionDescriptorE
Ys:__ZNSt3__212__hash_tableINS_17__hash_value_typeIPKN6google8protobuf10DescriptorEPKNS3_7MessageEEENS_22__unordered_map_hasherIS6_SA_NS3_4hashIS6_EELb1EEENS_21__unordered_map_equalIS6_SA_NS_8equal_toIS6_EELb1EEENS_9allocatorISA_EEE6rehashEj
_$:__ZN14chrome_lang_id16RegistryMetadataC2EPKcS2_S2_i
Jma:__ZN6google8protobuf2io17ArrayOutputStreamD2Ev
s3:__ZNK6google8protobuf16RepeatedPtrFieldIN14chrome_lang_id14TaskInput_PartEE4sizeEv
s5:___DOUBLE_BITS_715
r0:__ZNK14chrome_lang_id5Token8categoryEv
vJ:__ZN14chrome_lang_id9FMLParser10InitializeERKNSt3__212basic_stringIcNS1_11char_traitsIcEENS1_9allocatorIcEEEE
rI:__ZNK6google8protobuf11EnumOptions13IsInitializedEv
zb:runDestructors
Nca:__ZN6google8protobuf10Int64Value5ClearEv
El:__ZN6google8protobuf8internal12ExtensionSet17MaybeNewExtensionEiPKNS0_15FieldDescriptorEPPNS2_9ExtensionE
Rf:__ZNSt3__227__insertion_sort_incompleteIRN6google8protobuf8internal19CompareByDerefFirstIPKNS2_7MapPairINS_12basic_stringIcNS_11char_traitsIcEENS_9allocatorIcEEEENS2_5ValueEEEEEPSF_EEbT0_SJ_T_
XR:__ZNK6google8protobuf8internal23RepeatedPtrFieldWrapperINSt3__212basic_stringIcNS3_11char_traitsIcEENS3_9allocatorIcEEEEE3GetEPKviPv
u_:__ZNK14chrome_lang_id25FeatureFunctionDescriptor4typeEv
p:threwValue
lf:__ZN6google8protobuf24SimpleDescriptorDatabase15DescriptorIndexINSt3__24pairIPKviEEE7AddFileERKNS0_19FileDescriptorProtoES7_
Uu:__ZNSt3__26vectorIPNS_12basic_stringIcNS_11char_traitsIcEENS_9allocatorIcEEEENS4_IS7_EEE21__push_back_slow_pathIKS7_EEvRT_
JM:__ZNK6google8protobuf19UninterpretedOption11GetMetadataEv
on:__ZNSt3__26__treeINS_12__value_typeINS_12basic_stringIcNS_11char_traitsIcEENS_9allocatorIcEEEEPKN6google8protobuf15FieldDescriptorEEENS_19__map_value_compareIS7_SD_NS_4lessIS7_EELb1EEENS5_ISD_EEE12__find_equalIS7_EERPNS_16__tree_node_baseIPvEERPNS_15__tree_end_nodeISO_EERKT_
tja:__ZNK6google8protobuf28GeneratedCodeInfo_Annotation13IsInitializedEv
aU:__ZNK6google8protobuf8internal12MapFieldBase16GetRepeatedFieldEv
xaa:__ZNK6google8protobuf11EnumOptions3NewEv
S4:__ZN14chrome_lang_id13FeatureVector7reserveEi
Gka:__ZN14chrome_lang_id22EmbeddingNetworkParamsD0Ev
fU:__ZN10emscripten8internal10getContextIMNSt3__26vectorIN14chrome_lang_id22NNetLanguageIdentifier6ResultENS2_9allocatorIS6_EEEEFvRKS6_EEEPT_RKSE_
HA:__ZN6google8protobuf13RepeatedFieldIiE9MergeFromERKS2_
Yq:__ZN6google8protobuf13RepeatedFieldIfE7ReserveEi
Eja:__ZNK14chrome_lang_id8TaskSpec13has_task_typeEv
rf:__ZNK6google8protobuf15FieldDescriptor6CopyToEPNS0_20FieldDescriptorProtoE
pj:__ZN6google8protobuf8internal12MapFieldLiteINSt3__212basic_stringIcNS3_11char_traitsIcEENS3_9allocatorIcEEEENS0_5ValueELNS1_14WireFormatLite9FieldTypeE9ELSC_11ELi0EE9MergeFromERKSD_
Pm:__ZN6google8protobuf8internal20RepeatedPtrFieldBase12SwapFallbackINS1_18GenericTypeHandlerINS0_7MessageEEEEEvPS2_
pq:__ZN6google8protobuf10TextFormat7PrinterD2Ev
MN:__ZN6google8protobuf8internal14ArenaStringPtr14MutableNoArenaEPKNSt3__212basic_stringIcNS3_11char_traitsIcEENS3_9allocatorIcEEEE
IR:__ZN6google8protobuf14FatalExceptionC2EPKciRKNSt3__212basic_stringIcNS4_11char_traitsIcEENS4_9allocatorIcEEEE
Tu:__ZN6google8protobuf8internal12ExtensionSet22MutableRepeatedMessageEii
Uka:__ZNK14chrome_lang_id5Token8has_headEv
jaa:__ZNK6google8protobuf13MethodOptions3NewEv
eka:__ZNSt3__210__function6__funcIPFbPKcPiENS_9allocatorIS6_EES5_ED2Ev
Qz:__ZN6google8protobuf17DescriptorBuilder17OptionInterpreter9SetUInt64EiyNS0_15FieldDescriptor4TypeEPNS0_15UnknownFieldSetE
MA:__ZN6google8protobuf13RepeatedFieldIbE9MergeFromERKS2_
lha:__ZN14chrome_lang_id5TokenD0Ev
MR:__ZN6google8protobuf66protobuf_ShutdownFile_google_2fprotobuf_2fsource_5fcontext_2eprotoEv
vP:__ZN6google8protobuf8DurationD0Ev
MH:__ZThn28_NK6google8protobuf8internal8MapFieldINSt3__212basic_stringIcNS3_11char_traitsIcEENS3_9allocatorIcEEEENS0_5ValueELNS1_14WireFormatLite9FieldTypeE9ELSC_11ELi0EE4sizeEv
zx:__ZN14chrome_lang_id25EmbeddingFeatureExtractorINS_16FeatureExtractorINS_8SentenceEJEEES2_JEE5SetupEPNS_11TaskContextE
yx:__ZN6google8protobuf8internal14WireFormatLite10WriteFloatEifPNS0_2io17CodedOutputStreamE
lca:__ZN14chrome_lang_id8TaskSpec17set_has_task_nameEv
O0:__ZN6google8protobuf8internal18GenericTypeHandlerIN14chrome_lang_id18TaskSpec_ParameterEE5MergeERKS4_PS4_
v0:__ZNSt3__211char_traitsIcE6assignEPcjc
uma:__ZN14chrome_lang_id4CLD2L7LenPartEc
o1:__ZN6google8protobuf5Arena13OwnDestructorINS0_8internal5MutexEEEvPT_
jU:__ZNK6google8protobuf10FloatValue24SerializeWithCachedSizesEPNS0_2io17CodedOutputStreamE
ku:__ZN6google8protobuf61protobuf_InitDefaults_google_2fprotobuf_2fstruct_2eproto_implEv
vj:__ZN6google8protobuf8internal12ExtensionSet13MutableStringEihPKNS0_15FieldDescriptorE
qK:__ZNK6google8protobuf8internal20RepeatedFieldWrapperIdE3AddEPvPKv
V3:__ZNK6google8protobuf10Int32Value31SerializeWithCachedSizesToArrayEPh
Ub:RegisteredPointer_getPointee
kda:__ZN14chrome_lang_ideqERKNS_11UnicodeText14const_iteratorES3_
Re:__ZN6google8protobuf14DynamicMessageD2Ev
mj:__ZNK6google8protobuf21MethodDescriptorProto12ByteSizeLongEv
Wb:__embind_register_std_wstring
SB:__ZNK14chrome_lang_id26FeatureExtractorDescriptor12ByteSizeLongEv
qda:__ZN14chrome_lang_id5Token13set_has_labelEv
KN:__ZNK6google8protobuf11UInt32Value3NewEPNS0_5ArenaE
UL:__ZN6google8protobuf11UInt32ValueD2Ev
z1:__ZN14chrome_lang_id5utils12_GLOBAL__N_113DecodeFixed32EPKc
jP:__ZN6google8protobuf8internal18GenericTypeHandlerINS0_6OptionEE16NewFromPrototypeEPKS3_PNS0_5ArenaE
Lfa:__ZN6google8protobuf9EnumValueD0Ev
bf:__ZN6google8protobuf24EnumValueDescriptorProto27MergePartialFromCodedStreamEPNS0_2io16CodedInputStreamE
tla:__ZN10__cxxabiv120__function_type_infoD0Ev
Gca:__ZN14chrome_lang_idL10sf_factoryEv
NI:__ZNK14chrome_lang_id22EmbeddingNetworkParams14GetSoftmaxBiasEv
yja:__ZNK14chrome_lang_id14LangIdNNParams27embedding_num_features_sizeEv
Nfa:__ZN14chrome_lang_id9ParameterD0Ev
Ui:__ZN6google8protobuf20FieldDescriptorProto5ClearEv
y$:__ZN6google8protobuf16RepeatedPtrFieldIN14chrome_lang_id5TokenEE5ClearEv
X5:__ZN6google8protobuf8internal26FunctionResultCallback_1_0IPNSt3__212basic_stringIcNS3_11char_traitsIcEENS3_9allocatorIcEEEEPN14chrome_lang_id5TokenEED2Ev
eo:__ZNK6google8protobuf4Enum24SerializeWithCachedSizesEPNS0_2io17CodedOutputStreamE
$6:__ZN6google8protobuf8internal21arena_destruct_objectINS0_19EnumDescriptorProtoEEEvPv
pQ:_copysign
s_:__ZN6google8protobuf16RepeatedPtrFieldIN14chrome_lang_id5TokenEE3AddEv
xd:_printf_core
fY:__ZN6google8protobuf16RepeatedPtrFieldIN14chrome_lang_id25FeatureFunctionDescriptorEED2Ev
dw:__ZN6google8protobuf17DescriptorBuilder17OptionInterpreter8SetInt64EixNS0_15FieldDescriptor4TypeEPNS0_15UnknownFieldSetE
yH:__ZN6google8protobuf14DescriptorPoolC2EPNS0_18DescriptorDatabaseEPNS1_14ErrorCollectorE
Fia:__ZNK6google8protobuf10BytesValue13GetCachedSizeEv
Dv:__ZN6google8protobuf6Option15UnsafeMergeFromERKS1_
kv:__ZNSt3__26vectorIPKN6google8protobuf15FieldDescriptorENS_9allocatorIS5_EEE21__push_back_slow_pathIKS5_EEvRT_
qr:__ZNK6google8protobuf8internal26GeneratedMessageReflection16SetRepeatedFloatEPNS0_7MessageEPKNS0_15FieldDescriptorEif
Vl:__ZNK6google8protobuf8internal26GeneratedMessageReflection12SetEnumValueEPNS0_7MessageEPKNS0_15FieldDescriptorEi
GX:__ZN6google8protobuf14MessageOptions8CopyFromERKS1_
Iaa:__ZNK6google8protobuf8internal20RepeatedFieldWrapperIfE7IsEmptyEPKv
QX:__ZNK6google8protobuf16RepeatedPtrFieldIN14chrome_lang_id10TaskOutputEE3GetEi
Jj:__ZN6google8protobuf8internal12ExtensionSet14MutableMessageEihRKNS0_11MessageLiteEPKNS0_15FieldDescriptorE
iw:__ZNK6google8protobuf6MapKey12GetBoolValueEv
tN:__ZNK6google8protobuf11EnumOptions11GetMetadataEv
sW:__ZN14chrome_lang_id9TaskInput21CheckTypeAndMergeFromERKN6google8protobuf11MessageLiteE
Ou:__ZN6google8protobuf8internal18GenericTypeHandlerINS1_8MapEntryINSt3__212basic_stringIcNS4_11char_traitsIcEENS4_9allocatorIcEEEENS0_5ValueELNS1_14WireFormatLite9FieldTypeE9ELSD_11ELi0EEEE16NewFromPrototypeEPKSE_PNS0_5ArenaE
U4:__ZNKSt3__210__function6__funcIPFbPKcPiENS_9allocatorIS6_EES5_E6targetERKSt9type_info
Nx:__ZN14chrome_lang_id10TaskOutput10SharedDtorEv
gia:__ZNK6google8protobuf12OneofOptions13GetCachedSizeEv
wga:__ZN10emscripten3val9undefinedEv
NX:__ZN14chrome_lang_id14TaskInput_Part9MergeFromERKS0_
Nla:__ZN10__cxxabiv117__class_type_infoD0Ev
Oq:__ZN6google8protobuf51protobuf_AssignDesc_google_2fprotobuf_2fany_2eprotoEv
X3:__ZNK6google8protobuf10BytesValue31SerializeWithCachedSizesToArrayEPh
OS:__ZN14chrome_lang_id9TaskInput12mutable_nameEv
fca:_out
lfa:__ZN14chrome_lang_id17RegisterableClassINS_15FeatureFunctionINS_8SentenceEJEEEE8registryEv
FQ:__ZN6google8protobuf29DescriptorProto_ReservedRange5ClearEv
eK:__ZN6google8protobuf5Arena18CreateMaybeMessageINS0_23SourceCodeInfo_LocationEEEPT_PS1_z
$E:__ZNK14chrome_lang_id14TaskInput_Part11GetTypeNameEv
sr:__ZNK6google8protobuf8internal26GeneratedMessageReflection15SetRepeatedBoolEPNS0_7MessageEPKNS0_15FieldDescriptorEib
ra:simpleReadValueFromPointer
Kw:__ZN6google8protobuf11MessageLite22ParsePartialFromStringERKNSt3__212basic_stringIcNS2_11char_traitsIcEENS2_9allocatorIcEEEE
zR:__ZN14chrome_lang_id14TaskInput_Part19mutable_file_formatEv
Lka:__ZNK14chrome_lang_id14LangIdNNParams18has_is_precomputedEv
Uy:__ZNSt3__26vectorIcNS_9allocatorIcEEE21__push_back_slow_pathIRKcEEvOT_
IF:__ZN6google8protobuf56protobuf_AddDesc_google_2fprotobuf_2fstruct_2eproto_implEv
l5:__ZN14chrome_lang_id18TaskSpec_Parameter25internal_default_instanceEv
oi:__ZN14chrome_lang_id10TaskOutput15UnsafeMergeFromERKS0_
Tfa:__ZN14chrome_lang_id18NumericFeatureTypeD2Ev
la:invoke_iiiiii
P4:__ZN6google8protobuf8internal21ExplicitlyConstructedIN14chrome_lang_id14TaskInput_PartEE16DefaultConstructEv
Aka:dynCall_di
nc:FUNCTION_TABLE_dii
bB:__ZN6google8protobuf8internal18GenericTypeHandlerINS0_5FieldEE16NewFromPrototypeEPKS3_PNS0_5ArenaE
i8:__ZNK14chrome_lang_id8Sentence10token_sizeEv
T1:__ZNK14chrome_lang_id9TaskInput16file_format_sizeEv
xv:__ZN6google8protobuf10TextFormat6Parser10ParserImplC2EPKNS0_10DescriptorEPNS0_2io19ZeroCopyInputStreamEPNS7_14ErrorCollectorEPNS1_6FinderEPNS1_13ParseInfoTreeENS3_23SingularOverwritePolicyEbbbbbb
Rr:__ZN6google8protobuf6StructC2EPNS0_5ArenaE
aa:invoke_di
lE:__ZNSt3__26vectorIN14chrome_lang_id16FeatureExtractorINS1_8SentenceEJEEENS_9allocatorIS4_EEE6resizeEj
sy:__ZNK10__cxxabiv117__class_type_info29process_static_type_above_dstEPNS_19__dynamic_cast_infoEPKvS4_i
en:__ZNSt3__212__hash_tableINS_17__hash_value_typeIPKcPFvRKNS_12basic_stringIcNS_11char_traitsIcEENS_9allocatorIcEEEEEEENS_22__unordered_map_hasherIS3_SE_N6google8protobuf4hashIS3_EELb1EEENS_21__unordered_map_equalIS3_SE_NSH_5streqELb1EEENS7_ISE_EEE4findIS3_EENS_15__hash_iteratorIPNS_11__hash_nodeISE_PvEEEERKT_
ce:__ZN6google8protobuf2io9Tokenizer13ConsumeNumberEbb
uha:__ZN6google8protobuf8internal31RepeatedPtrFieldMessageAccessorD0Ev
Ph:__ZN14chrome_lang_id22NNetLanguageIdentifier12FindLanguageERKNSt3__212basic_stringIcNS1_11char_traitsIcEENS1_9allocatorIcEEEE
hI:__ZN6google8protobuf29DescriptorProto_ReservedRangeC2Ev
L6:__ZN6google8protobuf8internal10LogMessageD2Ev
cK:__ZN14chrome_lang_id18TaskSpec_ParameterC2Ev
Cc:FUNCTION_TABLE_iii
VI:__ZNSt3__26vectorIN14chrome_lang_id22NNetLanguageIdentifier6ResultENS_9allocatorIS3_EEE9push_backERKS3_
z7:__ZN14chrome_lang_id9TaskInput25internal_default_instanceEv
Kx:___shgetc
k0:dynCall_viiiiii
PO:__ZN6google8protobuf8internal26FunctionResultCallback_1_0IPNSt3__212basic_stringIcNS3_11char_traitsIcEENS3_9allocatorIcEEEEPN14chrome_lang_id5TokenEE3RunEv
rha:__ZNK6google8protobuf8internal20RepeatedPtrFieldBase17GetArenaNoVirtualEv
W_:__ZN6google8protobuf8internal19arena_delete_objectIN14chrome_lang_id26FeatureExtractorDescriptorEEEvPv
Jka:__ZNK14chrome_lang_id8Sentence6has_idEv
lQ:__ZNSt3__212basic_stringIcNS_11char_traitsIcEENS_9allocatorIcEEEaSERKS5_
j8:__ZNK14chrome_lang_id18NumericFeatureType13GetDomainSizeEv
ye:__ZN14chrome_lang_id4CLD2L26UTF8GenericReplaceInternalEPKNS0_19UTF8StateMachineObjERKNS_11StringPieceERS4_bPiS8_S8_PNS0_9OffsetMapE
ox:__ZN6google8protobuf8internal12ExtensionSet25MaybeNewRepeatedExtensionEPKNS0_15FieldDescriptorE
V7:__ZNK6google8protobuf8internal23RepeatedPtrFieldWrapperINS0_7MessageEE7IsEmptyEPKv
Na:ClassHandle_clone
p2:__ZNK6google8protobuf19FileDescriptorProto31SerializeWithCachedSizesToArrayEPh
eh:__ZNK6google8protobuf8internal26GeneratedMessageReflection10ListFieldsERKNS0_7MessageEPNSt3__26vectorIPKNS0_15FieldDescriptorENS6_9allocatorISA_EEEE
RW:__ZN6google8protobuf8internal21StringTypeHandlerBase6DeleteEPNSt3__212basic_stringIcNS3_11char_traitsIcEENS3_9allocatorIcEEEEPNS0_5ArenaE
q5:__ZN6google8protobuf8internal26FunctionResultCallback_1_0IPNSt3__212basic_stringIcNS3_11char_traitsIcEENS3_9allocatorIcEEEEPN14chrome_lang_id9ParameterEED2Ev
C2:__ZN14chrome_lang_id9TaskInput15add_file_formatEv
fx:__ZNSt3__26vectorIfNS_9allocatorIfEEE8__appendEj
R0:__ZN6google8protobuf5Arena3OwnINS0_28GeneratedCodeInfo_AnnotationEEEvPT_
B:Math_abs
$3:__ZN6google8protobuf5Arena3OwnINS0_7MessageEEEvPT_
Gl:__ZN6google8protobuf11UInt64Value27MergePartialFromCodedStreamEPNS0_2io16CodedInputStreamE
Tka:__ZNK14chrome_lang_id5Token8has_wordEv
iq:___dynamic_cast
IU:__ZNK6google8protobuf8internal20RepeatedFieldWrapperIfE3SetEPviPKv
_E:__ZNSt3__26vectorIPN14chrome_lang_id15FeatureFunctionINS1_8SentenceEJEEENS_9allocatorIS5_EEE8allocateEj
Qd:__ZNK6google8protobuf14FileDescriptor6CopyToEPNS0_19FileDescriptorProtoE
P9:__ZN14chrome_lang_id25FeatureFunctionDescriptor12set_has_typeEv
C7:__ZN14chrome_lang_id15FeatureFunctionINS_8SentenceEJEEC2Ev
L_:__ZN6google8protobuf16RepeatedPtrFieldIN14chrome_lang_id9ParameterEED2Ev
tca:__ZNK14chrome_lang_id14LangIdNNParams13concat_offsetEi
Hka:__ZN10emscripten8internal11BindingTypeIbE10toWireTypeEb
yM:__ZNSt3__26vectorINS0_IN14chrome_lang_id16EmbeddingNetwork13VectorWrapperENS_9allocatorIS3_EEEENS4_IS6_EEE18__construct_at_endEj
mv:__ZN6google8protobuf17DescriptorBuilderD2Ev
hma:__ZNK14chrome_lang_id8Sentence5tokenEv
TL:__ZN6google8protobuf11UInt64ValueD2Ev
yZ:__ZNK6google8protobuf11DoubleValue8GetArenaEv
XG:__ZN6google8protobuf3AnyC2Ev
vd:_decfloat
Oca:__ZN14chrome_lang_id9Parameter13set_has_valueEv
Qja:__ZNSt12length_errorD0Ev
Nda:__ZN14chrome_lang_id5Token11set_has_tagEv
E_:__ZN6google8protobuf8internal18GenericTypeHandlerIN14chrome_lang_id18TaskSpec_ParameterEE3NewEPNS0_5ArenaE
zT:__ZNK6google8protobuf2io16CodedInputStream15BytesUntilLimitEv
x3:__ZN6google8protobuf8internal21ExplicitlyConstructedIN14chrome_lang_id18TaskSpec_ParameterEE16DefaultConstructEv
j$:__ZN6google8protobuf8internal18GenericTypeHandlerINS0_19EnumDescriptorProtoEE16NewFromPrototypeEPKS3_PNS0_5ArenaE
c:HEAP32
aJ:__ZNK6google8protobuf8internal23TypeDefinedMapFieldBaseINS0_6MapKeyENS0_11MapValueRefEE16IncreaseIteratorEPNS0_11MapIteratorE
C3:__ZNK6google8protobuf8internal33RandomAccessRepeatedFieldAccessor14EqualsIteratorEPKvS4_S4_
Bha:__ZNK6google8protobuf9EnumValue20GetMaybeArenaPointerEv
Ci:__ZNSt3__212__hash_tableINS_17__hash_value_typeINS_12basic_stringIcNS_11char_traitsIcEENS_9allocatorIcEEEEN14chrome_lang_id12_GLOBAL__N_115LangChunksStatsEEENS_22__unordered_map_hasherIS7_SB_NS_4hashIS7_EELb1EEENS_21__unordered_map_equalIS7_SB_NS_8equal_toIS7_EELb1EEENS5_ISB_EEE8__rehashEj
c0:__ZNK14chrome_lang_id9TaskInput7creatorEv
P5:__ZNK14chrome_lang_id8TaskSpec5inputEi
jR:__ZN6google8protobuf8internal21arena_destruct_objectINS0_3MapINS0_6MapKeyENS0_11MapValueRefEE8InnerMapEEEvPv
RB:__ZNSt3__213unordered_mapINS_12basic_stringIcNS_11char_traitsIcEENS_9allocatorIcEEEEN14chrome_lang_id12_GLOBAL__N_115LangChunksStatsENS_4hashIS6_EENS_8equal_toIS6_EENS4_INS_4pairIKS6_S9_EEEEE2atERSF_
Wr:__ZN6google8protobuf8internal14WireFormatLite10WriteInt32EiiPNS0_2io17CodedOutputStreamE
Z9:__ZNK6google8protobuf8internal30RepeatedFieldPrimitiveAccessorIdE10ConvertToTEPKv
vH:__ZNSt3__212basic_stringIcNS_11char_traitsIcEENS_9allocatorIcEEE6appendERKS5_jj
tz:__ZN6google8protobuf8internal14WireFormatLite13WriteSFixed64EixPNS0_2io17CodedOutputStreamE
KH:__ZN6google8protobuf24EnumValueDescriptorProtoC2Ev
N6:__ZN14chrome_lang_id11FeatureTypeD2Ev
_V:__ZN6google8protobuf13SourceContext8CopyFromERKNS0_7MessageE
PC:__ZN6google8protobuf6StrCatERKNS0_7strings8AlphaNumES4_S4_
nf:__ZNK6google8protobuf23SourceCodeInfo_Location24SerializeWithCachedSizesEPNS0_2io17CodedOutputStreamE
gma:__ZNK14chrome_lang_id8TaskSpec5inputEv
BL:__ZN6google8protobuf8internal26FunctionResultCallback_1_0IPNSt3__212basic_stringIcNS3_11char_traitsIcEENS3_9allocatorIcEEEEPN14chrome_lang_id26FeatureExtractorDescriptorEEC2EPFSA_SD_EbSD_
mE:__ZNSt3__212__hash_tableINS_17__hash_value_typeINS_12basic_stringIcNS_11char_traitsIcEENS_9allocatorIcEEEEiEENS_22__unordered_map_hasherIS7_S8_NS_4hashIS7_EELb1EEENS_21__unordered_map_equalIS7_S8_NS_8equal_toIS7_EELb1EEENS5_IS8_EEED2Ev
Mw:__ZNK6google8protobuf29DescriptorProto_ReservedRange12ByteSizeLongEv
ca:invoke_vi
Nj:__ZN6google8protobuf21MethodDescriptorProto15UnsafeMergeFromERKS1_
Kq:__ZN6google8protobuf56protobuf_AssignDesc_google_2fprotobuf_2fduration_2eprotoEv
IO:__ZN6google8protobuf8internal26FunctionResultCallback_1_0IPNSt3__212basic_stringIcNS3_11char_traitsIcEENS3_9allocatorIcEEEEPN14chrome_lang_id8TaskSpecEE3RunEv
we:__ZNK6google8protobuf8internal26GeneratedMessageReflection12SwapElementsEPNS0_7MessageEPKNS0_15FieldDescriptorEii
lo:__ZNK6google8protobuf14MessageOptions39InternalSerializeWithCachedSizesToArrayEbPh
J3:__ZNK6google8protobuf11DoubleValue31SerializeWithCachedSizesToArrayEPh
M$:__ZNK14chrome_lang_id10TaskOutput9file_baseEv
j_:__ZN6google8protobuf8internal18GenericTypeHandlerIN14chrome_lang_id14TaskInput_PartEE6DeleteEPS4_PNS0_5ArenaE
K9:__ZNK6google8protobuf11MessageLite12ByteSizeLongEv
oA:__ZN6google8protobuf8internal18GenericTypeHandlerINS0_30DescriptorProto_ExtensionRangeEE5MergeERKS3_PS3_
Fx:__ZNK6google8protobuf13MethodOptions12ByteSizeLongEv
Io:__ZNSt3__26__treeINS_12__value_typeINS_12basic_stringIcNS_11char_traitsIcEENS_9allocatorIcEEEEPKN6google8protobuf10DescriptorEEENS_19__map_value_compareIS7_SD_NS_4lessIS7_EELb1EEENS5_ISD_EEE4findIS7_EENS_15__tree_iteratorISD_PNS_11__tree_nodeISD_PvEEiEERKT_
gk:__ZN6google8protobuf14DescriptorPool6Tables16FindByNameHelperEPKS1_RKNSt3__212basic_stringIcNS5_11char_traitsIcEENS5_9allocatorIcEEEE
dha:__ZNK6google8protobuf10BytesValue20GetMaybeArenaPointerEv
Aia:__ZNK6google8protobuf5Field20GetMaybeArenaPointerEv
ww:__ZN6google8protobuf15UnknownFieldSet13ClearFallbackEv
IZ:__ZNK14chrome_lang_id25FeatureFunctionDescriptor14unknown_fieldsEv
pK:__ZNK6google8protobuf8internal20RepeatedFieldWrapperIfE3AddEPvPKv
uX:__ZN14chrome_lang_id8SentenceD2Ev
Yga:__ZN12_GLOBAL__N_1L20register_memory_viewIdEEvPKc
cr:__ZN6google8protobuf2io17ArrayOutputStream6BackUpEi
TS:__ZN14chrome_lang_id11UnicodeText4Repr7PointToEPKci
gm:__ZN6google8protobuf11UInt32Value27MergePartialFromCodedStreamEPNS0_2io16CodedInputStreamE
dO:__ZN14chrome_lang_id18TaskSpec_Parameter8set_nameERKNSt3__212basic_stringIcNS1_11char_traitsIcEENS1_9allocatorIcEEEE
SA:__ZNSt3__26vectorIPN14chrome_lang_id9WorkspaceENS_9allocatorIS3_EEE26__swap_out_circular_bufferERNS_14__split_bufferIS3_RS5_EE
oh:__ZNSt3__212__hash_tableINS_17__hash_value_typeIPKN6google8protobuf10DescriptorEPKNS3_14DynamicMessage8TypeInfoEEENS_22__unordered_map_hasherIS6_SB_NS3_4hashIS6_EELb1EEENS_21__unordered_map_equalIS6_SB_NS_8equal_toIS6_EELb1EEENS_9allocatorISB_EEE8__rehashEj
__:dynCall_iiiiiii
sE:__ZN6google8protobuf14SourceCodeInfo9MergeFromERKNS0_7MessageE
i0:__ZNK14chrome_lang_id10TaskOutput4nameEv
Lz:__ZN6google8protobuf3MapINS0_6MapKeyENS0_11MapValueRefEE23CreateValueTypeInternalERKS2_
yy:__ZN14chrome_lang_id4CLD213ScriptScanner15LowerScriptSpanEPNS0_8LangSpanE
Uk:__ZN6google8protobuf8internal12ExtensionSet9SetDoubleEihdPKNS0_15FieldDescriptorE
Qfa:__ZNK6google8protobuf3Any13SetCachedSizeEi
qj:__ZNK6google8protobuf28GeneratedCodeInfo_Annotation39InternalSerializeWithCachedSizesToArrayEbPh
Qc:__ZNK6google8protobuf8internal26GeneratedMessageReflection9SpaceUsedERKNS0_7MessageE
Xm:__ZNK6google8protobuf8internal26GeneratedMessageReflection7MapSizeERKNS0_7MessageEPKNS0_15FieldDescriptorE
i3:__ZN6google8protobuf5Arena3OwnINS0_11MessageLiteEEEvPT_
Y7:__ZNK6google8protobuf8internal20RepeatedFieldWrapperIjE10RemoveLastEPv
$ca:__ZN14chrome_lang_id38protobuf_InitDefaults_sentence_2eprotoEv
tda:__ZNK6google8protobuf8internal20RepeatedFieldWrapperIyE4SizeEPKv
Us:__ZN6google8protobuf16RepeatedPtrFieldINS0_19EnumDescriptorProtoEE9MergeFromERKS3_
Y6:__ZNK6google8protobuf10TextFormat17FieldValuePrinter10PrintFloatEf
IY:__ZN6google8protobuf8internal14WireFormatLite20MessageSizeNoVirtualIN14chrome_lang_id9TaskInputEEEjRKT_
Nk:__ZNK6google8protobuf8internal26GeneratedMessageReflection20SetRepeatedEnumValueEPNS0_7MessageEPKNS0_15FieldDescriptorEii
aq:__ZNK6google8protobuf14MessageOptions24SerializeWithCachedSizesEPNS0_2io17CodedOutputStreamE
mk:__ZN6google8protobuf8internal10WireFormat8ByteSizeERKNS0_7MessageE
Vka:__ZNK14chrome_lang_id5Token7has_tagEv
Dy:__ZNSt3__212basic_stringIcNS_11char_traitsIcEENS_9allocatorIcEEEC2ERKS5_jjRKS4_
ub:__embind_register_value_object
Lg:__ZNSt3__212__hash_tableINS_17__hash_value_typeIN6google8protobuf6MapKeyEPNS3_7MapPairIS4_NS3_11MapValueRefEEEEENS_22__unordered_map_hasherIS4_S9_NS3_4hashIS4_EELb1EEENS_21__unordered_map_equalIS4_S9_NS_8equal_toIS4_EELb1EEENS3_3MapIS4_S6_E12MapAllocatorIS9_EEE8__rehashEj
JO:__ZN6google8protobuf8internal26FunctionResultCallback_1_0IPNSt3__212basic_stringIcNS3_11char_traitsIcEENS3_9allocatorIcEEEEPN14chrome_lang_id8SentenceEE3RunEv
sm:__ZN6google8protobuf8internal10WireFormat13FieldByteSizeEPKNS0_15FieldDescriptorERKNS0_7MessageE
Sv:__ZN6google8protobuf8internal20RepeatedPtrFieldBase7MutableINS0_16RepeatedPtrFieldIN14chrome_lang_id25FeatureFunctionDescriptorEE11TypeHandlerEEEPNT_4TypeEi
Jp:__ZN14chrome_lang_id12_GLOBAL__N_125SparseReluProductPlusBiasINS_11SimpleAdderEEEvbRKNSt3__26vectorINS_16EmbeddingNetwork13VectorWrapperENS3_9allocatorIS6_EEEERKS6_RKNS4_IfNS7_IfEEEEPSF_
Nf:__ZNSt3__212__hash_tableINS_17__hash_value_typeINS_12basic_stringIcNS_11char_traitsIcEENS_9allocatorIcEEEEPKN6google8protobuf23SourceCodeInfo_LocationEEENS_22__unordered_map_hasherIS7_SD_NS9_4hashIS7_EELb1EEENS_21__unordered_map_equalIS7_SD_NS_8equal_toIS7_EELb1EEENS5_ISD_EEE8__rehashEj
MF:__ZNSt3__26__treeIPN6google8protobuf6MapKeyENS2_3MapIS3_NS2_11MapValueRefEE8InnerMap10KeyCompareENS7_12MapAllocatorIS4_EEE7destroyEPNS_11__tree_nodeIS4_PvEE
rk:__ZN6google8protobuf8internal10WireFormat28ParseAndMergeMessageSetFieldEjPKNS0_15FieldDescriptorEPNS0_7MessageEPNS0_2io16CodedInputStreamE
dy:__ZN6google8protobuf15UnknownFieldSet14ParseFromArrayEPKvi
qS:__ZN14chrome_lang_id9TaskInput15mutable_creatorEv
q_:__ZN6google8protobuf8internal18GenericTypeHandlerIN14chrome_lang_id5TokenEE16NewFromPrototypeEPKS4_PNS0_5ArenaE
wea:__ZNK6google8protobuf11UInt64Value13SetCachedSizeEi
Ab:requireRegisteredType
fh:__ZN6google8protobuf8internal14WireFormatLite9SkipFieldEPNS0_2io16CodedInputStreamEj
Ws:__ZN6google8protobuf8internal14WireFormatLite11WriteSInt32EiiPNS0_2io17CodedOutputStreamE
Wt:__ZN6google8protobuf8internal20RepeatedPtrFieldBase3AddINS0_16RepeatedPtrFieldIN14chrome_lang_id9TaskInputEE11TypeHandlerEEEPNT_4TypeESB_
Eda:___udivdi3
Xk:__ZN6google8protobuf8internal12ExtensionSet7SetEnumEihiPKNS0_15FieldDescriptorE
YS:__ZN14chrome_lang_id12_GLOBAL__N_127IsValidCharInsideIdentifierEc
SP:__ZN6google8protobuf66protobuf_InitDefaults_google_2fprotobuf_2fsource_5fcontext_2eprotoEv
WR:__GLOBAL__sub_I_source_context_pb_cc
bN:__ZNK6google8protobuf14ServiceOptions11GetMetadataEv
fN:__ZNSt3__213unordered_mapINS_10type_indexENS_12basic_stringIcNS_11char_traitsIcEENS_9allocatorIcEEEENS_4hashIS1_EENS_8equal_toIS1_EENS5_INS_4pairIKS1_S7_EEEEED2Ev
Sg:__ZN6google8protobuf9Timestamp27MergePartialFromCodedStreamEPNS0_2io16CodedInputStreamE
HH:__ZNK14chrome_lang_id22GenericFeatureFunction15GetFeatureTypesEPNSt3__26vectorIPNS_11FeatureTypeENS1_9allocatorIS4_EEEE
ZZ:__ZThn28_NK6google8protobuf8internal8MapFieldINSt3__212basic_stringIcNS3_11char_traitsIcEENS3_9allocatorIcEEEENS0_5ValueELNS1_14WireFormatLite9FieldTypeE9ELSC_11ELi0EE14GetInternalMapEv
cO:__ZN6google8protobuf5Arena18CreateMaybeMessageINS0_5MixinEEEPT_PS1_z
Ez:__ZNK6google8protobuf8internal12ExtensionSet8ByteSizeEv
Xja:__ZNK14chrome_lang_id16EmbeddingNetwork13VectorWrapper4dataEv
rka:__ZNK14chrome_lang_id9TaskInput8has_nameEv
vda:__ZNK6google8protobuf8internal20RepeatedFieldWrapperIjE4SizeEPKv
oba:__ZNK14chrome_lang_id14LangIdNNParams19embeddings_num_rowsEi
Nb:___cxa_pure_virtual
Lo:__ZNKSt3__26__treeINS_12__value_typeINS_12basic_stringIcNS_11char_traitsIcEENS_9allocatorIcEEEENS_4pairIPKviEEEENS_19__map_value_compareIS7_SC_NS_4lessIS7_EELb1EEENS5_ISC_EEE4findIS7_EENS_21__tree_const_iteratorISC_PNS_11__tree_nodeISC_PvEEiEERKT_
$U:__ZNK6google8protobuf19UninterpretedOption3NewEPNS0_5ArenaE
o8:__ZNK6google8protobuf9BoolValue12ByteSizeLongEv
uZ:__ZN14chrome_lang_id23GenericFeatureExtractorC2Ev
fla:__ZN10emscripten8internal11BindingTypeIfE10toWireTypeERKf
$8:__ZNK6google8protobuf8internal30RepeatedFieldPrimitiveAccessorIyE12ConvertFromTERKyPv
jq:__ZNK10__cxxabiv119__pointer_type_info9can_catchEPKNS_16__shim_type_infoERPv
Zh:__ZNK14chrome_lang_id16EmbeddingNetwork16ConcatEmbeddingsERKNSt3__26vectorINS_13FeatureVectorENS1_9allocatorIS3_EEEEPNS2_IfNS4_IfEEEE
B5:__ZN6google8protobuf8internal20RepeatedPtrFieldBaseC2Ev
xz:__ZNSt3__212basic_stringIcNS_11char_traitsIcEENS_9allocatorIcEEE9push_backEc
ZV:__ZN6google8protobuf8internal14WireFormatLite20MessageSizeNoVirtualIN14chrome_lang_id25FeatureFunctionDescriptorEEEjRKT_
GM:__ZN6google8protobuf8internal26FunctionResultCallback_1_0IPNSt3__212basic_stringIcNS3_11char_traitsIcEENS3_9allocatorIcEEEEPN14chrome_lang_id9ParameterEEC2EPFSA_SD_EbSD_
U2:__ZN6google8protobuf5Arena3OwnINS0_13SourceContextEEEvPT_
VN:__ZNK6google8protobuf9FieldMask11GetMetadataEv
bma:__ZNK6google8protobuf9FieldMask13IsInitializedEv
oaa:__ZNK6google8protobuf12OneofOptions3NewEv
Wl:__ZNK6google8protobuf8internal26GeneratedMessageReflection17RepeatedFieldDataEPNS0_7MessageEPKNS0_15FieldDescriptorENS5_7CppTypeEPKNS0_10DescriptorE
Fka:__ZN6google8protobuf11MessageLiteC2Ev
MW:__ZN6google8protobuf9BoolValue8CopyFromERKNS0_7MessageE
x7:__ZNSt3__211char_traitsIcE4moveEPcPKcj
og:__ZN6google8protobuf17DescriptorBuilder19AllocateOptionsImplINS0_17ServiceDescriptorEEEvRKNSt3__212basic_stringIcNS4_11char_traitsIcEENS4_9allocatorIcEEEESC_RKNT_11OptionsTypeEPSD_
$w:__ZNSt3__212__hash_tableINS_12basic_stringIcNS_11char_traitsIcEENS_9allocatorIcEEEEN6google8protobuf4hashIS6_EENS_8equal_toIS6_EENS4_IS6_EEE6rehashEj
oS:__ZN6google8protobuf8internal28InitMapEntryDefaultInstancesEv
hga:dynCall_vii
nS:__GLOBAL__sub_I_duration_pb_cc
OU:__ZN6google8protobuf23SourceCodeInfo_Location8CopyFromERKNS0_7MessageE
Z6:__ZN6google8protobuf8internal21arena_destruct_objectINS0_19UninterpretedOptionEEEvPv
D0:__ZNK14chrome_lang_id8Sentence2idEv
Bf:__ZNSt3__227__insertion_sort_incompleteIRN6google8protobuf12_GLOBAL__N_116FieldIndexSorterEPPKNS2_15FieldDescriptorEEEbT0_SA_T_
T9:__ZNK6google8protobuf15DescriptorProto3NewEv
tea:__ZNKSt3__26vectorIN14chrome_lang_id16FeatureExtractorINS1_8SentenceEJEEENS_9allocatorIS4_EEE8max_sizeEv
uD:__ZN10emscripten12value_objectIN14chrome_lang_id22NNetLanguageIdentifier6ResultEE5fieldIS3_NSt3__212basic_stringIcNS6_11char_traitsIcEENS6_9allocatorIcEEEEEERS4_PKcMT_T0_
is:__ZNK14chrome_lang_id8Sentence12ByteSizeLongEv
Pda:__ZNK6google8protobuf5Empty24SerializeWithCachedSizesEPNS0_2io17CodedOutputStreamE
mG:__ZNK6google8protobuf8internal30RepeatedFieldPrimitiveAccessorIdE4SwapEPvPKNS1_21RepeatedFieldAccessorES4_
LA:__ZN6google8protobuf8internal20RepeatedPtrFieldBase7DestroyINS0_16RepeatedPtrFieldIN14chrome_lang_id25FeatureFunctionDescriptorEE11TypeHandlerEEEvv
kia:__ZN6google8protobuf3ApiD0Ev
hy:__ZN14chrome_lang_id12_GLOBAL__N_116ResultIsReliableERKNSt3__212basic_stringIcNS1_11char_traitsIcEENS1_9allocatorIcEEEEf
Ana:_fflush
S6:__ZN6google8protobuf8internal14WireFormatLite19LengthDelimitedSizeEj
vk:__ZN14chrome_lang_id25FeatureFunctionDescriptor15UnsafeMergeFromERKS0_
Ps:__ZN14chrome_lang_id12WorkspaceSet5ResetERKNS_17WorkspaceRegistryE
lg:__ZN6google8protobuf17DescriptorBuilder19ValidateFileOptionsEPNS0_14FileDescriptorERKNS0_19FileDescriptorProtoE
Zba:__ZNK6google8protobuf5Empty3NewEv
mla:__ZN10__cxxabiv121__vmi_class_type_infoD0Ev
Bw:__ZN6google8protobuf28UninterpretedOption_NamePart9MergeFromERKNS0_7MessageE
yk:__ZNK6google8protobuf10TextFormat7Printer14PrintFieldNameERKNS0_7MessageEPKNS0_10ReflectionEPKNS0_15FieldDescriptorERNS2_13TextGeneratorE
nV:__ZNK6google8protobuf8internal23RepeatedPtrFieldWrapperINS0_7MessageEE3SetEPviPKv
Pma:_copysignl
d8:__ZN6google8protobuf8internal14WireFormatLite8EnumSizeEi
Kp:__ZN6google8protobuf12FieldOptions15UnsafeMergeFromERKS1_
Wd:__ZN6google8protobuf17DescriptorBuilder18DetectMapConflictsEPKNS0_10DescriptorERKNS0_15DescriptorProtoE
yu:__ZNK6google8protobuf6MapKey14GetUInt64ValueEv
J8:__ZN6google8protobuf9Timestamp5ClearEv
ZG:__ZN6google8protobuf2io16CodedInputStream12ReadVarint32EPj
c4:__ZNK6google8protobuf9ListValue31SerializeWithCachedSizesToArrayEPh
O1:__ZN6google8protobuf5Arena3OwnINS0_20FieldDescriptorProtoEEEvPT_
Dn:__ZN6google8protobuf12_GLOBAL__N_128SourceLocationCommentPrinter13AddPreCommentEPNSt3__212basic_stringIcNS3_11char_traitsIcEENS3_9allocatorIcEEEE
BV:__ZN6google8protobuf16EnumValueOptions8CopyFromERKNS0_7MessageE
wca:__ZN14chrome_lang_id41protobuf_InitDefaults_task_5fspec_2eprotoEv
iC:__ZN6google8protobuf8internal20RepeatedPtrFieldBase9MergeFromINS0_16RepeatedPtrFieldIN14chrome_lang_id10TaskOutputEE11TypeHandlerEEEvRKS2_
l$:__ZNK6google8protobuf8internal8MapFieldINSt3__212basic_stringIcNS3_11char_traitsIcEENS3_9allocatorIcEEEENS0_5ValueELNS1_14WireFormatLite9FieldTypeE9ELSC_11ELi0EE14GetInternalMapEv
Tr:__ZNK6google8protobuf8internal26GeneratedMessageReflection9SetUInt32EPNS0_7MessageEPKNS0_15FieldDescriptorEj
em:__ZN6google8protobuf58protobuf_ShutdownFile_google_2fprotobuf_2fwrappers_2eprotoEv
gh:__ZN6google8protobuf17GeneratedCodeInfo27MergePartialFromCodedStreamEPNS0_2io16CodedInputStreamE
j5:__ZNK14chrome_lang_id9TaskInput4partEi
rfa:__ZNK6google8protobuf6Struct13SetCachedSizeEi
Xba:__ZNK6google8protobuf5Mixin3NewEv
$0:_bitshift64Lshr
B9:__ZNK14chrome_lang_id18TaskSpec_Parameter3NewEv
Eea:dynCall_iii
JL:__ZN14chrome_lang_id9ParameterC2Ev
rU:__ZN6google8protobuf16RepeatedPtrFieldIN14chrome_lang_id25FeatureFunctionDescriptorEE9MergeFromERKS4_
EA:__ZN6google8protobuf13RepeatedFieldIyE9MergeFromERKS2_
vE:__ZNK14chrome_lang_id35LanguageIdEmbeddingFeatureExtractor9ArgPrefixEv
ov:__ZNK6google8protobuf8internal26GeneratedMessageReflection19SetAllocatedMessageEPNS0_7MessageES4_PKNS0_15FieldDescriptorE
c5:__ZN6google8protobuf8internal20RepeatedPtrFieldBase4castINS0_16RepeatedPtrFieldIN14chrome_lang_id25FeatureFunctionDescriptorEE11TypeHandlerEEEPNT_4TypeEPv
d9:__ZNK6google8protobuf8internal30RepeatedFieldPrimitiveAccessorIfE12ConvertFromTERKfPv
$$:__ZNSt3__26vectorINS_12basic_stringIcNS_11char_traitsIcEENS_9allocatorIcEEEENS4_IS6_EEED2Ev
ah:__ZNK6google8protobuf11FileOptions24SerializeWithCachedSizesEPNS0_2io17CodedOutputStreamE
pu:__ZNSt3__212_GLOBAL__N_19as_stringINS_12basic_stringIcNS_11char_traitsIcEENS_9allocatorIcEEEEPFiPcjPKczExEET_T0_SD_PKNSD_10value_typeET1_
ke:__ZNK6google8protobuf20FileDescriptorTables38FindEnumValueByNumberCreatingIfUnknownEPKNS0_14EnumDescriptorEi
gU:__ZNK6google8protobuf8internal26GeneratedMessageReflection8HasOneofERKNS0_7MessageEPKNS0_15OneofDescriptorE
Xd:__ZN6google8protobuf17DescriptorBuilder16CrossLinkMessageEPNS0_10DescriptorERKNS0_15DescriptorProtoE
mha:__ZN12_GLOBAL__N_1L16register_integerImEEvPKc
vfa:__ZN6google8protobuf10TextFormat6Parser10ParserImpl20ParserErrorCollectorD0Ev
nma:__ZNK14chrome_lang_id5Token11break_levelEv
um:__ZN14chrome_lang_id10TaskOutput5ClearEv
P2:__ZNK6google8protobuf16EnumValueOptions31SerializeWithCachedSizesToArrayEPh
TH:__ZN6google8protobuf5Arena18CreateMaybeMessageINSt3__212basic_stringIcNS3_11char_traitsIcEENS3_9allocatorIcEEEEEEPT_PS1_z
b3:__ZN6google8protobuf5Arena3OwnINS0_12OneofOptionsEEEvPT_
Zu:__ZNK6google8protobuf8internal12ExtensionSet17GetRepeatedDoubleEii
Ze:__ZN6google8protobuf17DescriptorBuilder17OptionInterpreter18SetAggregateOptionEPKNS0_15FieldDescriptorEPNS0_15UnknownFieldSetE
sz:__ZN6google8protobuf13MethodOptions9MergeFromERKNS0_7MessageE
Zt:__ZNSt3__26vectorINS_4pairIPKN6google8protobuf10DescriptorEiEENS_9allocatorIS7_EEE21__push_back_slow_pathIKS7_EEvRT_
_ka:__ZNK6google8protobuf17GeneratedCodeInfo13IsInitializedEv
Bd:__ZN6google8protobuf14DescriptorPool6Tables24RollbackToLastCheckpointEv
JG:__ZN6google8protobuf4Type28_slow_mutable_source_contextEv
Yka:_isspace
Vr:__ZN6google8protobuf16RepeatedPtrFieldINS0_23SourceCodeInfo_LocationEE9MergeFromERKS3_
LI:__ZNSt3__212__hash_tableINS_17__hash_value_typeINS_12basic_stringIcNS_11char_traitsIcEENS_9allocatorIcEEEEiEENS_22__unordered_map_hasherIS7_S8_NS_4hashIS7_EELb1EEENS_21__unordered_map_equalIS7_S8_NS_8equal_toIS7_EELb1EEENS5_IS8_EEE17__deallocate_nodeEPNS_16__hash_node_baseIPNS_11__hash_nodeIS8_PvEEEE
ZT:__ZN14chrome_lang_id26FeatureExtractorDescriptor22mutable_unknown_fieldsEv
wn:__ZNSt3__26__treeINS_12__value_typeINS_12basic_stringIcNS_11char_traitsIcEENS_9allocatorIcEEEENS_4pairIPKviEEEENS_19__map_value_compareIS7_SC_NS_4lessIS7_EELb1EEENS5_ISC_EEE12__find_equalIS7_EERPNS_16__tree_node_baseIPvEERPNS_15__tree_end_nodeISN_EERKT_
iU:_sn_write
cR:__ZN6google8protobuf14ServiceOptions16default_instanceEv
A9:dynCall_iiii
CR:__ZNSt3__26vectorINS_4pairINS_12basic_stringIcNS_11char_traitsIcEENS_9allocatorIcEEEEfEENS5_IS8_EEE2atEj
Ga:flushPendingDeletes
wja:__ZNK14chrome_lang_id17WorkspaceRegistry14WorkspaceNamesEv
VD:__ZNK6google8protobuf14SourceCodeInfo24SerializeWithCachedSizesEPNS0_2io17CodedOutputStreamE
jca:__ZNK10emscripten8internal12WireTypePackIJRKN14chrome_lang_id22NNetLanguageIdentifier6ResultEEEcvPKvEv
JP:__ZN14chrome_lang_id8TaskSpecD2Ev
zl:__ZNK14chrome_lang_id25FeatureFunctionDescriptor24SerializeWithCachedSizesEPN6google8protobuf2io17CodedOutputStreamE
Y_:__ZN6google8protobuf8internal18GenericTypeHandlerINS0_20FieldDescriptorProtoEE16NewFromPrototypeEPKS3_PNS0_5ArenaE
WB:__ZN6google8protobuf2io17CodedOutputStreamC2EPNS1_20ZeroCopyOutputStreamE
Vd:__ZN6google8protobuf21DynamicMessageFactory18GetPrototypeNoLockEPKNS0_10DescriptorE
hka:__ZNK14chrome_lang_id5Token12has_categoryEv
Z1:runPostSets
Ja:__embind_register_class_constructor
bZ:__ZN14chrome_lang_id5Token9MergeFromERKS0_
d$:__ZNSt3__26vectorIN14chrome_lang_id16EmbeddingNetwork15EmbeddingMatrixENS_9allocatorIS3_EEED2Ev
MU:__ZNK6google8protobuf16RepeatedPtrFieldIN14chrome_lang_id25FeatureFunctionDescriptorEE3GetEi
afa:__ZNK6google8protobuf9EnumValue13SetCachedSizeEi
Z4:dynCall_viiiid
NP:__ZNSt3__213__lower_boundIRNS_6__lessIjjEEPKjjEET0_S6_S6_RKT1_T_
Yca:__ZN6google8protobuf16EnumValueOptionsD0Ev
A0:__ZNK6google8protobuf8internal8MapEntryINSt3__212basic_stringIcNS3_11char_traitsIcEENS3_9allocatorIcEEEENS0_5ValueELNS1_14WireFormatLite9FieldTypeE9ELSC_11ELi0EE3keyEv
Mj:__ZN6google8protobuf52protobuf_AssignDesc_google_2fprotobuf_2ftype_2eprotoEv
Rw:__ZNK6google8protobuf3Any12ByteSizeLongEv
v8:___cxa_is_pointer_type
EC:__ZN6google8protobuf17FastInt32ToBufferEiPc
Qca:__ZN14chrome_lang_id22GenericFeatureFunction17RequestWorkspacesEPNS_17WorkspaceRegistryE
fG:__ZN14chrome_lang_id26FeatureExtractorDescriptorC2Ev
r9:__ZN14chrome_lang_id11StringPieceC2EPKci
gja:__ZNK14chrome_lang_id8Sentence13GetCachedSizeEv
U$:__ZN6google8protobuf8internal19arena_delete_objectIN14chrome_lang_id18TaskSpec_ParameterEEEvPv
l1:__ZN14chrome_lang_id11UnicodeText14const_iteratorppEv
oP:__ZNK6google8protobuf10Int64Value12ByteSizeLongEv
Ena:b5
Jna:b6
rE:__ZN6google8protobuf16EnumValueOptionsC2Ev
Ula:b0
Yea:b1
Dea:__ZN6google8protobuf12FieldOptionsD0Ev
Ima:__ZN6google8protobuf7ClosureD0Ev
HW:__ZNK6google8protobuf14DynamicMessage3NewEPNS0_5ArenaE
J4:__ZNK6google8protobuf5Value31SerializeWithCachedSizesToArrayEPh
maa:__ZN14chrome_lang_id23GenericFeatureExtractorD0Ev
Tca:b9
bR:__ZN6google8protobuf14SourceCodeInfo16default_instanceEv
mz:__ZN6google8protobuf16EnumValueOptions9MergeFromERKNS0_7MessageE
Cna:_dummy_1053
XK:__ZN14chrome_lang_id26FeatureExtractorDescriptorC2ERKS0_
LM:__ZNK6google8protobuf19EnumDescriptorProto11GetMetadataEv
NK:__ZNK6google8protobuf10Int64Value3NewEPNS0_5ArenaE
re:__ZN6google8protobuf17DescriptorBuilder14BuildEnumValueERKNS0_24EnumValueDescriptorProtoEPKNS0_14EnumDescriptorEPNS0_19EnumValueDescriptorE
Aha:__ZNK6google8protobuf9ListValue20GetMaybeArenaPointerEv
sB:__ZN6google8protobuf21MethodDescriptorProto14set_input_typeEPKc
PI:__ZNKSt3__212_GLOBAL__N_114initial_stringINS_12basic_stringIcNS_11char_traitsIcEENS_9allocatorIcEEEExLb0EEclEv
tw:__ZNK6google8protobuf8internal26GeneratedMessageReflection15SetRepeatedEnumEPNS0_7MessageEPKNS0_15FieldDescriptorEiPKNS0_19EnumValueDescriptorE
gL:__ZN6google8protobuf8internal8MapFieldINSt3__212basic_stringIcNS3_11char_traitsIcEENS3_9allocatorIcEEEENS0_5ValueELNS1_14WireFormatLite9FieldTypeE9ELSC_11ELi0EE5ClearEv
II:__ZNSt3__26vectorINS_12basic_stringIcNS_11char_traitsIcEENS_9allocatorIcEEEENS4_IS6_EEE10deallocateEv
A4:__ZN14chrome_lang_id35LanguageIdEmbeddingFeatureExtractorD2Ev
HB:__ZN6google8protobuf2io16CodedInputStream9PushLimitEi
Ya:__embind_register_emval
p_:__ZNK6google8protobuf7Message9SpaceUsedEv
x8:__ZNK14chrome_lang_id26FeatureExtractorDescriptor3NewEv
Qga:__ZN6google8protobuf8internal30RepeatedFieldPrimitiveAccessorIiED0Ev
Ng:__ZNK10__cxxabiv121__vmi_class_type_info16search_below_dstEPNS_19__dynamic_cast_infoEPKvib
eZ:__ZNSt3__24pairIKNS_10type_indexENS_6vectorINS_12basic_stringIcNS_11char_traitsIcEENS_9allocatorIcEEEENS7_IS9_EEEEED2Ev
BR:__ZN14chrome_lang_id10TaskOutput22mutable_file_extensionEv
$Z:__ZNK6google8protobuf6Option8GetArenaEv
MJ:__ZN14chrome_lang_id4CLD216hex_digit_to_intEc
Po:__ZNK6google8protobuf8internal26GeneratedMessageReflection8AddFloatEPNS0_7MessageEPKNS0_15FieldDescriptorEf
Nd:__ZNK6google8protobuf6Struct24SerializeWithCachedSizesEPNS0_2io17CodedOutputStreamE
iz:__ZN6google8protobuf17GeneratedCodeInfoD2Ev
Jf:__ZNSt3__213unordered_mapINS_12basic_stringIcNS_11char_traitsIcEENS_9allocatorIcEEEEN14chrome_lang_id12_GLOBAL__N_115LangChunksStatsENS_4hashIS6_EENS_8equal_toIS6_EENS4_INS_4pairIKS6_S9_EEEEEixERSF_
En:__ZNK6google8protobuf8internal26GeneratedMessageReflection16GetRepeatedInt32ERKNS0_7MessageEPKNS0_15FieldDescriptorEi
pH:__ZN14chrome_lang_id8SentenceC2Ev
rF:__ZN6google8protobuf28GeneratedCodeInfo_AnnotationC2Ev
j4:__ZN6google8protobuf8internal26FunctionResultCallback_1_0IPNSt3__212basic_stringIcNS3_11char_traitsIcEENS3_9allocatorIcEEEEPN14chrome_lang_id18TaskSpec_ParameterEED2Ev
gJ:__ZN6google8protobuf14SourceCodeInfo8CopyFromERKS1_
IH:__ZN6google8protobuf9ListValueC2Ev
fb:RegisteredPointer_destructor
FT:__ZNK14chrome_lang_id18TaskSpec_Parameter3NewEPN6google8protobuf5ArenaE
Q2:__ZNK14chrome_lang_id25FeatureFunctionDescriptor9parameterEi
gE:__ZN6google8protobuf25EncodedDescriptorDatabase24FindFileContainingSymbolERKNSt3__212basic_stringIcNS2_11char_traitsIcEENS2_9allocatorIcEEEEPNS0_19FileDescriptorProtoE
PZ:__ZN6google8protobuf16RepeatedPtrFieldIN14chrome_lang_id9ParameterEE3AddEv
Gm:__ZNK6google8protobuf8internal26GeneratedMessageReflection25UnsafeArenaReleaseMessageEPNS0_7MessageEPKNS0_15FieldDescriptorEPNS0_14MessageFactoryE
XU:__ZNK6google8protobuf19FileDescriptorProto3NewEPNS0_5ArenaE
xG:__ZNK6google8protobuf15FieldDescriptor9is_packedEv
jr:__ZN6google8protobuf11MapValueRef10DeleteDataEv
I$:__ZN14chrome_lang_id26FeatureExtractorDescriptor15mutable_featureEi
jc:tempFloat
xA:__ZNSt3__26vectorIN14chrome_lang_id16EmbeddingNetwork13VectorWrapperENS_9allocatorIS3_EEE26__swap_out_circular_bufferERNS_14__split_bufferIS3_RS5_EE
pk:__ZN14chrome_lang_id9TaskInput15UnsafeMergeFromERKS0_
lba:__ZNK6google8protobuf28GeneratedCodeInfo_Annotation13SetCachedSizeEi
Ll:__ZN6google8protobuf14DoubleToBufferEdPc
Wy:__ZNSt3__26vectorIcNS_9allocatorIcEEE21__push_back_slow_pathIcEEvOT_
Fa:ClassHandle_isAliasOf
CJ:__ZNSt3__26vectorIfNS_9allocatorIfEEE6resizeEj
xL:__ZN6google8protobuf19FileDescriptorProto9MergeFromERKNS0_7MessageE
Zk:__ZN6google8protobuf10TextFormat6Parser10ParserImpl7ConsumeERKNSt3__212basic_stringIcNS4_11char_traitsIcEENS4_9allocatorIcEEEE
iP:__ZNK6google8protobuf11UInt64Value12ByteSizeLongEv
Fp:__ZN6google8protobuf8internal14WireFormatLite16VerifyUtf8StringEPKciNS2_9OperationES4_
ej:__ZNSt3__27__sort5IRPFbRKNS_4pairINS_12basic_stringIcNS_11char_traitsIcEENS_9allocatorIcEEEEfEESA_EPS8_EEjT0_SF_SF_SF_SF_T_
Hp:__ZN6google8protobuf17DescriptorBuilder17OptionInterpreter22AddWithoutInterpretingERKNS0_19UninterpretedOptionEPNS0_7MessageE
MP:__ZNSt3__214__split_bufferIcRNS_9allocatorIcEEEC2EjjS3_
jk:__ZNK6google8protobuf19UninterpretedOption12ByteSizeLongEv
Rba:__ZN6google8protobuf12_GLOBAL__N_1L13MergeFromFailEi_402
YC:__ZN6google8protobuf21DynamicMessageFactoryD2Ev
qf:___floatscan
JF:__ZNSt3__214__split_bufferIiRNS_9allocatorIiEEEC2EjjS3_
oda:__ZNK6google8protobuf17FileDescriptorSet13SetCachedSizeEi
xp:__ZNSt3__26__treeINS_12__value_typeINS_4pairIPKN6google8protobuf10DescriptorEiEEPKNS4_15FieldDescriptorEEENS_19__map_value_compareIS8_SC_NS_4lessIS8_EELb1EEENS_9allocatorISC_EEE14__erase_uniqueIS8_EEjRKT_
AA:__ZN6google8protobuf3AnyD2Ev
oH:__ZNK6google8protobuf14DescriptorPool19FindExtensionByNameERKNSt3__212basic_stringIcNS2_11char_traitsIcEENS2_9allocatorIcEEEE
Sf:__ZN6google8protobuf17DescriptorBuilder12BuildServiceERKNS0_22ServiceDescriptorProtoEPKvPNS0_17ServiceDescriptorE
C6:__ZN6google8protobuf8internal21arena_destruct_objectINS0_23SourceCodeInfo_LocationEEEvPv
mna:__ZnwjRKSt9nothrow_t
Wf:__ZN6google8protobuf15DescriptorProtoD2Ev
yG:__ZN6google8protobuf9EnumValueC2Ev
KD:__ZNSt3__212__hash_tableINS_17__hash_value_typeINS_10type_indexENS_12basic_stringIcNS_11char_traitsIcEENS_9allocatorIcEEEEEENS_22__unordered_map_hasherIS2_S9_NS_4hashIS2_EELb1EEENS_21__unordered_map_equalIS2_S9_NS_8equal_toIS2_EELb1EEENS6_IS9_EEED2Ev
zN:__ZN14chrome_lang_id4CLD220SpanInterchangeValidEPKci
OI:__ZN6google8protobuf8internal14WireFormatLite34ReadGroupNoVirtualNoRecursionDepthIN14chrome_lang_id14TaskInput_PartEEEbiPNS0_2io16CodedInputStreamEPT_
Jg:__ZNK6google8protobuf3Api12ByteSizeLongEv
ifa:__ZNK6google8protobuf28GeneratedCodeInfo_Annotation13GetCachedSizeEv
nq:__ZN6google8protobuf15StripWhitespaceEPNSt3__212basic_stringIcNS1_11char_traitsIcEENS1_9allocatorIcEEEE
bea:__ZN14chrome_lang_id13ScriptFeatureD0Ev
A:Math_floor
kk:__ZNK6google8protobuf20FileDescriptorTables22FindNestedSymbolOfTypeEPKvRKNSt3__212basic_stringIcNS4_11char_traitsIcEENS4_9allocatorIcEEEENS0_12_GLOBAL__N_16Symbol4TypeE
d_:__ZN6google8protobuf8internal18GenericTypeHandlerINS0_24EnumValueDescriptorProtoEE16NewFromPrototypeEPKS3_PNS0_5ArenaE
aba:__ZN6google8protobuf21MethodDescriptorProtoD0Ev
ip:__ZN6google8protobuf17DescriptorBuilder14ValidateProto3EPNS0_14FileDescriptorERKNS0_19FileDescriptorProtoE
d4:__ZNK6google8protobuf9FieldMask31SerializeWithCachedSizesToArrayEPh
Si:__ZNK6google8protobuf28GeneratedCodeInfo_Annotation24SerializeWithCachedSizesEPNS0_2io17CodedOutputStreamE
Fr:__ZN6google8protobuf8internal12ExtensionSet10AddMessageEPKNS0_15FieldDescriptorEPNS0_14MessageFactoryE
Ne:__ZN6google8protobuf17DescriptorBuilder25LookupSymbolNoPlaceholderERKNSt3__212basic_stringIcNS2_11char_traitsIcEENS2_9allocatorIcEEEESA_NS1_11ResolveModeE
_6:__ZN6google8protobuf8internal21arena_destruct_objectINS0_19FileDescriptorProtoEEEvPv
Zp:__ZN6google8protobuf14DescriptorPool6TablesC2Ev
Ly:__ZNK14chrome_lang_id25EmbeddingFeatureExtractorINS_16FeatureExtractorINS_8SentenceEJEEES2_JEE15ExtractFeaturesERKNS_12WorkspaceSetERKS2_PNSt3__26vectorINS_13FeatureVectorENSA_9allocatorISC_EEEE
bca:__ZNK14chrome_lang_id14LangIdNNParams14hidden_weightsEi
Sda:__ZNK6google8protobuf14MessageOptions13SetCachedSizeEi
x2:___strdup
WG:__ZN6google8protobuf17DescriptorBuilder17OptionInterpreterC2EPS1_
pla:__ZNK14chrome_lang_id14TaskInput_Part13IsInitializedEv
Mg:__ZNK6google8protobuf19FileDescriptorProto24SerializeWithCachedSizesEPNS0_2io17CodedOutputStreamE
eQ:__ZNK6google8protobuf10Int32Value12ByteSizeLongEv
Cn:__ZN6google8protobuf23SourceCodeInfo_Location15UnsafeMergeFromERKS1_
az:__ZN6google8protobuf14ServiceOptionsD2Ev
gY:__ZN14chrome_lang_id22NNetLanguageIdentifier25SelectTextGivenScriptSpanERKNS_4CLD28LangSpanE
xg:__ZN6google8protobuf5Mixin27MergePartialFromCodedStreamEPNS0_2io16CodedInputStreamE
oT:__ZN6google8protobuf8internal18GenericTypeHandlerINS0_22ServiceDescriptorProtoEE5MergeERKS3_PS3_
gz:__ZN6google8protobuf11EnumOptionsD2Ev
HU:__ZN6google8protobuf24EnumValueDescriptorProto8CopyFromERKNS0_7MessageE
UK:__ZN6google8protobuf30DescriptorProto_ExtensionRangeD2Ev
RM:__ZN6google8protobuf8internal26FunctionResultCallback_1_0IPNSt3__212basic_stringIcNS3_11char_traitsIcEENS3_9allocatorIcEEEEPN14chrome_lang_id25FeatureFunctionDescriptorEE3RunEv
Vz:__ZN6google8protobuf8internal14WireFormatLite12WriteFixed32EijPNS0_2io17CodedOutputStreamE
UQ:_memmove
dj:__ZN6google8protobuf8internal12ExtensionSet9AddStringEihPKNS0_15FieldDescriptorE
h2:__ZN6google8protobuf5Arena3OwnINS0_17GeneratedCodeInfoEEEvPT_
pG:__ZNSt3__212__hash_tableINS_17__hash_value_typeINS_12basic_stringIcNS_11char_traitsIcEENS_9allocatorIcEEEEN14chrome_lang_id12_GLOBAL__N_115LangChunksStatsEEENS_22__unordered_map_hasherIS7_SB_NS_4hashIS7_EELb1EEENS_21__unordered_map_equalIS7_SB_NS_8equal_toIS7_EELb1EEENS5_ISB_EEE17__deallocate_nodeEPNS_16__hash_node_baseIPNS_11__hash_nodeISB_PvEEEE
Rja:__ZNK6google8protobuf5Empty13GetCachedSizeEv
rq:__ZNK6google8protobuf11MessageLite21AppendPartialToStringEPNSt3__212basic_stringIcNS2_11char_traitsIcEENS2_9allocatorIcEEEE
CX:__ZN6google8protobuf16RepeatedPtrFieldIN14chrome_lang_id10TaskOutputEE9MergeFromERKS4_
yw:__ZNK6google8protobuf8internal20RepeatedPtrFieldBase3GetINS0_16RepeatedPtrFieldIN14chrome_lang_id9ParameterEE11TypeHandlerEEERKNT_4TypeEi
vR:__ZN14chrome_lang_id14TaskInput_Part20mutable_file_patternEv
xK:__ZN10emscripten3valC2IRKN14chrome_lang_id22NNetLanguageIdentifier6ResultEEEOT_
jT:__ZNK6google8protobuf29DescriptorProto_ReservedRange3NewEPNS0_5ArenaE
x5:__ZNK14chrome_lang_id8TaskSpec6outputEi
Lt:__ZN6google8protobuf14MessageOptions15UnsafeMergeFromERKS1_
kO:__ZNK6google8protobuf6Method11GetMetadataEv
vu:__ZNK6google8protobuf8internal31RepeatedPtrFieldMessageAccessor4SwapEPvPKNS1_21RepeatedFieldAccessorES3_
Mea:__ZN6google8protobuf12_GLOBAL__N_1L13MergeFromFailEi_568
vc:FUNCTION_TABLE_viiid
sY:__ZNSt3__212basic_stringIcNS_11char_traitsIcEENS_9allocatorIcEEE7replaceEjjPKc
hu:__ZN6google8protobuf2io9Tokenizer12IsIdentifierERKNSt3__212basic_stringIcNS3_11char_traitsIcEENS3_9allocatorIcEEEE
Au:__ZN14chrome_lang_id9GetScriptEPKhi
zma:__ZNK6google8protobuf6Method13IsInitializedEv
q:setjmpId
xk:__ZN6google8protobuf8internal20RepeatedPtrFieldBase12SwapFallbackINS0_16RepeatedPtrFieldINSt3__212basic_stringIcNS5_11char_traitsIcEENS5_9allocatorIcEEEEE11TypeHandlerEEEvPS2_
Ik:_scanexp
Bc:FUNCTION_TABLE_viiii
Rs:__ZN6google8protobuf16RepeatedPtrFieldINS0_20FieldDescriptorProtoEE9MergeFromERKS3_
KM:__ZNK6google8protobuf19FileDescriptorProto11GetMetadataEv
_N:__ZNSt3__214__split_bufferIN14chrome_lang_id16FeatureExtractorINS1_8SentenceEJEEERNS_9allocatorIS4_EEE18__construct_at_endEj
Kt:__ZN6google8protobuf22ServiceDescriptorProtoD2Ev
iX:__ZNK6google8protobuf20OneofDescriptorProto13IsInitializedEv
AJ:__ZN6google8protobuf5Arena18CreateMaybeMessageINS0_29DescriptorProto_ReservedRangeEEEPT_PS1_z
hU:__ZNK14chrome_lang_id14TaskInput_Part3NewEPN6google8protobuf5ArenaE
s:nan
Ko:__ZN6google8protobuf8internal20RepeatedPtrFieldBase24AddAllocatedSlowWithCopyINS1_18GenericTypeHandlerINS0_7MessageEEEEEvPNT_4TypeEPNS0_5ArenaESB_
Vb:__emval_register
Efa:b16
Ska:b17
gna:b14
Xi:__ZN6google8protobuf19FileDescriptorProtoD2Ev
_ma:b12
Lna:b13
Cd:__ZN6google8protobuf17DescriptorBuilder12LookupSymbolERKNSt3__212basic_stringIcNS2_11char_traitsIcEENS2_9allocatorIcEEEESA_NS1_15PlaceholderTypeENS1_11ResolveModeE
I6:__ZNK6google8protobuf8internal16MapFieldAccessor3NewEPKv
VV:__ZNK6google8protobuf10TextFormat17FieldValuePrinter9PrintEnumEiRKNSt3__212basic_stringIcNS3_11char_traitsIcEENS3_9allocatorIcEEEE
a_:__ZNK6google8protobuf5Value8GetArenaEv
fi:__ZN6google8protobuf8internal12ExtensionSet8AddInt64EihbxPKNS0_15FieldDescriptorE
lna:b18
_9:__ZNK6google8protobuf14SourceCodeInfo3NewEv
sP:__ZNSt3__26vectorIfNS_9allocatorIfEEE10deallocateEv
sna:__ZNKSt9exception4whatEv
c8:__ZN6google8protobuf8internal16FunctionClosure1IPNSt3__24pairIPKNS0_20FileDescriptorTablesEPKNS0_14SourceCodeInfoEEEED0Ev
Mq:__ZNK6google8protobuf15OneofDescriptor17GetSourceLocationEPNS0_14SourceLocationE
gca:__ZNK6google8protobuf4Type3NewEv
Iw:__ZN14chrome_lang_id4CLD2L14strto32_base16EPKcS2_PS2_
Oo:__ZNK6google8protobuf8internal26GeneratedMessageReflection9AddDoubleEPNS0_7MessageEPKNS0_15FieldDescriptorEd
bc:__embind_register_float
Yv:__ZN10emscripten8internal12MemberAccessIN14chrome_lang_id22NNetLanguageIdentifier6ResultENSt3__212basic_stringIcNS5_11char_traitsIcEENS5_9allocatorIcEEEEE7setWireIS4_EEvRKMS4_SB_RT_PNS0_11BindingTypeISB_EUt_E
FJ:__ZNSt3__213unordered_mapINS_12basic_stringIcNS_11char_traitsIcEENS_9allocatorIcEEEEN14chrome_lang_id12_GLOBAL__N_115LangChunksStatsENS_4hashIS6_EENS_8equal_toIS6_EENS4_INS_4pairIKS6_S9_EEEEED2Ev
Tl:__ZNK6google8protobuf8internal26GeneratedMessageReflection22InsertOrLookupMapValueEPNS0_7MessageEPKNS0_15FieldDescriptorERKNS0_6MapKeyEPNS0_11MapValueRefE
sx:__ZNK6google8protobuf17GeneratedCodeInfo39InternalSerializeWithCachedSizesToArrayEbPh
xH:__ZN14chrome_lang_id21RelevantScriptFeature4InitEPNS_11TaskContextE
qA:__ZN14chrome_lang_id17ComponentRegistryIFPNS_15FeatureFunctionINS_8SentenceEJEEEvEE9RegistrarC2EPS6_PKcSA_SA_iPS5_
zha:__ZNK6google8protobuf9Timestamp20GetMaybeArenaPointerEv
TZ:__ZNK6google8protobuf9EnumValue8GetArenaEv
ui:__ZN6google8protobuf8internal12ExtensionSet9AddDoubleEihbdPKNS0_15FieldDescriptorE
bM:__ZN6google8protobuf10Int64ValueD2Ev
UR:__ZN14chrome_lang_id4CLD213ScriptScanner21GetOneScriptSpanLowerEPNS0_8LangSpanE
kba:__ZNK6google8protobuf28UninterpretedOption_NamePart13SetCachedSizeEi
P7:__ZN6google8protobuf8internal9SingletonINS1_16MapFieldAccessorEE4InitEv
UV:__ZNK6google8protobuf8internal20RepeatedFieldWrapperIiE3SetEPviPKv
Dm:__ZN6google8protobuf8internal20RepeatedPtrFieldBase12SwapFallbackINS0_16RepeatedPtrFieldINS0_7MessageEE11TypeHandlerEEEvPS2_
Y$:__ZNK14chrome_lang_id17ComponentRegistryIFPNS_15FeatureFunctionINS_8SentenceEJEEEvEE9Registrar4nextEv
_ea:__ZNK6google8protobuf9ListValue13SetCachedSizeEi
wI:__ZN6google8protobuf8internal14WireFormatLite36ReadMessageNoVirtualNoRecursionDepthIN14chrome_lang_id10TaskOutputEEEbPNS0_2io16CodedInputStreamEPT_
bG:__ZNK6google8protobuf10Int32Value39InternalSerializeWithCachedSizesToArrayEbPh
iT:__ZN14chrome_lang_id5Token12mutable_wordEv
zQ:__ZN6google8protobuf48protobuf_AddDesc_google_2fprotobuf_2fany_2eprotoEv
xB:__ZN6google8protobuf20FieldDescriptorProto12set_extendeeEPKc
ZF:__ZNK14chrome_lang_id16EmbeddingNetwork15EmbeddingMatrix13get_embeddingEiPPKvPf
bD:__ZN6google8protobuf9EnumValue5ClearEv
uf:__ZN6google8protobuf8internal12MapEntryLiteINSt3__212basic_stringIcNS3_11char_traitsIcEENS3_9allocatorIcEEEENS0_5ValueELNS1_14WireFormatLite9FieldTypeE9ELSC_11ELi0EE6ParserINS1_8MapFieldIS9_SA_LSC_9ELSC_11ELi0EEENS0_3MapIS9_SA_EEE22ReadBeyondKeyValuePairEPNS0_2io16CodedInputStreamE
gka:__ZNK6google8protobuf2io20ZeroCopyOutputStream14AllowsAliasingEv
B2:__ZN6google8protobuf5Arena3OwnINS0_15DescriptorProtoEEEvPT_
ny:__ZN6google8protobuf11FileOptionsD2Ev
N9:__ZN14chrome_lang_id14TaskInput_PartD2Ev
oN:__ZNSt3__26vectorIPN14chrome_lang_id15FeatureFunctionINS1_8SentenceEJEEENS_9allocatorIS5_EEE18__construct_at_endIPS5_EENS_9enable_ifIXsr21__is_forward_iteratorIT_EE5valueEvE4typeESC_SC_j
Ho:__ZN6google8protobuf19EnumDescriptorProto5ClearEv
rM:__ZNK6google8protobuf23SourceCodeInfo_Location11GetMetadataEv
dna:__ZNK14chrome_lang_id5Token3endEv
sa:throwInternalError
b9:__ZNK6google8protobuf8internal30RepeatedFieldPrimitiveAccessorIjE12ConvertFromTERKjPv
OR:_llvm_cttz_i32
Aj:__ZN6google8protobuf3MapINSt3__212basic_stringIcNS2_11char_traitsIcEENS2_9allocatorIcEEEENS0_5ValueEE4InitEv
nW:__ZN6google8protobuf11UInt32Value8CopyFromERKNS0_7MessageE
L0:__ZNK14chrome_lang_id25FeatureFunctionDescriptor7featureEi
A8:__ZN10emscripten8internal12GlobalAccessIiE3getEPi
va:___assert_fail
Mm:__ZNK14chrome_lang_id11TaskContext3GetERKNSt3__212basic_stringIcNS1_11char_traitsIcEENS1_9allocatorIcEEEEPKc
ST:__ZNK6google8protobuf24EnumValueDescriptorProto3NewEPNS0_5ArenaE
kca:__ZN14chrome_lang_id8TaskSpec17set_has_task_typeEv
Faa:__ZNK6google8protobuf8internal20RepeatedFieldWrapperIxE7IsEmptyEPKv
Vy:__ZN6google8protobuf9FieldMaskD2Ev
fv:__ZL25default_terminate_handlerv
t_:__ZNK6google8protobuf15FieldDescriptor6is_mapEv
s4:__ZN6google8protobuf5Arena3OwnINS0_5MixinEEEvPT_
dU:__ZN6google8protobuf8internal10LogMessageC2ENS0_8LogLevelEPKci
Lja:__ZN6google8protobuf11DoubleValue5ClearEv
lka:__ZNK6google8protobuf23SourceCodeInfo_Location13IsInitializedEv
OO:__ZNSt3__213__vector_baseIN14chrome_lang_id13FeatureVectorENS_9allocatorIS2_EEED2Ev
YD:__ZThn28_N6google8protobuf8internal8MapFieldINSt3__212basic_stringIcNS3_11char_traitsIcEENS3_9allocatorIcEEEENS0_5ValueELNS1_14WireFormatLite9FieldTypeE9ELSC_11ELi0EE9MergeFromERKNS1_12MapFieldLiteIS9_SA_LSC_9ELSC_11ELi0EEE
KV:__ZNK6google8protobuf17GeneratedCodeInfo3NewEPNS0_5ArenaE
Ic:__ZN6google8protobuf17DescriptorBuilder12BuildMessageERKNS0_15DescriptorProtoEPKNS0_10DescriptorEPS5_
Sma:__ZNKSt3__26vectorIcNS_9allocatorIcEEE8max_sizeEv
wf:__ZNK6google8protobuf8internal26GeneratedMessageReflection14MutableMessageEPNS0_7MessageEPKNS0_15FieldDescriptorEPNS0_14MessageFactoryE
Xo:__ZNK6google8protobuf8internal26GeneratedMessageReflection17SetRepeatedStringEPNS0_7MessageEPKNS0_15FieldDescriptorEiRKNSt3__212basic_stringIcNS8_11char_traitsIcEENS8_9allocatorIcEEEE
ko:__ZNK6google8protobuf8internal26GeneratedMessageReflection7GetBoolERKNS0_7MessageEPKNS0_15FieldDescriptorE
Wj:__ZNK14chrome_lang_id22GenericFeatureFunction4nameEv
AO:__ZNK6google8protobuf9BoolValue3NewEPNS0_5ArenaE
pha:__ZNK6google8protobuf8internal21ExplicitlyConstructedIN14chrome_lang_id9TaskInputEE3getEv
Xga:__ZN12_GLOBAL__N_1L20register_memory_viewIeEEvPKc
nca:__ZN14chrome_lang_id18NumericFeatureTypeD0Ev
Dma:__ZNKSt3__218__libcpp_refstring5c_strEv
Gh:__ZN6google8protobuf17DescriptorBuilder11BuildMethodERKNS0_21MethodDescriptorProtoEPKNS0_17ServiceDescriptorEPNS0_16MethodDescriptorE
$I:__ZNKSt3__28functionIFbPKcPiEEclES2_S3_
_t:__ZN6google8protobuf9EnumValueD2Ev
Sd:__GLOBAL__sub_I_parser_cc
Se:__ZN6google8protobuf7strings19SubstituteAndAppendEPNSt3__212basic_stringIcNS2_11char_traitsIcEENS2_9allocatorIcEEEEPKcRKNS1_8internal13SubstituteArgESF_SF_SF_SF_SF_SF_SF_SF_SF_
pL:__ZN6google8protobuf20OneofDescriptorProto9MergeFromERKNS0_7MessageE
sg:__ZN6google8protobuf17DescriptorBuilder19AllocateOptionsImplINS0_15OneofDescriptorEEEvRKNSt3__212basic_stringIcNS4_11char_traitsIcEENS4_9allocatorIcEEEESC_RKNT_11OptionsTypeEPSD_
Kca:_wctomb
pR:__ZNSt3__214__split_bufferIPN14chrome_lang_id9WorkspaceERNS_9allocatorIS3_EEE18__construct_at_endEj
pv:__ZN6google8protobuf8internal20RepeatedPtrFieldBase5ClearINS0_16RepeatedPtrFieldINSt3__212basic_stringIcNS5_11char_traitsIcEENS5_9allocatorIcEEEEE11TypeHandlerEEEvv
Pe:__ZNSt3__213__tree_removeIPNS_16__tree_node_baseIPvEEEEvT_S5_
ie:__ZN6google8protobuf17DescriptorBuilder9BuildFileERKNS0_19FileDescriptorProtoE
vA:__ZN6google8protobuf3Any9MergeFromERKS1_
Raa:__ZNK14chrome_lang_id10TaskOutput3NewEv
$ja:__ZNSt11logic_errorD0Ev
_ha:__ZNK14chrome_lang_id10TaskOutput18has_file_extensionEv
oW:__ZN6google8protobuf11StringValue8CopyFromERKNS0_7MessageE
SD:__ZNK6google8protobuf17FileDescriptorSet24SerializeWithCachedSizesEPNS0_2io17CodedOutputStreamE
dba:__ZN14chrome_lang_id18TaskSpec_Parameter12set_has_nameEv
Fj:__ZN6google8protobuf6MapKey8CopyFromERKS1_
h0:__ZNK6google8protobuf8internal12MapEntryLiteINSt3__212basic_stringIcNS3_11char_traitsIcEENS3_9allocatorIcEEEENS0_5ValueELNS1_14WireFormatLite9FieldTypeE9ELSC_11ELi0EE3keyEv
hZ:__ZN6google8protobuf8internal14WireFormatLite20MessageSizeNoVirtualIN14chrome_lang_id5TokenEEEjRKT_
dma:__ZNK6google8protobuf9BoolValue13IsInitializedEv
sG:_strtox
wY:__ZN14chrome_lang_id5utils10ParseInt32EPKcPi
Ma:___syscall140
T_:__ZNSt3__26vectorIN14chrome_lang_id16FeatureExtractorINS1_8SentenceEJEEENS_9allocatorIS4_EEED2Ev
daa:__ZN14chrome_lang_id29ContinuousBagOfNgramsFunctionD2Ev
nga:__ZN6google8protobuf8internal12MapFieldBase11SetMapDirtyEv
Oa:___syscall146
s9:__ZNSt11logic_errorC2EPKc
Fn:__ZNK6google8protobuf14FileDescriptor17GetSourceLocationERKNSt3__26vectorIiNS2_9allocatorIiEEEEPNS0_14SourceLocationE
Gj:__ZN6google8protobuf2io16CodedInputStream27ReadVarintSizeAsIntFallbackEv
Il:__ZN6google8protobuf3MapINS0_6MapKeyENS0_11MapValueRefEE12MapAllocatorINSt3__23setIPS2_NS4_8InnerMap10KeyCompareENS5_IS8_EEEEE9constructEPSC_RKSC_
V6:__ZNK6google8protobuf10TextFormat17FieldValuePrinter11PrintDoubleEd
VQ:__ZN6google8protobuf8internal8MapEntryINSt3__212basic_stringIcNS3_11char_traitsIcEENS3_9allocatorIcEEEENS0_5ValueELNS1_14WireFormatLite9FieldTypeE9ELSC_11ELi0EE8CopyFromERKNS0_7MessageE
Pa:__embind_register_class_class_property
lp:__ZNK6google8protobuf24EnumValueDescriptorProto39InternalSerializeWithCachedSizesToArrayEbPh
WU:__ZNK6google8protobuf8internal23RepeatedPtrFieldWrapperINS0_7MessageEE3GetEPKviPv
eha:__ZNK14chrome_lang_id25FeatureFunctionDescriptor8has_typeEv
Zfa:setThrew
Pj:__ZN6google8protobuf8internal15DynamicMapFieldD2Ev
mD:__ZNSt3__214__split_bufferINS_6vectorIN14chrome_lang_id16EmbeddingNetwork13VectorWrapperENS_9allocatorIS4_EEEERNS5_IS7_EEEC2EjjS9_
Gf:__ZNK6google8protobuf8internal26GeneratedMessageReflection10ClearOneofEPNS0_7MessageEPKNS0_15OneofDescriptorE
GS:__GLOBAL__sub_I_any_pb_cc
bl:__ZN6google8protobuf10TextFormat13ParseInfoTree12CreateNestedEPKNS0_15FieldDescriptorE
j7:__ZN6google8protobuf8internal21arena_destruct_objectIN14chrome_lang_id5TokenEEEvPv
Dk:__ZNK6google8protobuf8internal26GeneratedMessageReflection7SwapBitEPNS0_7MessageES4_PKNS0_15FieldDescriptorE
_K:__ZN14chrome_lang_id9TaskInputD2Ev
YH:__ZN6google8protobuf12_GLOBAL__N_122protobuf_RegisterTypesERKNSt3__212basic_stringIcNS2_11char_traitsIcEENS2_9allocatorIcEEEE_567
tg:__ZN6google8protobuf17DescriptorBuilder19AllocateOptionsImplINS0_15FieldDescriptorEEEvRKNSt3__212basic_stringIcNS4_11char_traitsIcEENS4_9allocatorIcEEEESC_RKNT_11OptionsTypeEPSD_
HT:__ZN14chrome_lang_id4CLD213ScriptScannerD2Ev
lY:__ZNK6google8protobuf9BoolValue39InternalSerializeWithCachedSizesToArrayEbPh
Pi:__ZNK6google8protobuf8internal26GeneratedMessageReflection11ReleaseLastEPNS0_7MessageEPKNS0_15FieldDescriptorE
OC:__ZNK6google8protobuf8internal12ExtensionSet8GetInt32Eii
nB:__ZNK6google8protobuf13SourceContext39InternalSerializeWithCachedSizesToArrayEbPh
d5:__ZN6google8protobuf8internal18GenericTypeHandlerIN14chrome_lang_id9TaskInputEE5ClearEPS4_
TJ:__ZNK14chrome_lang_id16FeatureExtractorINS_8SentenceEJEE15GetFeatureTypesEPNSt3__26vectorIPNS_11FeatureTypeENS3_9allocatorIS6_EEEE
bna:__ZNK14chrome_lang_id5Token4headEv
eg:__ZNSt3__212__hash_tableINS_17__hash_value_typeINS_4pairIPKvPKcEEPKN6google8protobuf15FieldDescriptorEEENS_22__unordered_map_hasherIS7_SD_NS9_12_GLOBAL__N_121PointerStringPairHashELb1EEENS_21__unordered_map_equalIS7_SD_NSF_22PointerStringPairEqualELb1EEENS_9allocatorISD_EEE8__rehashEj
Ny:___strchrnul
Rha:__ZNSt3__215__refstring_imp12_GLOBAL__N_113rep_from_dataEPKc_1584
Ai:__ZNK6google8protobuf8internal8MapFieldINSt3__212basic_stringIcNS3_11char_traitsIcEENS3_9allocatorIcEEEENS0_5ValueELNS1_14WireFormatLite9FieldTypeE9ELSC_11ELi0EE28SpaceUsedExcludingSelfNoLockEv
ft:__ZNK14chrome_lang_id14TaskInput_Part12ByteSizeLongEv
IS:__ZNSt3__213__vector_baseIfNS_9allocatorIfEEED2Ev
sj:__ZN6google8protobuf9FieldMask27MergePartialFromCodedStreamEPNS0_2io16CodedInputStreamE
wj:__ZNSt3__27__sort5IRN6google8protobuf8internal12_GLOBAL__N_117FieldNumberSorterEPPKNS2_15FieldDescriptorEEEjT0_SB_SB_SB_SB_T_
ul:__ZNK14chrome_lang_id5Token12ByteSizeLongEv
Eu:__ZNK6google8protobuf11EnumOptions24SerializeWithCachedSizesEPNS0_2io17CodedOutputStreamE
S0:_sprintf
Z2:__ZN6google8protobuf8internal26FunctionResultCallback_1_0IPNSt3__212basic_stringIcNS3_11char_traitsIcEENS3_9allocatorIcEEEEPN14chrome_lang_id25FeatureFunctionDescriptorEED2Ev
db:heap32VectorToArray
S7:__ZN14chrome_lang_idL32MutableUnknownFieldsForTaskInputEPNS_9TaskInputE
t0:__ZN6google8protobuf12_GLOBAL__N_123AggregateErrorCollector10AddWarningEiiRKNSt3__212basic_stringIcNS3_11char_traitsIcEENS3_9allocatorIcEEEE
dH:__ZN6google8protobuf14SourceCodeInfoC2Ev
LG:__ZN6google8protobuf5Mixin5ClearEv
Zja:__ZN6google8protobuf10FloatValue5ClearEv
q2:__ZNK6google8protobuf19EnumDescriptorProto31SerializeWithCachedSizesToArrayEPh
Pca:__ZN14chrome_lang_id5Token16set_has_categoryEv
a9:__ZNK6google8protobuf8internal30RepeatedFieldPrimitiveAccessorIxE12ConvertFromTERKxPv
N2:__ZN10emscripten8internal10getContextIMN14chrome_lang_id22NNetLanguageIdentifier6ResultEbEEPT_RKS6_
Ch:__ZNK14chrome_lang_id5Token24SerializeWithCachedSizesEPN6google8protobuf2io17CodedOutputStreamE
xJ:__ZN14chrome_lang_id4CLD29OffsetMap4CopyEi
HX:__ZN6google8protobuf9StrAppendEPNSt3__212basic_stringIcNS1_11char_traitsIcEENS1_9allocatorIcEEEERKNS0_7strings8AlphaNumE
ega:__ZN14chrome_lang_id21RelevantScriptFeature5SetupEPNS_11TaskContextE
Zv:__ZNK6google8protobuf8internal23TypeDefinedMapFieldBaseINS0_6MapKeyENS0_11MapValueRefEE12CopyIteratorEPNS0_11MapIteratorERKS6_
gV:__ZNK6google8protobuf8internal12MapEntryLiteINSt3__212basic_stringIcNS3_11char_traitsIcEENS3_9allocatorIcEEEENS0_5ValueELNS1_14WireFormatLite9FieldTypeE9ELSC_11ELi0EE11GetTypeNameEv
mC:__ZNK6google8protobuf5Field3NewEPNS0_5ArenaE
SW:__ZN6google8protobuf8Duration8CopyFromERKNS0_7MessageE
Xia:__ZNK14chrome_lang_id9Parameter13GetCachedSizeEv
lb:replacePublicSymbol
KU:__ZNK6google8protobuf20OneofDescriptorProto3NewEPNS0_5ArenaE
tC:__ZN6google8protobuf20FieldDescriptorProtoC2Ev
mh:__ZN6google8protobuf17FileDescriptorSet27MergePartialFromCodedStreamEPNS0_2io16CodedInputStreamE
mA:__ZNSt3__26vectorIN14chrome_lang_id16EmbeddingNetwork15EmbeddingMatrixENS_9allocatorIS3_EEE26__swap_out_circular_bufferERNS_14__split_bufferIS3_RS5_EE
MT:__ZNK6google8protobuf8internal12MapFieldBase24SyncMapWithRepeatedFieldEv
NQ:__ZNSt3__214__split_bufferIcRNS_9allocatorIcEEED2Ev
kc:FUNCTION_TABLE_iiii
$4:__ZNK6google8protobuf3Api31SerializeWithCachedSizesToArrayEPh
op:__ZNKSt3__26__treeINS_12basic_stringIcNS_11char_traitsIcEENS_9allocatorIcEEEENS_4lessIS6_EENS4_IS6_EEE4findIS6_EENS_21__tree_const_iteratorIS6_PNS_11__tree_nodeIS6_PvEEiEERKT_
kf:__ZNK6google8protobuf8internal26GeneratedMessageReflection9SetStringEPNS0_7MessageEPKNS0_15FieldDescriptorERKNSt3__212basic_stringIcNS8_11char_traitsIcEENS8_9allocatorIcEEEE
xy:__ZN6google8protobuf3MapINSt3__212basic_stringIcNS2_11char_traitsIcEENS2_9allocatorIcEEEENS0_5ValueEE23CreateValueTypeInternalERKS8_
ur:__ZN6google8protobuf2io17CodedOutputStream19WriteLittleEndian32Ej
Cba:__ZNKSt3__26vectorINS0_IN14chrome_lang_id16EmbeddingNetwork13VectorWrapperENS_9allocatorIS3_EEEENS4_IS6_EEE8max_sizeEv
Yb:__emval_incref
Ct:__ZN6google8protobuf16RepeatedPtrFieldINS0_6MethodEE9MergeFromERKS3_
N7:__ZN14chrome_lang_id15FeatureFunctionINS_8SentenceEJEED0Ev
LT:__ZN14chrome_lang_id18TaskSpec_Parameter21CheckTypeAndMergeFromERKN6google8protobuf11MessageLiteE
nX:__ZN6google8protobuf3Api8CopyFromERKNS0_7MessageE
x6:__ZN6google8protobuf8internal21ExplicitlyConstructedIN14chrome_lang_id8TaskSpecEE16DefaultConstructEv
b6:__ZN10emscripten8internal11BindingTypeIPKNSt3__26vectorIN14chrome_lang_id22NNetLanguageIdentifier6ResultENS2_9allocatorIS6_EEEEE12fromWireTypeESB_
b:HEAP16
As:__ZN6google8protobuf8internal12ExtensionSet15SetRepeatedBoolEiib
$A:__ZN6google8protobuf5FieldC2Ev
BU:__ZN6google8protobuf16RepeatedPtrFieldINSt3__212basic_stringIcNS2_11char_traitsIcEENS2_9allocatorIcEEEEED2Ev
Fw:__ZN6google8protobuf8internal18GenericTypeHandlerINS0_9EnumValueEE5MergeERKS3_PS3_
VR:__ZN14chrome_lang_id10TaskOutput17mutable_file_baseEv
Eh:__ZNK6google8protobuf15DescriptorProto24SerializeWithCachedSizesEPNS0_2io17CodedOutputStreamE
Mt:__ZN6google8protobuf8internal20RepeatedPtrFieldBase23UnsafeArenaAddAllocatedINS0_16RepeatedPtrFieldINSt3__212basic_stringIcNS5_11char_traitsIcEENS5_9allocatorIcEEEEE11TypeHandlerEEEvPNT_4TypeE
O9:__ZNK6google8protobuf16EnumValueOptions3NewEv
hfa:__ZNK6google8protobuf28UninterpretedOption_NamePart13GetCachedSizeEv
l4:__ZN6google8protobuf5Arena3OwnINS0_6MethodEEEvPT_
H:Math_acos
wb:_pthread_getspecific
BH:__ZNSt3__212__hash_tableINS_17__hash_value_typeINS_10type_indexENS_6vectorIPN14chrome_lang_id9WorkspaceENS_9allocatorIS6_EEEEEENS_22__unordered_map_hasherIS2_SA_NS_4hashIS2_EELb1EEENS_21__unordered_map_equalIS2_SA_NS_8equal_toIS2_EELb1EEENS7_ISA_EEE17__deallocate_nodeEPNS_16__hash_node_baseIPNS_11__hash_nodeISA_PvEEEE
dB:__ZNK6google8protobuf8internal12ExtensionSet9GetStringEiRKNSt3__212basic_stringIcNS3_11char_traitsIcEENS3_9allocatorIcEEEE
oU:__ZNK6google8protobuf22ServiceDescriptorProto3NewEPNS0_5ArenaE
DO:__ZNSt3__214__split_bufferIN14chrome_lang_id16EmbeddingNetwork13VectorWrapperERNS_9allocatorIS3_EEED2Ev
fka:__ZNK6google8protobuf8internal20RepeatedPtrFieldBase4sizeEv
RZ:__ZNK6google8protobuf9Timestamp8GetArenaEv
cea:__ZN12_GLOBAL__N_1L16register_integerIlEEvPKc
_g:__ZNK6google8protobuf8internal30RepeatedPtrFieldStringAccessor4SwapEPvPKNS1_21RepeatedFieldAccessorES3_
ez:__ZN6google8protobuf12OneofOptionsD2Ev
ula:__ZNK6google8protobuf13SourceContext13IsInitializedEv
eY:__ZNK6google8protobuf16RepeatedPtrFieldIN14chrome_lang_id9ParameterEE3GetEi
hh:__ZNKSt3__212__hash_tableINS_12basic_stringIcNS_11char_traitsIcEENS_9allocatorIcEEEEN6google8protobuf4hashIS6_EENS_8equal_toIS6_EENS4_IS6_EEE4findIS6_EENS_21__hash_const_iteratorIPNS_11__hash_nodeIS6_PvEEEERKT_
G4:__ZN6google8protobuf5Arena3OwnINS0_3ApiEEEvPT_
Uc:__ZNK6google8protobuf10Descriptor11DebugStringEiPNSt3__212basic_stringIcNS2_11char_traitsIcEENS2_9allocatorIcEEEERKNS0_18DebugStringOptionsEb
kaa:__ZNK14chrome_lang_id14LangIdNNParams23embeddings_quant_scalesEi
Qw:__ZN6google8protobuf8internal20RepeatedPtrFieldBase18MergeFromInnerLoopINS0_16RepeatedPtrFieldIN14chrome_lang_id25FeatureFunctionDescriptorEE11TypeHandlerEEEvPPvSA_ii
kX:__ZN6google8protobuf4Enum8CopyFromERKNS0_7MessageE
tn:__ZNSt3__212__hash_tableINS_17__hash_value_typeIPKcPKN6google8protobuf14FileDescriptorEEENS_22__unordered_map_hasherIS3_S9_NS5_4hashIS3_EELb1EEENS_21__unordered_map_equalIS3_S9_NS5_5streqELb1EEENS_9allocatorIS9_EEE4findIS3_EENS_15__hash_iteratorIPNS_11__hash_nodeIS9_PvEEEERKT_
Lma:_isalpha
vT:__ZN6google8protobuf12_GLOBAL__N_127DeleteAllowedProto3ExtendeeEv
xQ:__ZNK6google8protobuf8internal16MapFieldAccessor3SetEPviPKv
ti:__ZN6google8protobuf8internal12ExtensionSet9AddUInt32EihbjPKNS0_15FieldDescriptorE
kna:_fmodl
Dr:__ZN6google8protobuf8internal12MapEntryLiteINSt3__212basic_stringIcNS3_11char_traitsIcEENS3_9allocatorIcEEEENS0_5ValueELNS1_14WireFormatLite9FieldTypeE9ELSC_11ELi0EE6ParserINS1_8MapFieldIS9_SA_LSC_9ELSC_11ELi0EEENS0_3MapIS9_SA_EEE23UseKeyAndValueFromEntryEv
ki:__ZN6google8protobuf8internal10WireFormat20ParseAndMergePartialEPNS0_2io16CodedInputStreamEPNS0_7MessageE
Oc:_malloc
Laa:__ZNK6google8protobuf30DescriptorProto_ExtensionRange13SetCachedSizeEi
iI:__ZNK6google8protobuf8internal20RepeatedFieldWrapperIyE3AddEPvPKv
Lda:__ZN14chrome_lang_id5Token12set_has_wordEv
HZ:__ZNK6google8protobuf10BytesValue8GetArenaEv
vh:__ZN6google8protobuf8internal14WireFormatLite29ReadRepeatedPrimitiveNoInlineIiLNS2_9FieldTypeE5EEEbijPNS0_2io16CodedInputStreamEPNS0_13RepeatedFieldIT_EE
Lb:exposePublicSymbol
xC:__ZN6google8protobuf8internal12MapEntryLiteINSt3__212basic_stringIcNS3_11char_traitsIcEENS3_9allocatorIcEEEENS0_5ValueELNS1_14WireFormatLite9FieldTypeE9ELSC_11ELi0EE15MapEntryWrapperIS9_SA_LSC_9ELSC_11ELi0EED0Ev
Wma:__ZNK10__cxxabiv116__shim_type_info5noop2Ev
l0:__ZNK14chrome_lang_id9Parameter5valueEv
ze:__ZNK6google8protobuf15DescriptorProto12ByteSizeLongEv
mga:__ZN6google8protobuf8internal14WireFormatLite7MakeTagEiNS2_8WireTypeE
xw:__ZNK6google8protobuf8internal20RepeatedPtrFieldBase3GetINS0_16RepeatedPtrFieldIN14chrome_lang_id9TaskInputEE11TypeHandlerEEERKNT_4TypeEi
nha:__ZN12_GLOBAL__N_1L16register_integerIjEEvPKc
kg:__ZN6google8protobuf17DescriptorBuilder18AddNotDefinedErrorERKNSt3__212basic_stringIcNS2_11char_traitsIcEENS2_9allocatorIcEEEERKNS0_7MessageENS0_14DescriptorPool14ErrorCollector13ErrorLocationESA_
aaa:__ZNK6google8protobuf14MessageOptions3NewEv
pf:__ZNK6google8protobuf19EnumValueDescriptor11DebugStringEiPNSt3__212basic_stringIcNS2_11char_traitsIcEENS2_9allocatorIcEEEERKNS0_18DebugStringOptionsE
vf:__ZN6google8protobuf14DynamicMessage10SharedCtorEv
F9:__ZN10emscripten8internal11BindingTypeINS_3valEE10toWireTypeERKS2_
g1:__ZNK6google8protobuf28GeneratedCodeInfo_Annotation31SerializeWithCachedSizesToArrayEPh
ym:__ZN6google8protobuf17DescriptorBuilder18ValidateSymbolNameERKNSt3__212basic_stringIcNS2_11char_traitsIcEENS2_9allocatorIcEEEESA_RKNS0_7MessageE
fr:__ZNSt3__26vectorIN6google8protobuf14DescriptorPool6Tables10CheckPointENS_9allocatorIS5_EEE21__push_back_slow_pathIKS5_EEvRT_
Mc:__ZN6google8protobuf10TextFormat6Parser10ParserImpl12ConsumeFieldEPNS0_7MessageE
$ga:__ZNK6google8protobuf16EnumValueOptions13GetCachedSizeEv
gl:__ZNK6google8protobuf8internal26GeneratedMessageReflection8SetFieldIyEEvPNS0_7MessageEPKNS0_15FieldDescriptorERKT_
kJ:__ZN14chrome_lang_id4CLD212BinarySearchEPKciiPKNS0_11CharIntPairE
e0:__ZN6google8protobuf8internal18GenericTypeHandlerINS0_15DescriptorProtoEE16NewFromPrototypeEPKS3_PNS0_5ArenaE
Zr:__ZN6google8protobuf17DescriptorBuilder32FindSymbolNotEnforcingDepsHelperEPKNS0_14DescriptorPoolERKNSt3__212basic_stringIcNS5_11char_traitsIcEENS5_9allocatorIcEEEE
If:__ZN6google8protobuf3MapINSt3__212basic_stringIcNS2_11char_traitsIcEENS2_9allocatorIcEEEENS0_5ValueEE5eraseENSA_8iteratorE
hT:__ZN6google8protobuf8internal18GenericTypeHandlerINS0_23SourceCodeInfo_LocationEE5MergeERKS3_PS3_
ve:__ZN6google8protobuf19EnumDescriptorProto27MergePartialFromCodedStreamEPNS0_2io16CodedInputStreamE
Gga:__ZNK6google8protobuf11UInt64Value20GetMaybeArenaPointerEv
rda:__ZN14chrome_lang_id4CLD212_GLOBAL__N_16minintEii
Bma:__ZN6google8protobuf8internal12FieldSkipperD2Ev
Tc:__ZN6google8protobuf17DescriptorBuilder21BuildFieldOrExtensionERKNS0_20FieldDescriptorProtoEPKNS0_10DescriptorEPNS0_15FieldDescriptorEb
$O:__ZN6google8protobuf11UInt64ValueD0Ev
kC:__ZNSt3__212__hash_tableINS_17__hash_value_typeINS_12basic_stringIcNS_11char_traitsIcEENS_9allocatorIcEEEEN14chrome_lang_id12_GLOBAL__N_115LangChunksStatsEEENS_22__unordered_map_hasherIS7_SB_NS_4hashIS7_EELb1EEENS_21__unordered_map_equalIS7_SB_NS_8equal_toIS7_EELb1EEENS5_ISB_EEED2Ev
gQ:__ZNK6google8protobuf5Empty3NewEPNS0_5ArenaE
Zz:__ZNK6google8protobuf9Timestamp39InternalSerializeWithCachedSizesToArrayEbPh
BD:__ZN6google8protobuf12OneofOptions5ClearEv
RX:__ZNK6google8protobuf10TextFormat17FieldValuePrinter10PrintBytesERKNSt3__212basic_stringIcNS3_11char_traitsIcEENS3_9allocatorIcEEEE
cZ:__ZN10emscripten8internal18GenericBindingTypeIN14chrome_lang_id22NNetLanguageIdentifier6ResultEE10toWireTypeERKS4_
Os:__ZN6google8protobuf16RepeatedPtrFieldINS0_21MethodDescriptorProtoEE9MergeFromERKS3_
Yaa:__ZNK6google8protobuf29DescriptorProto_ReservedRange13SetCachedSizeEi
le:__ZN14chrome_lang_id22NNetLanguageIdentifier21FindTopNMostFreqLangsERKNSt3__212basic_stringIcNS1_11char_traitsIcEENS1_9allocatorIcEEEEi
eW:__ZN6google8protobuf8internal18GenericTypeHandlerINS0_5ValueEE5MergeERKS3_PS3_
fo:__ZN10emscripten15register_vectorIN14chrome_lang_id22NNetLanguageIdentifier6ResultEEENS_6class_INSt3__26vectorIT_NS5_9allocatorIS7_EEEENS_8internal11NoBaseClassEEEPKc
$fa:__ZNK6google8protobuf21MethodDescriptorProto13GetCachedSizeEv
FI:__ZNK6google8protobuf9Timestamp24SerializeWithCachedSizesEPNS0_2io17CodedOutputStreamE
iR:__ZNK14chrome_lang_id25FeatureFunctionDescriptor13IsInitializedEv
xq:__ZNK14chrome_lang_id14TaskInput_Part24SerializeWithCachedSizesEPN6google8protobuf2io17CodedOutputStreamE
pt:__ZNSt3__26vectorIN14chrome_lang_id13FeatureVector7ElementENS_9allocatorIS3_EEE24__emplace_back_slow_pathIJRPNS1_11FeatureTypeERxEEEvDpOT_
Z$:__ZN6google8protobuf6OptionC2EPNS0_5ArenaE
fI:__ZN6google8protobuf12_GLOBAL__N_122protobuf_RegisterTypesERKNSt3__212basic_stringIcNS2_11char_traitsIcEENS2_9allocatorIcEEEE
nH:__ZN6google8protobuf6Option19_slow_mutable_valueEv
JH:__ZN6google8protobuf9FieldMaskC2Ev
GC:__ZNSt3__26vectorINS0_IN14chrome_lang_id16EmbeddingNetwork13VectorWrapperENS_9allocatorIS3_EEEENS4_IS6_EEE6resizeEj
t2:__ZN6google8protobuf5Arena3OwnINS0_16EnumValueOptionsEEEvPT_
hE:__ZN6google8protobuf7strings8AlphaNumC2ENS1_3HexE
Lx:__ZN14chrome_lang_id5Token10SharedCtorEv
uF:__ZNK14chrome_lang_id8Sentence11GetTypeNameEv
no:__ZNSt3__212__hash_tableINS_17__hash_value_typeIN6google8protobuf6MapKeyEPNS3_7MapPairIS4_NS3_11MapValueRefEEEEENS_22__unordered_map_hasherIS4_S9_NS3_4hashIS4_EELb1EEENS_21__unordered_map_equalIS4_S9_NS_8equal_toIS4_EELb1EEENS3_3MapIS4_S6_E12MapAllocatorIS9_EEE4findIS4_EENS_15__hash_iteratorIPNS_11__hash_nodeIS9_PvEEEERKT_
Mn:__ZNK6google8protobuf8internal26GeneratedMessageReflection9GetUInt32ERKNS0_7MessageEPKNS0_15FieldDescriptorE
DB:__ZN6google8protobuf10BytesValueD2Ev
v9:__ZNK6google8protobuf19EnumDescriptorProto3NewEv
oR:__ZN6google8protobuf11EnumOptions16default_instanceEv
ky:__ZN6google8protobuf8internal10LogMessage6FinishEv
naa:__ZN14chrome_lang_id14TaskInput_Part20set_has_file_patternEv
tP:__ZNSt3__212basic_stringIcNS_11char_traitsIcEENS_9allocatorIcEEE2atEj
P3:__ZN6google8protobuf5Arena3OwnINS0_9FieldMaskEEEvPT_
ax:__ZN6google8protobuf8internal20RepeatedPtrFieldBase5ClearINS0_16RepeatedPtrFieldIN14chrome_lang_id9TaskInputEE11TypeHandlerEEEvv
UO:__ZN6google8protobuf20NewPermanentCallbackIPNSt3__212basic_stringIcNS2_11char_traitsIcEENS2_9allocatorIcEEEEPN14chrome_lang_id8SentenceEEEPNS0_14ResultCallbackIT_EEPFSE_T0_ESH_
Oma:__ZN6google8protobuf2io16ArrayInputStreamD2Ev
Ex:_wcrtomb
KI:__ZNK14chrome_lang_id22EmbeddingNetworkParams16GetSoftmaxMatrixEv
xW:__ZNK14chrome_lang_id8Sentence3NewEPN6google8protobuf5ArenaE
Co:__ZN6google8protobuf2io16CodedInputStream20ReadVarint32FallbackEj
Fo:__ZNK6google8protobuf8internal26GeneratedMessageReflection8AddInt32EPNS0_7MessageEPKNS0_15FieldDescriptorEi
x1:__ZN6google8protobuf5Arena3OwnINS0_22ServiceDescriptorProtoEEEvPT_
Iga:__ZNK6google8protobuf11StringValue20GetMaybeArenaPointerEv
Vn:__ZN14chrome_lang_id9Parameter15UnsafeMergeFromERKS0_
vB:__ZN6google8protobuf20FieldDescriptorProto13set_type_nameEPKc
XF:__ZN6google8protobuf4TypeC2Ev
QQ:__ZNK6google8protobuf11UInt64Value24SerializeWithCachedSizesEPNS0_2io17CodedOutputStreamE
c9:__ZNK6google8protobuf8internal30RepeatedFieldPrimitiveAccessorIiE12ConvertFromTERKiPv
R$:__ZN6google8protobuf2io17CodedOutputStream12VarintSize32Ej
hm:__ZNK6google8protobuf8internal26GeneratedMessageReflection8SetFieldIjEEvPNS0_7MessageEPKNS0_15FieldDescriptorERKT_
Jq:__ZN6google8protobuf57protobuf_AssignDesc_google_2fprotobuf_2ftimestamp_2eprotoEv
Ve:__ZN6google8protobuf17DescriptorBuilder9AddSymbolERKNSt3__212basic_stringIcNS2_11char_traitsIcEENS2_9allocatorIcEEEEPKvSA_RKNS0_7MessageENS0_12_GLOBAL__N_16SymbolE
LD:__ZN14chrome_lang_id8TaskSpecC2Ev
IT:__ZN6google8protobuf8internal18GenericTypeHandlerINS0_19FileDescriptorProtoEE5MergeERKS3_PS3_
HV:__ZN14chrome_lang_id9Parameter22mutable_unknown_fieldsEv
Tk:__ZN6google8protobuf8internal12ExtensionSet9SetUInt32EihjPKNS0_15FieldDescriptorE
j6:__ZN6google8protobuf8internal21ExplicitlyConstructedIN14chrome_lang_id9ParameterEE16DefaultConstructEv
mW:__ZN6google8protobuf11UInt64Value8CopyFromERKNS0_7MessageE
X4:__ZNK6google8protobuf4Enum31SerializeWithCachedSizesToArrayEPh
s7:__ZN6google8protobuf8internal21arena_destruct_objectINS0_15DescriptorProtoEEEvPv
JS:__ZNSt3__213__vector_baseIcNS_9allocatorIcEEED2Ev
E7:__ZNK14chrome_lang_id8TaskSpec10input_sizeEv
xja:__ZNK14chrome_lang_id16EmbeddingNetwork15EmbeddingMatrix4sizeEv
uK:__ZN6google8protobuf5Arena18CreateMaybeMessageINS0_21MethodDescriptorProtoEEEPT_PS1_z
pd:__ZNK14chrome_lang_id29ContinuousBagOfNgramsFunction8EvaluateERKNS_12WorkspaceSetERKNS_8SentenceEPNS_13FeatureVectorE
cw:__ZN6google8protobuf8internal12_GLOBAL__N_126ReportReflectionUsageErrorEPKNS0_10DescriptorEPKNS0_15FieldDescriptorEPKcSA_
Nma:__ZNK6google8protobuf4Enum13IsInitializedEv
qba:__ZN14chrome_lang_id4CLD29OffsetMapD2Ev
Un:__ZN6google8protobuf3MapINSt3__212basic_stringIcNS2_11char_traitsIcEENS2_9allocatorIcEEEENS0_5ValueEE8InnerMap12TransferTreeEPKPvj
rG:__ZNK6google8protobuf8internal8MapEntryINSt3__212basic_stringIcNS3_11char_traitsIcEENS3_9allocatorIcEEEENS0_5ValueELNS1_14WireFormatLite9FieldTypeE9ELSC_11ELi0EE3NewEv
Nr:__ZNSt3__212__hash_tableINS_17__hash_value_typeIN6google8protobuf6MapKeyEPNS3_7MapPairIS4_NS3_11MapValueRefEEEEENS_22__unordered_map_hasherIS4_S9_NS3_4hashIS4_EELb1EEENS_21__unordered_map_equalIS4_S9_NS_8equal_toIS4_EELb1EEENS3_3MapIS4_S6_E12MapAllocatorIS9_EEE6rehashEj
QT:__ZNK6google8protobuf8internal20RepeatedFieldWrapperIbE12SwapElementsEPvii
tF:__ZNK14chrome_lang_id8TaskSpec11GetTypeNameEv
wL:__ZN6google8protobuf2io20ZeroCopyOutputStream15WriteAliasedRawEPKvi
bI:__ZN6google8protobuf8internal15DynamicMapFieldC2EPKNS0_7MessageE
T8:__ZNK6google8protobuf23SourceCodeInfo_Location3NewEv
Taa:__ZN14chrome_lang_idL11rsf_factoryEv
zU:__ZN6google8protobuf8internal18GenericTypeHandlerINSt3__212basic_stringIcNS3_11char_traitsIcEENS3_9allocatorIcEEEEE16NewFromPrototypeEPKS9_PNS0_5ArenaE
zD:__ZNSt3__26vectorIN14chrome_lang_id22NNetLanguageIdentifier6ResultENS_9allocatorIS3_EEE6resizeEjRKS3_
HY:__ZNK6google8protobuf8internal33RandomAccessRepeatedFieldAccessor16GetIteratorValueEPKvS4_Pv
Zq:__ZN6google8protobuf13RepeatedFieldIdE7ReserveEi
zS:__GLOBAL__sub_I_type_pb_cc
P_:__ZN6google8protobuf8internal18GenericTypeHandlerIN14chrome_lang_id9TaskInputEE6DeleteEPS4_PNS0_5ArenaE
gga:__ZN14chrome_lang_id11UnicodeTextC2Ev
y3:__ZN6google8protobuf8internal18GenericTypeHandlerIN14chrome_lang_id18TaskSpec_ParameterEE5ClearEPS4_
BS:__GLOBAL__sub_I_api_pb_cc
oo:__ZN6google8protobuf8internalL16SubMessagePrefixERKNSt3__212basic_stringIcNS2_11char_traitsIcEENS2_9allocatorIcEEEEPKNS0_15FieldDescriptorEi
Hs:__ZNK6google8protobuf8internal26GeneratedMessageReflection7SetBoolEPNS0_7MessageEPKNS0_15FieldDescriptorEb
YA:__ZNK14chrome_lang_id16EmbeddingNetwork18ComputeFinalScoresERKNSt3__26vectorINS_13FeatureVectorENS1_9allocatorIS3_EEEEPNS2_IfNS4_IfEEEE
RG:__ZNK6google8protobuf8internal23TypeDefinedMapFieldBaseINSt3__212basic_stringIcNS3_11char_traitsIcEENS3_9allocatorIcEEEENS0_5ValueEE16IncreaseIteratorEPNS0_11MapIteratorE
sga:__ZNK6google8protobuf19EnumDescriptorProto13GetCachedSizeEv
he:_free
Vda:__ZNKSt3__26vectorIPN14chrome_lang_id15FeatureFunctionINS1_8SentenceEJEEENS_9allocatorIS5_EEE8max_sizeEv
hba:__ZNK6google8protobuf9FieldMask3NewEv
SX:__ZNK6google8protobuf8internal20RepeatedFieldWrapperIyE3GetEPKviPv
BB:__ZNK6google8protobuf4Type3NewEPNS0_5ArenaE
Qi:__ZN6google8protobuf24SimpleDescriptorDatabase15DescriptorIndexINSt3__24pairIPKviEEE23FindAllExtensionNumbersERKNS3_12basic_stringIcNS3_11char_traitsIcEENS3_9allocatorIcEEEEPNS3_6vectorIiNSC_IiEEEE
aZ:__ZN10emscripten8internal20writeGenericWireTypeIN14chrome_lang_id22NNetLanguageIdentifier6ResultEEEvRPNS0_15GenericWireTypeEPT_
AX:__ZNK6google8protobuf12OneofOptions3NewEPNS0_5ArenaE
sn:__ZNK6google8protobuf8internal12ExtensionSet13IsInitializedEv
gu:__ZNSt3__26vectorIN14chrome_lang_id22NNetLanguageIdentifier6ResultENS_9allocatorIS3_EEE21__push_back_slow_pathIRKS3_EEvOT_
zs:__ZN6google8protobuf16RepeatedPtrFieldINS0_28UninterpretedOption_NamePartEE9MergeFromERKS3_
r4:__ZN6google8protobuf7Message21CheckTypeAndMergeFromERKNS0_11MessageLiteE
UA:__ZN14chrome_lang_id22NNetLanguageIdentifier6ResultaSEOS1_
sJ:__ZN14chrome_lang_id22NNetLanguageIdentifier6ResultC2EOS1_
Nt:__ZN6google8protobuf19EnumDescriptorProtoD2Ev
sD:__ZN6google8protobuf19UninterpretedOption10SharedDtorEv
l2:dynCall_iiiiii
dD:__ZNK6google8protobuf8internal12ExtensionSet9GetDoubleEid
zja:__ZN12_GLOBAL__N_1L14register_floatIfEEvPKc
gT:__ZNK6google8protobuf8internal20RepeatedFieldWrapperIfE12SwapElementsEPvii
yA:__ZN6google8protobuf5MixinD2Ev
zZ:__ZNK14chrome_lang_id26FeatureExtractorDescriptor14unknown_fieldsEv
KC:__ZNK6google8protobuf8internal12ExtensionSet7GetBoolEib
$ea:__ZNK6google8protobuf9FieldMask13SetCachedSizeEi
qaa:__ZNK6google8protobuf11MessageLite8ByteSizeEv
yI:__ZNK6google8protobuf8internal16MapFieldAccessor5ClearEPv
Q_:__ZN6google8protobuf8internal18GenericTypeHandlerIN14chrome_lang_id9ParameterEE6DeleteEPS4_PNS0_5ArenaE
CT:__ZN6google8protobuf8internal18GenericTypeHandlerINS0_20FieldDescriptorProtoEE5MergeERKS3_PS3_
OT:__ZN14chrome_lang_id4CLD29OffsetMapC2Ev
Cg:__ZN6google8protobuf8internal12ExtensionSet12SwapElementsEiii
tI:__ZN6google8protobuf9FieldMask5ClearEv
d0:__ZNK14chrome_lang_id9TaskInput11file_formatEi
S9:__ZNK6google8protobuf8internal23RepeatedPtrFieldWrapperINS0_7MessageEE4SizeEPKv
jla:__ZNK14chrome_lang_id14LangIdNNParams14is_precomputedEv
Y5:__ZN6google8protobuf8internal21arena_destruct_objectINS0_28UninterpretedOption_NamePartEEEvPv
vX:__ZNK6google8protobuf9BoolValue24SerializeWithCachedSizesEPNS0_2io17CodedOutputStreamE
ola:__ZNK6google8protobuf14SourceCodeInfo13IsInitializedEv
ria:__ZNK6google8protobuf11UInt32Value13GetCachedSizeEv
W5:__ZN6google8protobuf8internal9SingletonINS1_30RepeatedFieldPrimitiveAccessorIbEEE4InitEv
q7:__ZN14chrome_lang_idL33MutableUnknownFieldsForTaskOutputEPNS_10TaskOutputE
MI:__ZN6google8protobuf20OneofDescriptorProtoC2Ev
Xf:__ZNSt3__213unordered_mapINS_12basic_stringIcNS_11char_traitsIcEENS_9allocatorIcEEEEiNS_4hashIS6_EENS_8equal_toIS6_EENS4_INS_4pairIKS6_iEEEEEixERSC_
gi:__ZNSt3__26__treeIPNS_12basic_stringIcNS_11char_traitsIcEENS_9allocatorIcEEEEN6google8protobuf3MapIS6_NS9_5ValueEE8InnerMap10KeyCompareENSC_12MapAllocatorIS7_EEE12__find_equalIS7_EERPNS_16__tree_node_baseIPvEERPNS_15__tree_end_nodeISM_EERKT_
Ua:___setErrNo
D8:__ZN14chrome_lang_id5Token25internal_default_instanceEv
Dl:__ZN6google8protobuf11MapIteratorC2EPNS0_7MessageEPKNS0_15FieldDescriptorE
i_:__ZNK14chrome_lang_id18TaskSpec_Parameter14unknown_fieldsEv
xX:__ZN6google8protobuf8internal18GenericTypeHandlerIN14chrome_lang_id25FeatureFunctionDescriptorEE16NewFromPrototypeEPKS4_PNS0_5ArenaE
jt:__ZN10emscripten8internal13MethodInvokerIMN14chrome_lang_id22NNetLanguageIdentifierEFNSt3__26vectorINS3_6ResultENS4_9allocatorIS6_EEEERKNS4_12basic_stringIcNS4_11char_traitsIcEENS7_IcEEEEiES9_PS3_JSG_iEE6invokeERKSI_SJ_PNS0_11BindingTypeISE_EUt_Ei
NG:__ZNK10__cxxabiv117__class_type_info24process_found_base_classEPNS_19__dynamic_cast_infoEPvi
Zn:__ZNK6google8protobuf8internal26GeneratedMessageReflection8AddInt64EPNS0_7MessageEPKNS0_15FieldDescriptorEx
Ht:__ZN6google8protobuf16RepeatedPtrFieldINS0_5FieldEE9MergeFromERKS3_
AM:__ZN6google8protobuf8internal26FunctionResultCallback_1_0IPNSt3__212basic_stringIcNS3_11char_traitsIcEENS3_9allocatorIcEEEEPN14chrome_lang_id10TaskOutputEEC2EPFSA_SD_EbSD_
On:__ZN6google8protobuf3ApiD2Ev
pma:__ZN10emscripten3valD2Ev
m8:__ZN14chrome_lang_id5Token9set_startEi
uaa:__ZNK6google8protobuf11UInt32Value3NewEv
Mf:__ZN6google8protobuf12OneofOptions27MergePartialFromCodedStreamEPNS0_2io16CodedInputStreamE
B8:__ZNK6google8protobuf11MessageLite20GetMaybeArenaPointerEv
qca:__ZNK6google8protobuf3Any3NewEv
Wea:__ZN6google8protobuf11EnumOptionsD0Ev
Od:__ZN6google8protobuf8internal13ReflectionOps5MergeERKNS0_7MessageEPS3_
Mx:__ZN6google8protobuf3Any9MergeFromERKNS0_7MessageE
lia:__ZN6google8protobuf3AnyD0Ev
kd:__ZN6google8protobuf4Type27MergePartialFromCodedStreamEPNS0_2io16CodedInputStreamE
uE:__ZNSt3__214__split_bufferIPN14chrome_lang_id9WorkspaceERNS_9allocatorIS3_EEEC2EjjS6_
Ji:__ZN6google8protobuf3MapINS0_6MapKeyENS0_11MapValueRefEE5clearEv
$K:__ZNK6google8protobuf17FileDescriptorSet13IsInitializedEv
W2:__ZN14chrome_lang_id26FeatureExtractorDescriptor25internal_default_instanceEv
oQ:__ZN6google8protobuf53protobuf_InitDefaults_google_2fprotobuf_2fany_2eprotoEv
ofa:__ZN14chrome_lang_id17TaskContextParams14language_namesEi
tf:__ZN6google8protobuf17DescriptorBuilder9BuildEnumERKNS0_19EnumDescriptorProtoEPKNS0_10DescriptorEPNS0_14EnumDescriptorE
Fda:__ZNK6google8protobuf15DescriptorProto13SetCachedSizeEi
IB:__ZN6google8protobuf8internal8MapEntryINSt3__212basic_stringIcNS3_11char_traitsIcEENS3_9allocatorIcEEEENS0_5ValueELNS1_14WireFormatLite9FieldTypeE9ELSC_11ELi0EE5ClearEv
A_:__ZN6google8protobuf16RepeatedPtrFieldIN14chrome_lang_id9ParameterEE5ClearEv
xla:__ZN10__cxxabiv119__pointer_type_infoD0Ev
fha:__ZNK14chrome_lang_id25FeatureFunctionDescriptor8has_nameEv
xY:__ZN10emscripten8internal12operator_newINSt3__26vectorIN14chrome_lang_id22NNetLanguageIdentifier6ResultENS2_9allocatorIS6_EEEEJEEEPT_DpOT0_
lw:__ZN10emscripten8internal13MethodInvokerIMN14chrome_lang_id22NNetLanguageIdentifierEFNS3_6ResultERKNSt3__212basic_stringIcNS5_11char_traitsIcEENS5_9allocatorIcEEEEES4_PS3_JSD_EE6invokeERKSF_SG_PNS0_11BindingTypeISB_EUt_E
Qk:__ZNK6google8protobuf6Method12ByteSizeLongEv
GB:__ZN6google8protobuf8internal12MapEntryLiteINSt3__212basic_stringIcNS3_11char_traitsIcEENS3_9allocatorIcEEEENS0_5ValueELNS1_14WireFormatLite9FieldTypeE9ELSC_11ELi0EE5ClearEv
una:b8
kj:__ZN14chrome_lang_id22NNetLanguageIdentifier23FindLanguageOfValidUTF8ERKNSt3__212basic_stringIcNS1_11char_traitsIcEENS1_9allocatorIcEEEE
yr:__ZNK6google8protobuf8internal12ExtensionSet24SerializeWithCachedSizesEiiPNS0_2io17CodedOutputStreamE
md:__ZNK6google8protobuf8internal26GeneratedMessageReflection10ClearFieldEPNS0_7MessageEPKNS0_15FieldDescriptorE
Ala:__ZNSt3__211char_traitsIcE11to_int_typeEc
Ro:__ZN6google8protobuf17DescriptorBuilder14AddImportErrorERKNS0_19FileDescriptorProtoEi
PE:___strerror_l
p0:__ZNK14chrome_lang_id9TaskInput4nameEv
VZ:__ZN6google8protobuf5Arena3OwnINSt3__212basic_stringIcNS3_11char_traitsIcEENS3_9allocatorIcEEEEEEvPT_
Mu:__ZNK6google8protobuf14MessageOptions12ByteSizeLongEv
jF:__ZNK14chrome_lang_id10TaskOutput11GetTypeNameEv
Nia:__ZNK14chrome_lang_id10TaskOutput15has_file_formatEv
OP:__ZN6google8protobuf10TextFormat6Parser10ParserImpl20ParserErrorCollector10AddWarningEiiRKNSt3__212basic_stringIcNS5_11char_traitsIcEENS5_9allocatorIcEEEE
SS:__ZN14chrome_lang_id8Sentence12mutable_textEv
vn:__ZNK6google8protobuf12FieldOptions24SerializeWithCachedSizesEPNS0_2io17CodedOutputStreamE
rg:__ZN6google8protobuf15DescriptorProto5ClearEv
v1:__ZN6google8protobuf5Arena3OwnIN14chrome_lang_id10TaskOutputEEEvPT_
WD:__ZNSt3__214__split_bufferIPN14chrome_lang_id15FeatureFunctionINS1_8SentenceEJEEERNS_9allocatorIS5_EEEC2EjjS8_
Ah:__ZNK6google8protobuf15FieldDescriptor20DefaultValueAsStringEb
h4:__ZNK14chrome_lang_id8TaskSpec9parameterEi
Pd:__ZN6google8protobuf21MethodDescriptorProto27MergePartialFromCodedStreamEPNS0_2io16CodedInputStreamE
Ad:__ZN6google8protobuf5Value27MergePartialFromCodedStreamEPNS0_2io16CodedInputStreamE
yj:__ZNK6google8protobuf3Api24SerializeWithCachedSizesEPNS0_2io17CodedOutputStreamE
NO:__ZNSt3__26vectorIN14chrome_lang_id16FeatureExtractorINS1_8SentenceEJEEENS_9allocatorIS4_EEE18__construct_at_endEj
_l:__ZNK14chrome_lang_id22GenericFeatureFunction12GetParameterERKNSt3__212basic_stringIcNS1_11char_traitsIcEENS1_9allocatorIcEEEE
Sw:__ZN6google8protobuf12_GLOBAL__N_122protobuf_RegisterTypesERKNSt3__212basic_stringIcNS2_11char_traitsIcEENS2_9allocatorIcEEEE_1003
dZ:_snprintf
vI:__ZNK6google8protobuf7Message24FindInitializationErrorsEPNSt3__26vectorINS2_12basic_stringIcNS2_11char_traitsIcEENS2_9allocatorIcEEEENS7_IS9_EEEE
Pu:__ZNK6google8protobuf15FieldDescriptor24FieldTypeNameDebugStringEv
$i:__ZNK6google8protobuf19UninterpretedOption39InternalSerializeWithCachedSizesToArrayEbPh
oma:__ZNK14chrome_lang_id10TaskOutput6shardsEv
q8:__ZN6google8protobuf14ResultCallbackIPNSt3__212basic_stringIcNS2_11char_traitsIcEENS2_9allocatorIcEEEEEC2Ev
nt:__ZNSt3__26vectorINS_4pairIPKN6google8protobuf10DescriptorEiEENS_9allocatorIS7_EEE8__appendEj
ME:__ZNK14chrome_lang_id25FeatureFunctionDescriptor11GetTypeNameEv
W9:__ZN6google8protobuf24EnumValueDescriptorProtoD0Ev
wB:__ZN6google8protobuf12FieldOptions5ClearEv
P:Math_min
gF:__ZN14chrome_lang_id25FeatureFunctionDescriptor10SharedCtorEv
xia:__ZN6google8protobuf8internal27UnknownFieldSetFieldSkipperD0Ev
_1:_i64Subtract
Zm:__ZN6google8protobuf20FileDescriptorTablesD2Ev
BM:__ZN6google8protobuf5Arena18CreateMaybeMessageIN14chrome_lang_id5TokenEEEPT_PS1_z
BK:__ZN6google8protobuf5Arena18CreateMaybeMessageINS0_20FieldDescriptorProtoEEEPT_PS1_z
v_:__ZNK14chrome_lang_id25FeatureFunctionDescriptor4nameEv
MX:__ZN6google8protobuf16RepeatedPtrFieldIN14chrome_lang_id9ParameterEE9MergeFromERKS4_
mf:__ZNSt3__227__insertion_sort_incompleteIRN6google8protobuf8internal12_GLOBAL__N_117FieldNumberSorterEPPKNS2_15FieldDescriptorEEEbT0_SB_T_
S5:__ZN6google8protobuf8internal9SingletonINS1_30RepeatedFieldPrimitiveAccessorIjEEE4InitEv
QG:__ZNSt3__212__hash_tableINS_17__hash_value_typeINS_10type_indexENS_6vectorINS_12basic_stringIcNS_11char_traitsIcEENS_9allocatorIcEEEENS7_IS9_EEEEEENS_22__unordered_map_hasherIS2_SC_NS_4hashIS2_EELb1EEENS_21__unordered_map_equalIS2_SC_NS_8equal_toIS2_EELb1EEENS7_ISC_EEE17__deallocate_nodeEPNS_16__hash_node_baseIPNS_11__hash_nodeISC_PvEEEE
Xg:__ZN6google8protobuf18InsertIfNotPresentINS0_8hash_mapINSt3__24pairIPKvPKcEEPKNS0_15FieldDescriptorENS0_12_GLOBAL__N_121PointerStringPairHashENSD_22PointerStringPairEqualENS3_9allocatorINS4_IKS9_SC_EEEEEEEEbPT_RKNSL_10value_type10first_typeERKNSL_10value_type11second_typeE
Tj:__ZN6google8protobuf8internal15UTF8GenericScanEPKNS1_19UTF8StateMachineObjEPKciPi
cX:__ZN6google8protobuf8internal20RepeatedPtrFieldBase7ReserveEi
Zw:__ZNK6google8protobuf19EnumValueDescriptor6CopyToEPNS0_24EnumValueDescriptorProtoE
_ia:__ZN6google8protobuf8internal24GeneratedExtensionFinderD0Ev
a3:__ZN6google8protobuf8internal18GenericTypeHandlerIN14chrome_lang_id10TaskOutputEE5MergeERKS4_PS4_
VM:__ZNK6google8protobuf17FileDescriptorSet11GetMetadataEv
Rz:__ZN6google8protobuf8internal14WireFormatLite13WriteSFixed32EiiPNS0_2io17CodedOutputStreamE
O8:__ZN14chrome_lang_id16EmbeddingNetwork13VectorWrapperC2Ev
er:__ZNK6google8protobuf8internal26GeneratedMessageReflection16SetRepeatedInt32EPNS0_7MessageEPKNS0_15FieldDescriptorEii
CZ:__ZN10emscripten8internal10getContextIPFbRNSt3__26vectorIN14chrome_lang_id22NNetLanguageIdentifier6ResultENS2_9allocatorIS6_EEEEjRKS6_EEEPT_RKSF_
dA:__ZN14chrome_lang_id11FeatureTypeC2ERKNSt3__212basic_stringIcNS1_11char_traitsIcEENS1_9allocatorIcEEEE
Wq:__ZN6google8protobuf13RepeatedFieldIjE7ReserveEi
LF:__ZN6google8protobuf55protobuf_AddDesc_google_2fprotobuf_2fempty_2eproto_implEv
i6:__ZN6google8protobuf8internal21ExplicitlyConstructedIN14chrome_lang_id9TaskInputEE16DefaultConstructEv
r2:__ZNK6google8protobuf14FatalException4whatEv
BJ:__ZNK6google8protobuf9ListValue24SerializeWithCachedSizesEPNS0_2io17CodedOutputStreamE
ana:_frexpl
hX:__ZN14chrome_lang_id18TaskSpec_Parameter9MergeFromERKS0_
E1:__ZN6google8protobuf5Arena3OwnINS0_21MethodDescriptorProtoEEEvPT_
wN:__ZN6google8protobuf8internal26FunctionResultCallback_1_0IPNSt3__212basic_stringIcNS3_11char_traitsIcEENS3_9allocatorIcEEEEPN14chrome_lang_id18TaskSpec_ParameterEE3RunEv
_8:__ZN14chrome_lang_id13FeatureVectorD2Ev
o0:__ZNK6google8protobuf8internal16MapFieldAccessor14ConvertToEntryEPKvPNS0_7MessageE
Nka:__ZNK14chrome_lang_id14LangIdNNParams18concat_offset_sizeEv
Mr:__ZN6google8protobuf20OneofDescriptorProto5ClearEv
E0:__ZNK14chrome_lang_id5Token5labelEv
MS:__ZN14chrome_lang_id22NNetLanguageIdentifierD2Ev
tm:__ZNK6google8protobuf8internal26GeneratedMessageReflection6MapEndEPNS0_7MessageEPKNS0_15FieldDescriptorE
dJ:__ZNSt3__26vectorINS_12basic_stringIcNS_11char_traitsIcEENS_9allocatorIcEEEENS4_IS6_EEE13__move_assignERS8_NS_17integral_constantIbLb1EEE
e9:__ZNK6google8protobuf8internal30RepeatedFieldPrimitiveAccessorIdE12ConvertFromTERKdPv
S$:__ZNK6google8protobuf8internal12MapFieldLiteINSt3__212basic_stringIcNS3_11char_traitsIcEENS3_9allocatorIcEEEENS0_5ValueELNS1_14WireFormatLite9FieldTypeE9ELSC_11ELi0EE6GetMapEv
Ft:__ZN6google8protobuf8internal20RepeatedPtrFieldBase3AddINS0_16RepeatedPtrFieldIN14chrome_lang_id14TaskInput_PartEE11TypeHandlerEEEPNT_4TypeESB_
io:__ZNK6google8protobuf8internal26GeneratedMessageReflection9AddStringEPNS0_7MessageEPKNS0_15FieldDescriptorERKNSt3__212basic_stringIcNS8_11char_traitsIcEENS8_9allocatorIcEEEE
wl:__ZN6google8protobuf10Int64Value27MergePartialFromCodedStreamEPNS0_2io16CodedInputStreamE
Dh:__ZNK6google8protobuf14DescriptorPool21FindExtensionByNumberEPKNS0_10DescriptorEi
Kla:__ZNK6google8protobuf11UInt32Value13IsInitializedEv
Rla:__ZNK6google8protobuf10BytesValue13IsInitializedEv
cE:__ZNK6google8protobuf4Enum3NewEPNS0_5ArenaE
f4:__ZNK6google8protobuf9BoolValue31SerializeWithCachedSizesToArrayEPh
ys:__ZNK6google8protobuf8internal26GeneratedMessageReflection8SetInt32EPNS0_7MessageEPKNS0_15FieldDescriptorEi
G6:dynCall_diiii
_3:__ZN6google8protobuf8internal15InitEmptyStringEv
Gv:__ZNK6google8protobuf8internal26GeneratedMessageReflection14DeleteMapValueEPNS0_7MessageEPKNS0_15FieldDescriptorERKNS0_6MapKeyE
jw:__ZNK6google8protobuf3Any24SerializeWithCachedSizesEPNS0_2io17CodedOutputStreamE
tq:__ZNSt3__212__hash_tableINS_17__hash_value_typeINS_12basic_stringIcNS_11char_traitsIcEENS_9allocatorIcEEEEN14chrome_lang_id12_GLOBAL__N_115LangChunksStatsEEENS_22__unordered_map_hasherIS7_SB_NS_4hashIS7_EELb1EEENS_21__unordered_map_equalIS7_SB_NS_8equal_toIS7_EELb1EEENS5_ISB_EEE6rehashEj
wma:__ZNSt3__217bad_function_callD0Ev
CY:__ZN14chrome_lang_id9Parameter9MergeFromERKS0_
am:__ZNSt3__213unordered_mapIPKN6google8protobuf10DescriptorEPKNS2_14DynamicMessage8TypeInfoENS2_4hashIS5_EENS_8equal_toIS5_EENS_9allocatorINS_4pairIKS5_S9_EEEEEixERSG_
Qt:__ZN6google8protobuf8internal20RepeatedPtrFieldBase3AddINS0_16RepeatedPtrFieldIN14chrome_lang_id10TaskOutputEE11TypeHandlerEEEPNT_4TypeESB_
aea:__ZN14chrome_lang_id17ComponentMetadata8set_linkEPS0_
wk:__ZNK6google8protobuf22ServiceDescriptorProto12ByteSizeLongEv
_T:__ZN14chrome_lang_id23GenericFeatureExtractorC2ERKS0_
Yu:__ZNK6google8protobuf8internal12ExtensionSet17GetRepeatedStringEii
pp:__ZN6google8protobuf2io16CodedInputStream18ReadStringFallbackEPNSt3__212basic_stringIcNS3_11char_traitsIcEENS3_9allocatorIcEEEEi
sca:__ZNK14chrome_lang_id14LangIdNNParams13embedding_dimEi
Bo:__ZNSt3__26__treeINS_12__value_typeINS_4pairINS_12basic_stringIcNS_11char_traitsIcEENS_9allocatorIcEEEEiEENS2_IPKviEEEENS_19__map_value_compareIS9_SD_NS_4lessIS9_EELb1EEENS6_ISD_EEE13__lower_boundIS9_EENS_15__tree_iteratorISD_PNS_11__tree_nodeISD_PvEEiEERKT_SP_PNS_15__tree_end_nodeIPNS_16__tree_node_baseISN_EEEE
Bka:__ZNK14chrome_lang_id9TaskInput10multi_fileEv
Hja:__ZNK14chrome_lang_id16EmbeddingNetwork15EmbeddingMatrix3dimEv
ci:__ZN6google8protobuf10TextFormat6Parser10ParserImpl15ConsumeAnyValueERKNSt3__212basic_stringIcNS4_11char_traitsIcEENS4_9allocatorIcEEEEPKNS0_14DescriptorPoolEPSA_
d2:__ZNSt3__24pairIKNS_10type_indexENS_12basic_stringIcNS_11char_traitsIcEENS_9allocatorIcEEEEED2Ev
Mka:__ZNK14chrome_lang_id14LangIdNNParams18embedding_dim_sizeEv
AY:__ZN6google8protobuf8internal14WireFormatLite20MessageSizeNoVirtualIN14chrome_lang_id10TaskOutputEEEjRKT_
B7:__ZN14chrome_lang_id16FeatureExtractorINS_8SentenceEJEED0Ev
Du:__ZN6google8protobuf24SimpleDescriptorDatabase15DescriptorIndexINSt3__24pairIPKviEEE13FindExtensionERKNS3_12basic_stringIcNS3_11char_traitsIcEENS3_9allocatorIcEEEEi
ZI:__ZN6google8protobuf20FieldDescriptorProtoD2Ev
du:__ZN6google8protobuf8internal20RepeatedPtrFieldBase3AddINS0_16RepeatedPtrFieldIN14chrome_lang_id5TokenEE11TypeHandlerEEEPNT_4TypeESB_
y:tempDouble
tx:__ZNK6google8protobuf17FileDescriptorSet39InternalSerializeWithCachedSizesToArrayEbPh
xf:__ZN6google8protobuf8internal10WireFormat9SkipFieldEPNS0_2io16CodedInputStreamEjPNS0_15UnknownFieldSetE
vka:__ZN10emscripten8internal11BindingTypeIjE10toWireTypeERKj
mR:__ZNSt3__213__vector_baseIPN14chrome_lang_id9WorkspaceENS_9allocatorIS3_EEED2Ev
Q5:__ZN6google8protobuf8internal9SingletonINS1_30RepeatedFieldPrimitiveAccessorIyEEE4InitEv
Xaa:__ZNK6google8protobuf5Empty39InternalSerializeWithCachedSizesToArrayEbPh
p8:__ZNK6google8protobuf2io16ArrayInputStream9ByteCountEv
Vi:__ZNK6google8protobuf5Value39InternalSerializeWithCachedSizesToArrayEbPh
Df:__ZN6google8protobuf5Value15UnsafeMergeFromERKS1_
lJ:___fflush_unlocked
p7:__ZNK14chrome_lang_id8TaskSpec11output_sizeEv
QR:__ZN6google8protobuf8internal14WireFormatLite10ReadStringEPNS0_2io16CodedInputStreamEPNSt3__212basic_stringIcNS6_11char_traitsIcEENS6_9allocatorIcEEEE
ec:genericPointerToWireType
xr:__ZN6google8protobuf8internal12_GLOBAL__N_129ShutdownRepeatedFieldAccessorEv
Jt:__ZN6google8protobuf5Arena11AddListNodeEPvPFvS2_E
uk:__ZNK6google8protobuf4hashINS0_6MapKeyEEclERKS2_
Oha:__ZN6google8protobuf4TypeD0Ev
b$:__ZNK14chrome_lang_id10TaskOutput13record_formatEv
U1:__ZN6google8protobuf8internal26FunctionResultCallback_1_0IPNSt3__212basic_stringIcNS3_11char_traitsIcEENS3_9allocatorIcEEEEPN14chrome_lang_id18TaskSpec_ParameterEED0Ev
$B:__ZN6google8protobuf8internal20InitLogSilencerCountEv
nr:__ZN6google8protobuf8internal12ExtensionSet11ReleaseLastEi
bY:___muldi3
yc:FUNCTION_TABLE_viid
eB:__ZN6google8protobuf23SourceCodeInfo_LocationC2Ev
wK:__ZN10emscripten8internal12VectorAccessINSt3__26vectorIN14chrome_lang_id22NNetLanguageIdentifier6ResultENS2_9allocatorIS6_EEEEE3getERKS9_j
B4:__ZNK6google8protobuf6Struct31SerializeWithCachedSizesToArrayEPh
yD:__ZN6google8protobuf8internal20RepeatedPtrFieldBase17MergeFromInternalERKS2_MS2_FvPPvS6_iiE
NT:__ZN6google8protobuf8internal15DynamicMapField10MutableMapEv
mda:__ZN14chrome_lang_id13ScriptFeatureD2Ev
PQ:__ZN6google8protobuf12_GLOBAL__N_119DeleteGeneratedPoolEv
Caa:___cxa_guard_acquire
Hia:__ZNK14chrome_lang_id10TaskOutput13GetCachedSizeEv
gn:__ZNK6google8protobuf8internal26GeneratedMessageReflection17GetRepeatedUInt64ERKNS0_7MessageEPKNS0_15FieldDescriptorEi
WY:__ZNSt3__212basic_stringIcNS_11char_traitsIcEENS_9allocatorIcEEE6assignEPKc
S_:__ZNSt3__26vectorIPN14chrome_lang_id15FeatureFunctionINS1_8SentenceEJEEENS_9allocatorIS5_EEED2Ev
HK:__ZNK6google8protobuf11UInt64Value3NewEPNS0_5ArenaE
wa:__ZSt18uncaught_exceptionv
h5:__ZNK14chrome_lang_id25FeatureFunctionDescriptor14parameter_sizeEv
Dda:__ZN14chrome_lang_id5Token13set_has_startEv
Wk:__ZN6google8protobuf8internal12ExtensionSet8SetFloatEihfPKNS0_15FieldDescriptorE
kja:__ZNK14chrome_lang_id26FeatureExtractorDescriptor7featureEv
Lh:__ZN6google8protobuf18InsertIfNotPresentINS0_8hash_mapIPKcPFvRKNSt3__212basic_stringIcNS5_11char_traitsIcEENS5_9allocatorIcEEEEENS0_4hashIS4_EENS0_5streqENS9_INS5_4pairIKS4_SF_EEEEEEEEbPT_RKNSO_10value_typeE
$h:__ZN6google8protobuf3MapINS0_6MapKeyENS0_11MapValueRefEE8InnerMap13iterator_baseIKNS4_12KeyValuePairEEppEv
$_:_bitshift64Ashr
Cca:__ZN6google8protobuf17FileDescriptorSetD0Ev
gp:___stdio_write
Tv:__ZN6google8protobuf14MessageFactory29InternalRegisterGeneratedFileEPKcPFvRKNSt3__212basic_stringIcNS4_11char_traitsIcEENS4_9allocatorIcEEEEE
xP:__ZN6google8protobuf14GoogleOnceInitEPiPFvvE
rga:__ZNK6google8protobuf19FileDescriptorProto13GetCachedSizeEv
yd:__ZN6google8protobuf2io9Tokenizer13ConsumeStringEc
Oka:__ZNK14chrome_lang_id14LangIdNNParams17concat_layer_sizeEv
BA:__ZNSt3__26vectorIN14chrome_lang_id13FeatureVector7ElementENS_9allocatorIS3_EEE26__swap_out_circular_bufferERNS_14__split_bufferIS3_RS5_EE
Mba:__ZN6google8protobuf19UninterpretedOptionD0Ev
V4:__ZNK6google8protobuf8internal31RepeatedPtrFieldMessageAccessor3NewEPKv
Nn:__ZN6google8protobuf4EnumD2Ev
ada:__ZN14chrome_lang_id16EmbeddingNetworkD0Ev
pc:FUNCTION_TABLE_di
y9:__ZN14chrome_lang_idL12cbog_factoryEv
wO:__ZNK6google8protobuf4Type11GetMetadataEv
Li:__ZN6google8protobuf17DescriptorBuilder10BuildOneofERKNS0_20OneofDescriptorProtoEPNS0_10DescriptorEPNS0_15OneofDescriptorE
_c:__ZNSt3__26__sortIRN6google8protobuf12_GLOBAL__N_116FieldIndexSorterEPPKNS2_15FieldDescriptorEEEvT0_SA_T_
CS:__ZNSt3__214__split_bufferIfRNS_9allocatorIfEEE18__construct_at_endEj
KQ:__ZN6google8protobuf8internal12ExtensionSet19AddAllocatedMessageEPKNS0_15FieldDescriptorEPNS0_11MessageLiteE
Kha:__ZNK14chrome_lang_id14LangIdNNParams16softmax_num_rowsEi
J:Math_atan
QY:___stdio_close
qF:__ZN6google8protobuf60protobuf_AddDesc_google_2fprotobuf_2fdescriptor_2eproto_implEv
qma:_strtof
cl:__ZN6google8protobuf10TextFormat6Parser10ParserImpl29ConsumeUnsignedDecimalIntegerEPyy
s1:__ZN6google8protobuf8internal21ExplicitlyConstructedIN14chrome_lang_id25FeatureFunctionDescriptorEE16DefaultConstructEv
Tn:__ZN6google8protobuf8internal14WireFormatLite24WriteMessageMaybeToArrayEiRKNS0_11MessageLiteEPNS0_2io17CodedOutputStreamE
oE:__ZN6google8protobuf2io16CodedInputStream37CheckEntireMessageConsumedAndPopLimitEi
ID:__ZN6google8protobuf6MethodC2Ev
bba:__ZN6google8protobuf21DynamicMessageFactoryD0Ev
Ix:__ZNK6google8protobuf16EnumValueOptions12ByteSizeLongEv
OZ:__ZN6google8protobuf16RepeatedPtrFieldIN14chrome_lang_id9TaskInputEE3AddEv
Hl:__ZN14chrome_lang_id8TaskSpec15UnsafeMergeFromERKS0_
B1:__ZNK6google8protobuf24EnumValueDescriptorProto31SerializeWithCachedSizesToArrayEPh
js:__ZNK6google8protobuf8internal23TypeDefinedMapFieldBaseINSt3__212basic_stringIcNS3_11char_traitsIcEENS3_9allocatorIcEEEENS0_5ValueEE8MapBeginEPNS0_11MapIteratorE
Ss:__ZNK6google8protobuf8internal23TypeDefinedMapFieldBaseINS0_6MapKeyENS0_11MapValueRefEE8MapBeginEPNS0_11MapIteratorE
mO:__ZN14chrome_lang_id32GenericEmbeddingFeatureExtractorD2Ev
zt:__ZNK6google8protobuf8internal15DynamicMapField14ContainsMapKeyERKNS0_6MapKeyE
Pr:__ZNSt3__26vectorIN14chrome_lang_id16EmbeddingNetwork13VectorWrapperENS_9allocatorIS3_EEE8__appendEj
eC:__ZN6google8protobuf8internal20RepeatedPtrFieldBase9MergeFromINS0_16RepeatedPtrFieldIN14chrome_lang_id14TaskInput_PartEE11TypeHandlerEEEvRKS2_
L1:__ZN6google8protobuf8internal18GenericTypeHandlerIN14chrome_lang_id5TokenEE3NewEPNS0_5ArenaE
Py:__ZNK6google8protobuf8internal26GeneratedMessageReflection14ReleaseMessageEPNS0_7MessageEPKNS0_15FieldDescriptorEPNS0_14MessageFactoryE
Kv:__ZNSt3__26vectorIPFvvENS_9allocatorIS2_EEE21__push_back_slow_pathIKS2_EEvRT_
Tg:__ZN6google8protobuf8Duration27MergePartialFromCodedStreamEPNS0_2io16CodedInputStreamE
EO:__ZNSt3__214__split_bufferIN14chrome_lang_id16EmbeddingNetwork13VectorWrapperERNS_9allocatorIS3_EEE18__construct_at_endEj
Hha:__ZNK6google8protobuf14MessageOptions13GetCachedSizeEv
qx:__ZN6google8protobuf2io16CodedInputStream4SkipEi
rD:__ZN6google8protobuf8hash_mapINS0_6MapKeyEPNS0_7MapPairIS2_NS0_11MapValueRefEEENS0_4hashIS2_EENSt3__28equal_toIS2_EENS0_3MapIS2_S4_E12MapAllocatorINS9_4pairIKS2_S6_EEEEEC2EiRKS8_RKSB_RKSI_
Ri:__ZNK6google8protobuf4Enum39InternalSerializeWithCachedSizesToArrayEbPh
uv:__ZNSt3__26vectorIPKN6google8protobuf7MessageENS_9allocatorIS5_EEE21__push_back_slow_pathIKS5_EEvRT_
pC:__ZN6google8protobuf8internal20RepeatedPtrFieldBase7DestroyINS0_16RepeatedPtrFieldIN14chrome_lang_id5TokenEE11TypeHandlerEEEvv
xS:__GLOBAL__sub_I_empty_pb_cc
Bs:__ZN6google8protobuf16RepeatedPtrFieldINSt3__212basic_stringIcNS2_11char_traitsIcEENS2_9allocatorIcEEEEE3AddEv
aha:__ZNK6google8protobuf10Int64Value20GetMaybeArenaPointerEv
rv:__ZNSt3__26vectorIPN6google8protobuf11MessageLiteENS_9allocatorIS4_EEE21__push_back_slow_pathIKS4_EEvRT_
LZ:__ZN6google8protobuf8internal18GenericTypeHandlerIN14chrome_lang_id9TaskInputEE16NewFromPrototypeEPKS4_PNS0_5ArenaE
id:__ZNK6google8protobuf10TextFormat7Printer18PrintUnknownFieldsERKNS0_15UnknownFieldSetERNS2_13TextGeneratorE
qw:__ZNSt3__221__murmur2_or_cityhashIjLj32EEclEPKvj
$n:__ZN6google8protobuf17DescriptorBuilder24RecordPublicDependenciesEPKNS0_14FileDescriptorE
cj:__ZNK6google8protobuf4Enum12ByteSizeLongEv
zh:__ZNSt3__27__sort5IRN6google8protobuf12_GLOBAL__N_116FieldIndexSorterEPPKNS2_15FieldDescriptorEEEjT0_SA_SA_SA_SA_T_
DR:__ZN14chrome_lang_id18TaskSpec_Parameter13mutable_valueEv
Bja:__ZNK6google8protobuf5Value13GetCachedSizeEv
F8:__ZN14chrome_lang_id18TaskSpec_ParameterD2Ev
v4:__ZNK6google8protobuf16RepeatedPtrFieldIN14chrome_lang_id9TaskInputEE4sizeEv
k9:__ZNK6google8protobuf21MethodDescriptorProto3NewEv
JX:__ZNK6google8protobuf11EnumOptions3NewEPNS0_5ArenaE
R2:__ZNK14chrome_lang_id25FeatureFunctionDescriptor12feature_sizeEv
te:__ZNK6google8protobuf10TextFormat7Printer8PrintAnyERKNS0_7MessageERNS2_13TextGeneratorE
NJ:__ZN14chrome_lang_id12WorkspaceSetD2Ev
Tw:__ZN14chrome_lang_id10TaskOutput10SharedCtorEv
aP:__ZN6google8protobuf11UInt32ValueD0Ev
et:__ZNK6google8protobuf8internal12ExtensionSet9Extension7GetSizeEv
N4:__ZN6google8protobuf8internal26FunctionResultCallback_1_0IPNSt3__212basic_stringIcNS3_11char_traitsIcEENS3_9allocatorIcEEEEPN14chrome_lang_id14TaskInput_PartEED2Ev
k7:__ZN14chrome_lang_id11UnicodeText4ReprC2Ev
pr:__ZNSt3__212__hash_tableINS_17__hash_value_typeINS_12basic_stringIcNS_11char_traitsIcEENS_9allocatorIcEEEEPKN6google8protobuf23SourceCodeInfo_LocationEEENS_22__unordered_map_hasherIS7_SD_NS9_4hashIS7_EELb1EEENS_21__unordered_map_equalIS7_SD_NS_8equal_toIS7_EELb1EEENS5_ISD_EEE6rehashEj
LX:__ZN6google8protobuf16RepeatedPtrFieldIN14chrome_lang_id9TaskInputEE9MergeFromERKS4_
CV:__ZN6google8protobuf8internal9down_castIPKN14chrome_lang_id8TaskSpecEKNS0_11MessageLiteEEET_PT0_
_J:__ZNK6google8protobuf8Duration3NewEPNS0_5ArenaE
J5:__ZNSt3__228__invoke_void_return_wrapperIbE6__callIJRPFbPKcPiES4_S5_EEEbDpOT_
P0:__ZN6google8protobuf8internal16FunctionClosure0C2EPFvvEb
wka:__ZN10emscripten8internal11BindingTypeIiE12fromWireTypeEi
eP:__ZN6google8protobuf10Int64ValueD0Ev
zm:__ZN14chrome_lang_id16FeatureExtractorINS_8SentenceEJEE26InitializeFeatureFunctionsEv
N8:__ZN14chrome_lang_id22NNetLanguageIdentifier6ResultD2Ev
Zs:__ZNK6google8protobuf16EnumValueOptions39InternalSerializeWithCachedSizesToArrayEbPh
Nc:__ZNK6google8protobuf8internal26GeneratedMessageReflection14SwapOneofFieldEPNS0_7MessageES4_PKNS0_15OneofDescriptorE
KE:__ZNK14chrome_lang_id26FeatureExtractorDescriptor11GetTypeNameEv
Sy:__ZNSt3__26vectorIiNS_9allocatorIiEEE21__push_back_slow_pathIiEEvOT_
UX:__ZNK6google8protobuf8internal20RepeatedFieldWrapperIjE3GetEPKviPv
zX:__ZN6google8protobuf16RepeatedPtrFieldIN14chrome_lang_id25FeatureFunctionDescriptorEE3AddEv
ef:__ZN6google8protobuf8internal12ExtensionSet4SwapEPS2_
JJ:__ZNK6google8protobuf10BytesValue24SerializeWithCachedSizesEPNS0_2io17CodedOutputStreamE
Md:__ZN6google8protobuf8internal12ExtensionSet23MutableRawRepeatedFieldEihbPKNS0_15FieldDescriptorE
Tx:_vsnprintf
iW:__ZNK6google8protobuf8internal23TypeDefinedMapFieldBaseINS0_6MapKeyENS0_11MapValueRefEE18InitializeIteratorEPNS0_11MapIteratorE
X9:__ZN6google8protobuf14ResultCallbackIPNSt3__212basic_stringIcNS2_11char_traitsIcEENS2_9allocatorIcEEEEED0Ev
ws:__ZNSt3__212__hash_tableINS_17__hash_value_typeIPKN6google8protobuf10DescriptorEPKNS3_14DynamicMessage8TypeInfoEEENS_22__unordered_map_hasherIS6_SB_NS3_4hashIS6_EELb1EEENS_21__unordered_map_equalIS6_SB_NS_8equal_toIS6_EELb1EEENS_9allocatorISB_EEE6rehashEj
rc:FUNCTION_TABLE_vi
Am:__ZNK6google8protobuf8internal26GeneratedMessageReflection17GetRepeatedStringERKNS0_7MessageEPKNS0_15FieldDescriptorEi
jv:__ZN6google8protobuf14MessageFactory32InternalRegisterGeneratedMessageEPKNS0_10DescriptorEPKNS0_7MessageE
D2:_fprintf
Tja:__ZNK6google8protobuf4Enum13GetCachedSizeEv
hL:__ZN6google8protobuf11DoubleValue9MergeFromERKNS0_7MessageE
kla:__ZN6google8protobuf7ClosureC2Ev
RV:__ZN14chrome_lang_id8TaskSpec22mutable_unknown_fieldsEv
WW:__ZNK6google8protobuf14SourceCodeInfo3NewEPNS0_5ArenaE
YO:__ZNSt3__26vectorIN14chrome_lang_id13FeatureVectorENS_9allocatorIS2_EEEC2Ej
HE:__ZNKSt3__212basic_stringIcNS_11char_traitsIcEENS_9allocatorIcEEE7compareEjjPKcj
KT:__ZN14chrome_lang_id5Token15set_break_levelENS_16Token_BreakLevelE
q9:__ZN14chrome_lang_id25FeatureFunctionDescriptor16set_has_argumentEv
l6:__ZN6google8protobuf8internal18GenericTypeHandlerINS0_6OptionEE5MergeERKS3_PS3_
vp:__ZN6google8protobuf2io18StringOutputStream6BackUpEi
b_:__ZNK6google8protobuf5Field8GetArenaEv
bP:__ZN6google8protobuf11DoubleValueD0Ev
Kfa:__ZN6google8protobuf9FieldMaskD0Ev
Zg:__ZN6google8protobuf20FileDescriptorTables19AddAliasUnderParentEPKvRKNSt3__212basic_stringIcNS4_11char_traitsIcEENS4_9allocatorIcEEEENS0_12_GLOBAL__N_16SymbolE
vV:__ZN14chrome_lang_id10TaskOutput22mutable_unknown_fieldsEv
TK:__ZN6google8protobuf9ListValue9MergeFromERKNS0_7MessageE
li:__ZNK6google8protobuf23SourceCodeInfo_Location12ByteSizeLongEv
Lia:__ZNK6google8protobuf4Enum20GetMaybeArenaPointerEv
xt:__ZN6google8protobuf10TextFormat6Parser10ParserImpl17ConsumeIdentifierEPNSt3__212basic_stringIcNS4_11char_traitsIcEENS4_9allocatorIcEEEE
LC:__ZN6google8protobuf12OneofOptions9MergeFromERKNS0_7MessageE
je:__ZNK6google8protobuf10TextFormat7Printer10PrintFieldERKNS0_7MessageEPKNS0_10ReflectionEPKNS0_15FieldDescriptorERNS2_13TextGeneratorE
PS:__ZN14chrome_lang_id9Parameter12mutable_nameEv
kD:__ZN6google8protobuf2io16CodedInputStream12ReadVarint64EPy
gK:__ZN6google8protobuf5Arena18CreateMaybeMessageIN14chrome_lang_id18TaskSpec_ParameterEEEPT_PS1_z
mma:__ZNK6google8protobuf8Duration13IsInitializedEv
hC:__ZN14chrome_lang_id9TaskInputC2Ev
iy:__ZN6google8protobuf30DescriptorProto_ExtensionRange9MergeFromERKNS0_7MessageE
Mla:__ZNK6google8protobuf11DoubleValue13IsInitializedEv
vF:__ZNK14chrome_lang_id22GenericFeatureFunction14GetFeatureTypeEv
VO:__ZN14chrome_lang_id22NNetLanguageIdentifier4InitEPNS_11TaskContextE
C4:__ZNK6google8protobuf6Option31SerializeWithCachedSizesToArrayEPh
Jca:__ZN14chrome_lang_id10TaskOutput12set_has_nameEv
j0:__ZN6google8protobuf8internal18GenericTypeHandlerINS0_7MessageEE16NewFromPrototypeEPKS3_PNS0_5ArenaE
pV:__ZN6google8protobuf8internal9down_castIPKN14chrome_lang_id10TaskOutputEKNS0_11MessageLiteEEET_PT0_
dV:__ZN6google8protobuf20OneofDescriptorProto8CopyFromERKNS0_7MessageE
sH:__ZN6google8protobuf8internal13MergeFromFailEPKci
Ye:__ZN14chrome_lang_id32GenericEmbeddingFeatureExtractor5SetupEPNS_11TaskContextE
pa:invoke_diii
uga:__ZNK14chrome_lang_id14LangIdNNParams21softmax_bias_num_rowsEi
CO:__ZN6google8protobuf20NewPermanentCallbackIPNSt3__212basic_stringIcNS2_11char_traitsIcEENS2_9allocatorIcEEEEPN14chrome_lang_id10TaskOutputEEEPNS0_14ResultCallbackIT_EEPFSE_T0_ESH_
aM:__ZN6google8protobuf8internal14ArenaStringPtr19ClearToEmptyNoArenaEPKNSt3__212basic_stringIcNS3_11char_traitsIcEENS3_9allocatorIcEEEE
VG:__ZNSt3__26vectorIN14chrome_lang_id16EmbeddingNetwork13VectorWrapperENS_9allocatorIS3_EEE6resizeEj
aS:__ZNK6google8protobuf8internal23RepeatedPtrFieldWrapperINSt3__212basic_stringIcNS3_11char_traitsIcEENS3_9allocatorIcEEEEE3SetEPviPKv
$N:__ZNK6google8protobuf8Duration11GetMetadataEv
pY:__ZN6google8protobuf8internal18GenericTypeHandlerIN14chrome_lang_id18TaskSpec_ParameterEE16NewFromPrototypeEPKS4_PNS0_5ArenaE
Nl:__ZN6google8protobuf10TextFormat13ParseInfoTree14RecordLocationEPKNS0_15FieldDescriptorENS1_13ParseLocationE
A$:__ZN6google8protobuf8internal21arena_destruct_objectINS0_13RepeatedFieldIyEEEEvPv
GW:__ZNK6google8protobuf8internal23TypeDefinedMapFieldBaseINSt3__212basic_stringIcNS3_11char_traitsIcEENS3_9allocatorIcEEEENS0_5ValueEE14DeleteIteratorEPNS0_11MapIteratorE
LV:__ZNK6google8protobuf17FileDescriptorSet3NewEPNS0_5ArenaE
Bz:__ZNK6google8protobuf17FileDescriptorSet12ByteSizeLongEv
Ym:__ZNK6google8protobuf8internal26GeneratedMessageReflection26GetRepeatedStringReferenceERKNS0_7MessageEPKNS0_15FieldDescriptorEiPNSt3__212basic_stringIcNS9_11char_traitsIcEENS9_9allocatorIcEEEE
tka:__ZNK14chrome_lang_id14LangIdNNParams21has_concat_layer_sizeEv
rla:__ZN14chrome_lang_id4CLD2L6OpPartEc
jA:__ZN6google8protobuf8internal12ExtensionSet10ParseFieldEjPNS0_2io16CodedInputStreamEPNS1_15ExtensionFinderEPNS1_12FieldSkipperE
e3:__ZNK6google8protobuf14ServiceOptions31SerializeWithCachedSizesToArrayEPh
Eka:__ZNK14chrome_lang_id5Token9has_labelEv
Zb:RegisteredPointer
km:__ZN6google8protobuf24SimpleDescriptorDatabase15DescriptorIndexINSt3__24pairIPKviEEE10FindSymbolERKNS3_12basic_stringIcNS3_11char_traitsIcEENS3_9allocatorIcEEEE
Rga:__ZN6google8protobuf8internal30RepeatedFieldPrimitiveAccessorIfED0Ev
T:assert
uS:__ZNK6google8protobuf11UInt32Value12ByteSizeLongEv
NY:__ZN6google8protobuf8internal18GenericTypeHandlerIN14chrome_lang_id14TaskInput_PartEE16NewFromPrototypeEPKS4_PNS0_5ArenaE
CB:__ZN6google8protobuf11StringValueD2Ev
Bb:makeLegalFunctionName
NL:__ZNSt3__213__vector_baseIN14chrome_lang_id16FeatureExtractorINS1_8SentenceEJEEENS_9allocatorIS4_EEED2Ev
Db:upcastPointer
ZW:__ZN6google8protobuf6Struct8CopyFromERKNS0_7MessageE
EV:__ZN6google8protobuf16RepeatedPtrFieldIN14chrome_lang_id18TaskSpec_ParameterEE9MergeFromERKS4_
Fb:shallowCopyInternalPointer
nQ:___muldsi3
g0:__ZN6google8protobuf10TextFormat6ParserC2Ev
mc:FUNCTION_TABLE_viiiii
TU:__ZN14chrome_lang_id4CLD29OffsetMap5ResetEv
OA:__ZN14chrome_lang_id4CLD220ScanToPossibleLetterEPKcii
x0:__ZN6google8protobuf5Arena3OwnIN14chrome_lang_id18TaskSpec_ParameterEEEvPT_
ga:invoke_viiid
SG:__ZN6google8protobuf10TextFormat6Parser15ParseFromStringERKNSt3__212basic_stringIcNS3_11char_traitsIcEENS3_9allocatorIcEEEEPNS0_7MessageE
ma:invoke_viiii
oc:FUNCTION_TABLE_viiiid
h6:__ZN6google8protobuf8internal9SingletonINS1_31RepeatedPtrFieldMessageAccessorEE4InitEv
aia:__ZN6google8protobuf8internal29CodedOutputStreamFieldSkipperD0Ev
AI:__ZN6google8protobuf8internal14WireFormatLite34ReadGroupNoVirtualNoRecursionDepthIN14chrome_lang_id18TaskSpec_ParameterEEEbiPNS0_2io16CodedInputStreamEPT_
uV:__ZN14chrome_lang_id25FeatureFunctionDescriptor9MergeFromERKS0_
np:__ZN6google8protobuf17DescriptorBuilder8AddErrorERKNSt3__212basic_stringIcNS2_11char_traitsIcEENS2_9allocatorIcEEEERKNS0_7MessageENS0_14DescriptorPool14ErrorCollector13ErrorLocationESA_
Gy:__ZN6google8protobuf15UnknownFieldSet10AddFixed64Eiy
N3:__ZN6google8protobuf8internal18GenericTypeHandlerIN14chrome_lang_id9TaskInputEE5MergeERKS4_PS4_
zC:__ZN14chrome_lang_id14TaskInput_Part10SharedCtorEv
JZ:__ZN6google8protobuf7Message27MergePartialFromCodedStreamEPNS0_2io16CodedInputStreamE
v:tempBigInt
Iba:__ZNK6google8protobuf6Struct3NewEv
Vq:__ZN6google8protobuf13RepeatedFieldIxE7ReserveEi
lj:__ZN6google8protobuf20FileDescriptorTablesC2Ev
JV:__ZN14chrome_lang_id25EmbeddingFeatureExtractorINS_16FeatureExtractorINS_8SentenceEJEEES2_JEEC2Ev
aw:__ZNK14chrome_lang_id9Parameter24SerializeWithCachedSizesEPN6google8protobuf2io17CodedOutputStreamE
I8:__ZNK6google8protobuf24EnumValueDescriptorProto3NewEv
Bba:dynCall_viii
Wu:__ZN6google8protobuf8internal12ExtensionSet21MutableRepeatedStringEii
fP:__ZN6google8protobuf10Int32ValueD0Ev
fm:__ZN6google8protobuf10BytesValue27MergePartialFromCodedStreamEPNS0_2io16CodedInputStreamE
IK:__ZNK10__cxxabiv122__base_class_type_info16search_below_dstEPNS_19__dynamic_cast_infoEPKvib
xfa:__ZNK6google8protobuf5Value13SetCachedSizeEi
Yja:__ZN6google8protobuf8internal12Acquire_LoadEPVKi
FO:__ZNK6google8protobuf3Any11GetMetadataEv
Kc:__ZN6google8protobuf8internal12ExtensionSet26InternalExtensionMergeFromEiRKNS2_9ExtensionE
wU:__ZN6google8protobuf28UninterpretedOption_NamePart8CopyFromERKNS0_7MessageE
_D:__ZNSt3__214__split_bufferIN14chrome_lang_id16EmbeddingNetwork13VectorWrapperERNS_9allocatorIS3_EEEC2EjjS6_
y0:__ZN14chrome_lang_id9FMLParserD2Ev
DU:__ZNK6google8protobuf2io22LazyStringOutputStream9ByteCountEv
J0:__ZN14chrome_lang_id35LanguageIdEmbeddingFeatureExtractorC2Ev
rx:__ZN6google8protobuf8internal29CodedOutputStreamFieldSkipper15SkipUnknownEnumEii
nla:___lctrans
kz:__ZNSt3__212__hash_tableINS_17__hash_value_typeINS_10type_indexENS_6vectorIPN14chrome_lang_id9WorkspaceENS_9allocatorIS6_EEEEEENS_22__unordered_map_hasherIS2_SA_NS_4hashIS2_EELb1EEENS_21__unordered_map_equalIS2_SA_NS_8equal_toIS2_EELb1EEENS7_ISA_EEE5clearEv
Dba:__ZN6google8protobuf12_GLOBAL__N_1L13MergeFromFailEi_1090
Fs:__ZN6google8protobuf16RepeatedPtrFieldINS0_24EnumValueDescriptorProtoEE9MergeFromERKS3_
cy:__ZN6google8protobuf10BytesValue9MergeFromERKNS0_7MessageE
AZ:__ZN6google8protobuf64protobuf_InitDefaults_google_2fprotobuf_2ftimestamp_2eproto_implEv
n3:__ZNK6google8protobuf13SourceContext31SerializeWithCachedSizesToArrayEPh
Zc:__ZNK6google8protobuf8internal12ExtensionSet9Extension8ByteSizeEi
qU:__ZN6google8protobuf16RepeatedPtrFieldINSt3__212basic_stringIcNS2_11char_traitsIcEENS2_9allocatorIcEEEEE5ClearEv
b2:__ZN6google8protobuf12_GLOBAL__N_126InitDefaultUnknownFieldSetEv
bo:__ZNK6google8protobuf8internal26GeneratedMessageReflection8GetInt32ERKNS0_7MessageEPKNS0_15FieldDescriptorE
Lm:__ZN6google8protobuf2io17CodedOutputStream20WriteVarint64ToArrayEyPh
Rx:__ZNK14chrome_lang_id22GenericFeatureFunction15GetIntParameterERKNSt3__212basic_stringIcNS1_11char_traitsIcEENS1_9allocatorIcEEEEi
ib:new_
Wh:__ZNK6google8protobuf23SourceCodeInfo_Location39InternalSerializeWithCachedSizesToArrayEbPh
M0:__ZN6google8protobuf8internal18GenericTypeHandlerIN14chrome_lang_id9TaskInputEE3NewEPNS0_5ArenaE
uw:__ZN6google8protobuf8internal22GetAnyFieldDescriptorsERKNS0_7MessageEPPKNS0_15FieldDescriptorES8_
m0:__ZN6google8protobuf8internal19arena_delete_objectIN14chrome_lang_id14TaskInput_PartEEEvPv
a:HEAP8
fT:__ZNK6google8protobuf8internal20RepeatedFieldWrapperIiE12SwapElementsEPvii
Hda:__ZN6google8protobuf14ServiceOptionsD0Ev
hk:__ZN6google8protobuf24SimpleDescriptorDatabase15DescriptorIndexINSt3__24pairIPKviEEE12AddExtensionERKNS0_20FieldDescriptorProtoES7_
NM:__ZN6google8protobuf8internal26FunctionResultCallback_1_0IPNSt3__212basic_stringIcNS3_11char_traitsIcEENS3_9allocatorIcEEEEPN14chrome_lang_id9TaskInputEEC2EPFSA_SD_EbSD_
TI:__ZN6google8protobuf8DurationC2Ev
ow:__ZNK6google8protobuf8internal20RepeatedPtrFieldBase3GetINS0_16RepeatedPtrFieldIN14chrome_lang_id14TaskInput_PartEE11TypeHandlerEEERKNT_4TypeEi
Sj:__ZN6google8protobuf8internal13ReflectionOps13IsInitializedERKNS0_7MessageE
WV:__ZNK14chrome_lang_id9TaskInput3NewEPN6google8protobuf5ArenaE
ai:__ZN6google8protobuf3MapINS0_6MapKeyENS0_11MapValueRefEE8InnerMap13iterator_baseINS4_12KeyValuePairEEppEv
p4:___shlim
Nja:__ZN14chrome_lang_id7InRangeIjEEbT_S1_S1_
E8:__ZN14chrome_lang_id29ContinuousBagOfNgramsFunctionD0Ev
Qq:__ZN6google8protobuf8internal23IsStructurallyValidUTF8EPKci
dca:__ZN14chrome_lang_id5Token19set_has_break_levelEv
hW:__ZN14chrome_lang_id5Token22mutable_unknown_fieldsEv
wba:__ZN6google8protobuf20OneofDescriptorProtoD0Ev
By:__ZN6google8protobuf5FieldD2Ev
pca:__ZNK6google8protobuf3Api3NewEv
Em:__ZN6google8protobuf3MapINSt3__212basic_stringIcNS2_11char_traitsIcEENS2_9allocatorIcEEEENS0_5ValueEE8InnerMap6ResizeEj
h9:__ZNK14chrome_lang_id23GenericFeatureExtractor13feature_typesEv
Hx:__ZN6google8protobuf15UnknownFieldSet18AddLengthDelimitedEi
F4:__ZN6google8protobuf8internal18GenericTypeHandlerINS0_7MessageEE20GetMaybeArenaPointerEPS3_
yl:__ZNK6google8protobuf8internal26GeneratedMessageReflection10GetMessageERKNS0_7MessageEPKNS0_15FieldDescriptorEPNS0_14MessageFactoryE
u6:__ZNK14chrome_lang_id8Sentence5tokenEi
g5:_abort_message
Nm:__ZN6google8protobuf10TextFormat6Parser10ParserImpl11ReportErrorEiiRKNSt3__212basic_stringIcNS4_11char_traitsIcEENS4_9allocatorIcEEEE
zla:___cxx_global_var_init
P1:__ZN6google8protobuf5Arena3OwnIN14chrome_lang_id8TaskSpecEEEvPT_
K7:__ZN14chrome_lang_id8TaskSpec10add_outputEv
jda:__ZNK6google8protobuf8internal20RepeatedFieldWrapperIbE5ClearEPv
jY:__ZNSt3__26vectorINS0_IN14chrome_lang_id16EmbeddingNetwork13VectorWrapperENS_9allocatorIS3_EEEENS4_IS6_EEED2Ev
GQ:__ZN6google8protobuf12_GLOBAL__N_1L17InitGeneratedPoolEv
h8:__ZNK6google8protobuf28GeneratedCodeInfo_Annotation3NewEv
ua:getLiveInheritedInstances
RS:__ZN6google8protobuf8internal12MapFieldBase20MutableRepeatedFieldEv
GP:__ZN6google8protobuf8internal12MapFieldLiteINSt3__212basic_stringIcNS3_11char_traitsIcEENS3_9allocatorIcEEEENS0_5ValueELNS1_14WireFormatLite9FieldTypeE9ELSC_11ELi0EED2Ev
es:__ZN6google8protobuf8internal20RepeatedPtrFieldBase9MergeFromINS0_16RepeatedPtrFieldINS0_7MessageEE11TypeHandlerEEEvRKS2_
g:HEAPF32
PJ:__ZN6google8protobuf5MixinC2Ev
Wha:__ZNK6google8protobuf13MethodOptions13GetCachedSizeEv
wd:__ZN6google8protobuf4Enum27MergePartialFromCodedStreamEPNS0_2io16CodedInputStreamE
sO:__ZNK6google8protobuf5Field11GetMetadataEv
I_:__ZN6google8protobuf8internal21arena_destruct_objectINS1_25InternalMetadataWithArena9ContainerEEEvPv
Xv:__ZNSt3__26vectorIiNS_9allocatorIiEEE21__push_back_slow_pathIKiEEvRT_
Gt:__ZN6google8protobuf16RepeatedPtrFieldINS0_5MixinEE9MergeFromERKS3_
H0:__ZN6google8protobuf5Arena3OwnINS0_29DescriptorProto_ReservedRangeEEEvPT_
g3:__ZNK10__cxxabiv123__fundamental_type_info9can_catchEPKNS_16__shim_type_infoERPv
ak:__ZNK6google8protobuf4Type24SerializeWithCachedSizesEPNS0_2io17CodedOutputStreamE
U:enlargeMemory
AB:__ZN6google8protobuf8internal20RepeatedPtrFieldBase7DestroyINS0_16RepeatedPtrFieldIN14chrome_lang_id14TaskInput_PartEE11TypeHandlerEEEvv
be:__ZNK6google8protobuf14DescriptorPool21BuildFileFromDatabaseERKNS0_19FileDescriptorProtoE
Qn:__ZNK6google8protobuf8internal26GeneratedMessageReflection16GetRepeatedFloatERKNS0_7MessageEPKNS0_15FieldDescriptorEi
To:_memcpy
za:___cxa_begin_catch
XZ:__ZN6google8protobuf8internal18GenericTypeHandlerIN14chrome_lang_id18TaskSpec_ParameterEE6DeleteEPS4_PNS0_5ArenaE
$v:__ZN6google8protobuf10TextFormat6Parser5ParseEPNS0_2io19ZeroCopyInputStreamEPNS0_7MessageE
KS:__ZNK6google8protobuf8internal20RepeatedFieldWrapperIyE3SetEPviPKv
gW:__ZN6google8protobuf12FieldOptions8CopyFromERKNS0_7MessageE
tO:__ZNK6google8protobuf5Empty11GetMetadataEv
HL:__ZN6google8protobuf8internal8MapFieldINSt3__212basic_stringIcNS3_11char_traitsIcEENS3_9allocatorIcEEEENS0_5ValueELNS1_14WireFormatLite9FieldTypeE9ELSC_11ELi0EED2Ev
Mb:__embind_register_std_string
it:__ZN14chrome_lang_id8TaskSpec5ClearEv
Bj:__ZNK6google8protobuf6Method24SerializeWithCachedSizesEPNS0_2io17CodedOutputStreamE
rT:__ZNK6google8protobuf28GeneratedCodeInfo_Annotation3NewEPNS0_5ArenaE
Z0:__ZN6google8protobuf12_GLOBAL__N_123AggregateErrorCollectorD2Ev
Mi:__ZN6google8protobuf25MapEntryMessageComparatorclEPKNS0_7MessageES4_
Th:__ZNK6google8protobuf3MapINSt3__212basic_stringIcNS2_11char_traitsIcEENS2_9allocatorIcEEEENS0_5ValueEE8InnerMap10FindHelperERKS8_
Pg:__ZN6google8protobuf24UnescapeCEscapeSequencesEPKcPcPNSt3__26vectorINS4_12basic_stringIcNS4_11char_traitsIcEENS4_9allocatorIcEEEENS9_ISB_EEEE
tH:__ZN6google8protobuf8internal17AllAreInitializedINS0_16RepeatedPtrFieldIN14chrome_lang_id5TokenEEEEEbRKT_
ija:__ZNK6google8protobuf5Empty12ByteSizeLongEv
Oea:__ZN6google8protobuf12_GLOBAL__N_1L13MergeFromFailEi_532
ina:__ZN10__cxxabiv116__shim_type_infoD2Ev
c6:__ZNK14chrome_lang_id8TaskSpec14parameter_sizeEv
Cy:__ZN6google8protobuf15UnknownFieldSet8AddGroupEi
mU:__ZN6google8protobuf2io16ArrayInputStreamC2EPKvii
Jla:__ZNK6google8protobuf11UInt64Value13IsInitializedEv
Ila:__ZNSt3__211char_traitsIcE6lengthEPKc
Yf:__ZNSt3__227__insertion_sort_incompleteIRPFbRKNS_4pairINS_12basic_stringIcNS_11char_traitsIcEENS_9allocatorIcEEEEfEESA_EPS8_EEbT0_SF_T_
yO:__ZN6google8protobuf8internal26FunctionResultCallback_1_0IPNSt3__212basic_stringIcNS3_11char_traitsIcEENS3_9allocatorIcEEEEPN14chrome_lang_id10TaskOutputEE3RunEv
X$:__ZNK14chrome_lang_id8TaskSpec9task_nameEv
xn:__ZNK6google8protobuf20FileDescriptorTables17GetSourceLocationERKNSt3__26vectorIiNS2_9allocatorIiEEEEPKNS0_14SourceCodeInfoE
me:__ZN6google8protobuf10TextFormat6Parser10ParserImpl9SkipFieldEv
xu:__ZN14chrome_lang_id12_GLOBAL__N_116FillMatrixParamsENS_22EmbeddingNetworkParams6MatrixEPNSt3__26vectorINS_16EmbeddingNetwork13VectorWrapperENS3_9allocatorIS6_EEEE
U9:__ZN6google8protobuf8internal24GeneratedExtensionFinder4FindEiPNS1_13ExtensionInfoE
yba:__ZN14chrome_lang_id15FeatureFunctionINS_8SentenceEJEED2Ev
J7:__ZN14chrome_lang_id8TaskSpec25internal_default_instanceEv
FK:__ZN6google8protobuf5Arena18CreateMaybeMessageINS0_19UninterpretedOptionEEEPT_PS1_z
Wfa:__ZN14chrome_lang_id8SentenceD0Ev
ch:__ZN6google8protobuf3Any27MergePartialFromCodedStreamEPNS0_2io16CodedInputStreamE
Nw:__ZN6google8protobuf8internal20RepeatedPtrFieldBase5ClearINS0_16RepeatedPtrFieldIN14chrome_lang_id14TaskInput_PartEE11TypeHandlerEEEvv
$p:__ZNSt3__26vectorIN14chrome_lang_id22NNetLanguageIdentifier6ResultENS_9allocatorIS3_EEE8__appendEjRKS3_
ck:__ZN6google8protobuf8internal10WireFormat31SerializeUnknownMessageSetItemsERKNS0_15UnknownFieldSetEPNS0_2io17CodedOutputStreamE
Cs:__ZNK6google8protobuf8internal16MapFieldAccessor4SwapEPvPKNS1_21RepeatedFieldAccessorES3_
Sfa:__ZNK14chrome_lang_id9TaskInput13IsInitializedEv
ZR:__ZNSt3__26vectorIN14chrome_lang_id13FeatureVectorENS_9allocatorIS2_EEE2atEj
GY:__ZNK6google8protobuf16RepeatedPtrFieldIN14chrome_lang_id5TokenEE3GetEi
sma:__ZNK14chrome_lang_id11StringPiece4sizeEv
V:getTotalMemory
Dp:__ZNK6google8protobuf8internal8MapFieldINSt3__212basic_stringIcNS3_11char_traitsIcEENS3_9allocatorIcEEEENS0_5ValueELNS1_14WireFormatLite9FieldTypeE9ELSC_11ELi0EE30SyncMapWithRepeatedFieldNoLockEv
fL:__ZN6google8protobuf11UInt32ValueC2Ev
j3:__ZN6google8protobuf5Arena3OwnINS0_11FileOptionsEEEvPT_
iZ:__ZN10emscripten8internal10getContextIPFNS_3valERKNSt3__26vectorIN14chrome_lang_id22NNetLanguageIdentifier6ResultENS3_9allocatorIS7_EEEEjEEEPT_RKSF_
Kja:__ZN6google8protobuf8internal21arena_destruct_objectINS1_5MutexEEEvPv
EY:__ZN6google8protobuf8internal18GenericTypeHandlerINSt3__212basic_stringIcNS3_11char_traitsIcEENS3_9allocatorIcEEEEE5MergeERKS9_PS9_
ei:__ZN6google8protobuf8internal12ExtensionSet9AddUInt64EihbyPKNS0_15FieldDescriptorE
dka:__ZN10emscripten3valC2EPNS_8internal7_EM_VALE
Zd:__ZN6google8protobuf28GeneratedCodeInfo_Annotation27MergePartialFromCodedStreamEPNS0_2io16CodedInputStreamE
_s:__ZN6google8protobuf16RepeatedPtrFieldINS0_15DescriptorProtoEE9MergeFromERKS3_
fF:__ZN6google8protobuf17FileDescriptorSet5ClearEv
hr:__ZN6google8protobuf4Enum15UnsafeMergeFromERKS1_
XB:__ZN6google8protobuf8internal20RepeatedPtrFieldBase9MergeFromINS0_16RepeatedPtrFieldIN14chrome_lang_id18TaskSpec_ParameterEE11TypeHandlerEEEvRKS2_
YQ:__ZN6google8protobuf16EnumValueOptions16default_instanceEv
QM:__ZN6google8protobuf8internal26FunctionResultCallback_1_0IPNSt3__212basic_stringIcNS3_11char_traitsIcEENS3_9allocatorIcEEEEPN14chrome_lang_id8SentenceEEC2EPFSA_SD_EbSD_
pfa:dynCall_dii
Dia:__ZNK6google8protobuf10Int32Value13GetCachedSizeEv
kma:__ZNKSt3__220__vector_base_commonILb1EE20__throw_out_of_rangeEv
Gx:__ZN6google8protobuf5Mixin9MergeFromERKNS0_7MessageE
qo:__ZNK6google8protobuf8internal26GeneratedMessageReflection9AddUInt32EPNS0_7MessageEPKNS0_15FieldDescriptorEj
GG:__ZN14chrome_lang_id23GenericFeatureExtractor5ParseERKNSt3__212basic_stringIcNS1_11char_traitsIcEENS1_9allocatorIcEEEE
JK:__ZN6google8protobuf5Arena18CreateMaybeMessageIN14chrome_lang_id14TaskInput_PartEEEPT_PS1_z
o$:__ZNK14chrome_lang_id8Sentence14unknown_fieldsEv
Iz:__ZN6google8protobuf8internal14WireFormatLite11WriteUInt64EiyPNS0_2io17CodedOutputStreamE
$q:__ZNSt3__26vectorIPKcNS_9allocatorIS2_EEE8__appendEj
pga:__ZN12_GLOBAL__N_1L16register_integerIaEEvPKc
Ta:embind_init_charCodes
Qma:__ZNKSt3__26vectorIiNS_9allocatorIiEEE8max_sizeEv
xm:__ZNK6google8protobuf8internal26GeneratedMessageReflection18GetStringReferenceERKNS0_7MessageEPKNS0_15FieldDescriptorEPNSt3__212basic_stringIcNS9_11char_traitsIcEENS9_9allocatorIcEEEE
jG:__ZNK6google8protobuf8internal30RepeatedFieldPrimitiveAccessorIjE4SwapEPvPKNS1_21RepeatedFieldAccessorES4_
mF:__ZN6google8protobuf22ServiceDescriptorProtoC2Ev
NZ:__ZN6google8protobuf63protobuf_InitDefaults_google_2fprotobuf_2fduration_2eproto_implEv
vr:__ZN6google8protobuf14DynamicMessage19CrossLinkPrototypesEv
_r:__ZN14chrome_lang_id14TaskInput_Part5ClearEv
Hma:__ZNK6google8protobuf5Empty13IsInitializedEv
xba:__ZN6google8protobuf20FieldDescriptorProtoD0Ev
_M:__ZN6google8protobuf25EncodedDescriptorDatabase23FindAllExtensionNumbersERKNSt3__212basic_stringIcNS2_11char_traitsIcEENS2_9allocatorIcEEEEPNS2_6vectorIiNS6_IiEEEE
_W:__ZN6google8protobuf6Option8CopyFromERKNS0_7MessageE
zr:__ZN6google8protobuf3MapINS0_6MapKeyENS0_11MapValueRefEE8InnerMap12TransferTreeEPKPvj
Xda:__ZNK6google8protobuf13SourceContext13SetCachedSizeEi
aE:__ZN6google8protobuf8internal12ExtensionSet14ClearExtensionEi
Lk:__ZN6google8protobuf2io14NoLocaleStrtodEPKcPPc
qv:__ZNK6google8protobuf8internal23RepeatedPtrFieldWrapperINS0_7MessageEE3AddEPvPKv
ida:__ZNK6google8protobuf8internal20RepeatedFieldWrapperIdE5ClearEPv
ML:__ZN14chrome_lang_id10TaskOutputC2Ev
Ika:establishStackSpace
k4:__ZN6google8protobuf8internal18GenericTypeHandlerIN14chrome_lang_id14TaskInput_PartEE5ClearEPS4_
RD:__ZNK6google8protobuf17GeneratedCodeInfo24SerializeWithCachedSizesEPNS0_2io17CodedOutputStreamE
dS:__ZN14chrome_lang_id22NNetLanguageIdentifier6ResultC2ERKS1_
Lj:__ZN6google8protobuf10TextFormat6Parser10ParserImpl14ConsumeMessageEPNS0_7MessageENSt3__212basic_stringIcNS6_11char_traitsIcEENS6_9allocatorIcEEEE
lV:__ZN6google8protobuf19EnumDescriptorProto8CopyFromERKNS0_7MessageE
Yl:__ZNK6google8protobuf8internal26GeneratedMessageReflection9GetStringERKNS0_7MessageEPKNS0_15FieldDescriptorE
wD:__ZN6google8protobuf28UninterpretedOption_NamePart5ClearEv
O4:__ZN6google8protobuf8internal21arena_destruct_objectIN14chrome_lang_id25FeatureFunctionDescriptorEEEvPv
Ec:FUNCTION_TABLE_diii
kb:_exit
Qm:__ZNK14chrome_lang_id10TaskOutput12ByteSizeLongEv
Q0:__ZN6google8protobuf5Arena3OwnINS0_28UninterpretedOption_NamePartEEEvPT_
ED:__ZN6google8protobuf25EncodedDescriptorDatabase27FindFileContainingExtensionERKNSt3__212basic_stringIcNS2_11char_traitsIcEENS2_9allocatorIcEEEEiPNS0_19FileDescriptorProtoE
XC:__ZN6google8protobuf13MethodOptions5ClearEv
Mha:__ZN6google8protobuf8internal30RepeatedPtrFieldStringAccessorD0Ev
i1:__ZNK14chrome_lang_id15FeatureFunctionINS_8SentenceEJEE12RegistryNameEv
dga:__ZN14chrome_lang_id22GenericFeatureFunction4InitEPNS_11TaskContextE
dn:__ZN6google8protobuf10TextFormat6Parser10ParserImpl19ConsumeFieldMessageEPNS0_7MessageEPKNS0_10ReflectionEPKNS0_15FieldDescriptorE
fQ:__ZN14chrome_lang_id18NumericFeatureTypeC2ERKNSt3__212basic_stringIcNS1_11char_traitsIcEENS1_9allocatorIcEEEEx
a0:__ZNSt3__26vectorIN14chrome_lang_id22NNetLanguageIdentifier6ResultENS_9allocatorIS3_EEED2Ev
u:tempInt
fn:__ZNK6google8protobuf8internal26GeneratedMessageReflection8GetInt64ERKNS0_7MessageEPKNS0_15FieldDescriptorE
Vp:__ZN6google8protobuf3MapINS0_6MapKeyENS0_11MapValueRefEE8InnerMap12InsertUniqueEjPNS5_4NodeE
sv:__ZN6google8protobuf3MapINS0_6MapKeyENS0_11MapValueRefEED2Ev
Rv:__ZN6google8protobuf8internal12ExtensionSet10ParseFieldEjPNS0_2io16CodedInputStreamEPKNS0_7MessageEPNS0_15UnknownFieldSetE
Sc:__ZNK6google8protobuf8internal12ExtensionSet9Extension29SerializeFieldWithCachedSizesEiPNS0_2io17CodedOutputStreamE
a6:__ZN14chrome_lang_id11UnicodeText11PointToUTF8EPKci
VP:__ZN6google8protobuf10TextFormat6Parser10ParserImpl20ParserErrorCollector8AddErrorEiiRKNSt3__212basic_stringIcNS5_11char_traitsIcEENS5_9allocatorIcEEEE
yR:__ZN14chrome_lang_id25FeatureFunctionDescriptorD2Ev
Kka:__ZNK14chrome_lang_id5Token9has_startEv
OH:__ZNSt3__26vectorIPN14chrome_lang_id9WorkspaceENS_9allocatorIS3_EEE6resizeEj
VT:__ZN6google8protobuf8internal9down_castIPKN14chrome_lang_id26FeatureExtractorDescriptorEKNS0_11MessageLiteEEET_PT0_
YG:__ZN6google8protobuf2io16CodedInputStream25PrintTotalBytesLimitErrorEv
jB:__ZNK14chrome_lang_id22NNetLanguageIdentifier11GetFeaturesEPNS_8SentenceEPNSt3__26vectorINS_13FeatureVectorENS3_9allocatorIS5_EEEE
wX:__ZNK10__cxxabiv117__pbase_type_info9can_catchEPKNS_16__shim_type_infoERPv
LP:__ZN10emscripten8internal12MemberAccessIN14chrome_lang_id22NNetLanguageIdentifier6ResultENSt3__212basic_stringIcNS5_11char_traitsIcEENS5_9allocatorIcEEEEE7getWireIS4_EEPNS0_11BindingTypeISB_EUt_ERKMS4_SB_RKT_
Cl:__ZN33EmscriptenBindingInitializer_cld3C2Ev
EN:__ZN6google8protobuf5Value9MergeFromERKNS0_7MessageE
GK:__ZN6google8protobuf5Arena18CreateMaybeMessageINS0_19EnumDescriptorProtoEEEPT_PS1_z
XN:__ZNK6google8protobuf9BoolValue11GetMetadataEv
jI:__ZNK6google8protobuf8internal20RepeatedFieldWrapperIxE3AddEPvPKv
FU:__ZN6google8protobuf8internal9down_castIPKN14chrome_lang_id18TaskSpec_ParameterEKNS0_11MessageLiteEEET_PT0_
xR:_getint
Aq:__ZNK6google8protobuf8internal26GeneratedMessageReflection17SetRepeatedUInt64EPNS0_7MessageEPKNS0_15FieldDescriptorEiy
Uma:__ZNK6google8protobuf3Any13IsInitializedEv
M6:__ZN6google8protobuf12_GLOBAL__N_123GeneratedMessageFactoryD0Ev
aQ:__ZNK6google8protobuf8internal26GeneratedMessageReflection15GetRepeatedEnumERKNS0_7MessageEPKNS0_15FieldDescriptorEi
hha:__ZN6google8protobuf5ValueD0Ev
UU:__ZN14chrome_lang_id16EmbeddingNetwork15EmbeddingMatrix17GetRowSizeInBytesEiNS_16QuantizationTypeE
ln:__ZNK6google8protobuf20OneofDescriptorProto12ByteSizeLongEv
ffa:__ZNKSt3__26vectorIN14chrome_lang_id22NNetLanguageIdentifier6ResultENS_9allocatorIS3_EEE8max_sizeEv
A7:__ZN14chrome_lang_id9Parameter25internal_default_instanceEv
l9:__ZNK14chrome_lang_id15FeatureFunctionINS_8SentenceEJEE10PreprocessEPNS_12WorkspaceSetEPS1_
_v:__ZNK6google8protobuf8internal8MapEntryINSt3__212basic_stringIcNS3_11char_traitsIcEENS3_9allocatorIcEEEENS0_5ValueELNS1_14WireFormatLite9FieldTypeE9ELSC_11ELi0EE3NewEPNS0_5ArenaE
N:Math_ceil
lla:__ZN6google8protobuf6ghtonlEj
QH:__ZN6google8protobuf12_GLOBAL__N_127InitGeneratedMessageFactoryEv
uY:__ZNK6google8protobuf8internal12MapEntryLiteINSt3__212basic_stringIcNS3_11char_traitsIcEENS3_9allocatorIcEEEENS0_5ValueELNS1_14WireFormatLite9FieldTypeE9ELSC_11ELi0EE15MapEntryWrapperIS9_SA_LSC_9ELSC_11ELi0EE3keyEv
Hd:__ZNK6google8protobuf8internal26GeneratedMessageReflection9FieldSizeERKNS0_7MessageEPKNS0_15FieldDescriptorE
SM:__ZN6google8protobuf20NewPermanentCallbackIPNSt3__212basic_stringIcNS2_11char_traitsIcEENS2_9allocatorIcEEEEPN14chrome_lang_id18TaskSpec_ParameterEEEPNS0_14ResultCallbackIT_EEPFSE_T0_ESH_
zF:__ZNK6google8protobuf8internal23TypeDefinedMapFieldBaseINSt3__212basic_stringIcNS3_11char_traitsIcEENS3_9allocatorIcEEEENS0_5ValueEE13EqualIteratorERKNS0_11MapIteratorESE_
RY:__ZN6google8protobuf16RepeatedPtrFieldIN14chrome_lang_id18TaskSpec_ParameterEE5ClearEv
ON:__ZN6google8protobuf29DescriptorProto_ReservedRangeD0Ev
e$:__ZNK6google8protobuf8internal31RepeatedPtrFieldMessageAccessor10ConvertToTEPKvPNS0_7MessageE
nx:__ZNK6google8protobuf8internal8MapEntryINSt3__212basic_stringIcNS3_11char_traitsIcEENS3_9allocatorIcEEEENS0_5ValueELNS1_14WireFormatLite9FieldTypeE9ELSC_11ELi0EE39InternalSerializeWithCachedSizesToArrayEbPh
yL:__ZN6google8protobuf19EnumDescriptorProto9MergeFromERKNS0_7MessageE
Rg:__ZNK6google8protobuf4Type39InternalSerializeWithCachedSizesToArrayEbPh
A5:__ZN6google8protobuf8internal21arena_destruct_objectIN14chrome_lang_id18TaskSpec_ParameterEEEvPv
pX:__ZN6google8protobuf2io17CodedOutputStream12VarintSize64Ey
pia:__ZNK6google8protobuf6Option20GetMaybeArenaPointerEv
sU:__ZN14chrome_lang_id14TaskInput_Part21CheckTypeAndMergeFromERKN6google8protobuf11MessageLiteE
bK:__ZNSt3__213__vector_baseINS_4pairINS_12basic_stringIcNS_11char_traitsIcEENS_9allocatorIcEEEEfEENS5_IS8_EEED2Ev
ph:__ZNSt3__212__hash_tableINS_17__hash_value_typeIPKcN6google8protobuf12_GLOBAL__N_16SymbolEEENS_22__unordered_map_hasherIS3_S8_NS5_4hashIS3_EELb1EEENS_21__unordered_map_equalIS3_S8_NS5_5streqELb1EEENS_9allocatorIS8_EEE8__rehashEj
pN:__ZNK6google8protobuf11UInt64Value11GetMetadataEv
Lf:__ZNSt3__26__treeIPNS_12basic_stringIcNS_11char_traitsIcEENS_9allocatorIcEEEEN6google8protobuf3MapIS6_NS9_5ValueEE8InnerMap10KeyCompareENSC_12MapAllocatorIS7_EEE12__find_equalIS7_EERPNS_16__tree_node_baseIPvEENS_21__tree_const_iteratorIS7_PNS_11__tree_nodeIS7_SK_EEiEERPNS_15__tree_end_nodeISM_EESN_RKT_
Fv:__ZNK6google8protobuf20OneofDescriptorProto39InternalSerializeWithCachedSizesToArrayEbPh
of:__ZNK6google8protobuf14EnumDescriptor11DebugStringEiPNSt3__212basic_stringIcNS2_11char_traitsIcEENS2_9allocatorIcEEEERKNS0_18DebugStringOptionsE
Pb:getInheritedInstance
bw:__ZNK6google8protobuf8internal12ExtensionSet10GetMessageEiPKNS0_10DescriptorEPNS0_14MessageFactoryE
Z:invoke_viiiii
wA:__ZNSt3__26__treeINS_12__value_typeINS_4pairINS_12basic_stringIcNS_11char_traitsIcEENS_9allocatorIcEEEEiEENS2_IPKviEEEENS_19__map_value_compareIS9_SD_NS_4lessIS9_EELb1EEENS6_ISD_EEE7destroyEPNS_11__tree_nodeISD_PvEE
Rb:___gxx_personality_v0
t:inf
$:invoke_viiiid
Vx:__ZNK6google8protobuf6Option24SerializeWithCachedSizesEPNS0_2io17CodedOutputStreamE
Eq:__ZN6google8protobuf64protobuf_AssignDesc_google_2fprotobuf_2fsource_5fcontext_2eprotoEv
X8:__ZN6google8protobuf28GeneratedCodeInfo_AnnotationD0Ev
Bea:__ZNK6google8protobuf11DoubleValue13SetCachedSizeEi
lI:__ZNK6google8protobuf14MessageOptions13IsInitializedEv
Vma:_scalbnl
_f:__ZNSt3__212__hash_tableINS_12basic_stringIcNS_11char_traitsIcEENS_9allocatorIcEEEEN6google8protobuf4hashIS6_EENS_8equal_toIS6_EENS4_IS6_EEE8__rehashEj
xD:__ZN10emscripten8internal13MethodInvokerIMNSt3__26vectorIN14chrome_lang_id22NNetLanguageIdentifier6ResultENS2_9allocatorIS6_EEEEFvRKS6_EvPS9_JSB_EE6invokeERKSD_SE_PS6_
Hq:__ZN6google8protobuf60protobuf_AssignDesc_google_2fprotobuf_2ffield_5fmask_2eprotoEv
_0:__ZN14chrome_lang_idL49MutableUnknownFieldsForFeatureExtractorDescriptorEPNS_26FeatureExtractorDescriptorE
Pf:__ZNK6google8protobuf20FieldDescriptorProto39InternalSerializeWithCachedSizesToArrayEbPh
qk:__ZN6google8protobuf15DescriptorProto15UnsafeMergeFromERKS1_
xU:__ZN6google8protobuf28GeneratedCodeInfo_Annotation8CopyFromERKNS0_7MessageE
sba:__ZNK6google8protobuf8Duration3NewEv
G3:__ZNK6google8protobuf11MessageLite31SerializeWithCachedSizesToArrayEPh
tS:__GLOBAL__sub_I_struct_pb_cc
PX:__ZNK6google8protobuf8internal15DynamicMapField4sizeEv
ek:__ZNK6google8protobuf16MethodDescriptor6CopyToEPNS0_21MethodDescriptorProtoE
Mma:__ZNK6google8protobuf4Type13IsInitializedEv
HP:__ZN6google8protobuf12StringPrintfEPKcz
H6:__ZNSt3__211char_traitsIcE4copyEPcPKcj
g7:__ZN6google8protobuf8internal21ExplicitlyConstructedIN14chrome_lang_id5TokenEE16DefaultConstructEv
PA:__ZN6google8protobuf10SimpleDtoaEd
KP:__ZN14chrome_lang_id16FeatureExtractorINS_8SentenceEJEE5SetupEPNS_11TaskContextE
Xw:__ZNK6google8protobuf6MapKey14GetStringValueEv
l7:__ZN10emscripten12value_objectIN14chrome_lang_id22NNetLanguageIdentifier6ResultEEC2EPKc
cma:__ZNK6google8protobuf9EnumValue13IsInitializedEv
Xl:__ZN6google8protobuf10Int32Value27MergePartialFromCodedStreamEPNS0_2io16CodedInputStreamE
I:Math_asin
g8:__ZNK6google8protobuf28UninterpretedOption_NamePart3NewEv
Iy:__ZNK6google8protobuf15OneofDescriptor6CopyToEPNS0_20OneofDescriptorProtoE
eea:__ZNSt3__210__function6__funcIPFbPKcPiENS_9allocatorIS6_EES5_E18destroy_deallocateEv
eF:__ZN6google8protobuf17GeneratedCodeInfo5ClearEv
$7:__ZNK6google8protobuf8internal20RepeatedFieldWrapperIdE10RemoveLastEPv
LO:__ZN6google8protobuf20NewPermanentCallbackIPNSt3__212basic_stringIcNS2_11char_traitsIcEENS2_9allocatorIcEEEEPN14chrome_lang_id9TaskInputEEEPNS0_14ResultCallbackIT_EEPFSE_T0_ESH_
Bv:__ZNK6google8protobuf8internal12MapEntryLiteINSt3__212basic_stringIcNS3_11char_traitsIcEENS3_9allocatorIcEEEENS0_5ValueELNS1_14WireFormatLite9FieldTypeE9ELSC_11ELi0EE13GetCachedSizeEv
YV:__ZN6google8protobuf8internal18GenericTypeHandlerINS0_5FieldEE5MergeERKS3_PS3_
Lq:__ZN6google8protobuf53protobuf_AssignDesc_google_2fprotobuf_2fempty_2eprotoEv
N5:__ZN14chrome_lang_id16RegistryMetadata8RegisterEPS0_
PU:__ZNK6google8protobuf11UInt32Value24SerializeWithCachedSizesEPNS0_2io17CodedOutputStreamE
c7:__ZN6google8protobuf16RepeatedPtrFieldIN14chrome_lang_id18TaskSpec_ParameterEEC2Ev
XW:__ZNK6google8protobuf14ServiceOptions3NewEPNS0_5ArenaE
Pz:__ZN6google8protobuf8internal12ExtensionSet9MergeFromERKS2_
F7:__ZN6google8protobuf8internal21arena_destruct_objectINS0_13SourceContextEEEvPv
Sz:__ZN6google8protobuf11FileOptionsC2Ev
KY:__ZN6google8protobuf6Option9MergeFromERKS1_
U3:__ZNK6google8protobuf10Int64Value31SerializeWithCachedSizesToArrayEPh
Vf:__ZN6google8protobuf20OneofDescriptorProto27MergePartialFromCodedStreamEPNS0_2io16CodedInputStreamE
